
main.elf:     file format elf32-littlearm

Sections:
Idx Name          Size      VMA       LMA       File off  Algn
  0 .boot2        00000100  10000000  10000000  00010000  2**0
                  CONTENTS, ALLOC, LOAD, READONLY, CODE
  1 .text         00007c90  10000100  10000100  00010100  2**3
                  CONTENTS, ALLOC, LOAD, READONLY, CODE
  2 .rodata       000010dc  10007d90  10007d90  00017d90  2**3
                  CONTENTS, ALLOC, LOAD, READONLY, DATA
  3 .binary_info  00000020  10008e6c  10008e6c  00018e6c  2**2
                  CONTENTS, ALLOC, LOAD, DATA
  4 .ram_vector_table 000000c0  20000000  20000000  00020b64  2**2
                  CONTENTS
  5 .data         00000aa4  200000c0  10008e8c  000200c0  2**4
                  CONTENTS, ALLOC, LOAD, CODE
  6 .uninitialized_data 00000000  20000b64  20000b64  00020c24  2**0
                  CONTENTS
  7 .scratch_x    00000000  20040000  20040000  00020c24  2**0
                  CONTENTS
  8 .scratch_y    00000000  20041000  20041000  00020c24  2**0
                  CONTENTS
  9 .bss          00001104  20000b68  20000b68  00020b68  2**3
                  ALLOC
 10 .heap         00000800  20001c6c  20001c6c  00020c24  2**2
                  CONTENTS, READONLY
 11 .stack1_dummy 00000800  20040000  20040000  00021424  2**2
                  CONTENTS
 12 .stack_dummy  00000800  20041000  20041000  00021c40  2**5
                  CONTENTS, READONLY
 13 .ARM.attributes 00000028  00000000  00000000  00022440  2**0
                  CONTENTS, READONLY
 14 .comment      00000031  00000000  00000000  00022468  2**0
                  CONTENTS, READONLY
 15 .debug_info   00016828  00000000  00000000  00022499  2**0
                  CONTENTS, READONLY, DEBUGGING
 16 .debug_abbrev 00004e48  00000000  00000000  00038cc1  2**0
                  CONTENTS, READONLY, DEBUGGING
 17 .debug_aranges 00001588  00000000  00000000  0003db10  2**3
                  CONTENTS, READONLY, DEBUGGING
 18 .debug_ranges 000012c8  00000000  00000000  0003f098  2**3
                  CONTENTS, READONLY, DEBUGGING
 19 .debug_line   00009be4  00000000  00000000  00040360  2**0
                  CONTENTS, READONLY, DEBUGGING
 20 .debug_str    00003baf  00000000  00000000  00049f44  2**0
                  CONTENTS, READONLY, DEBUGGING
 21 .debug_frame  0000364c  00000000  00000000  0004daf4  2**2
                  CONTENTS, READONLY, DEBUGGING
 22 .debug_loc    00001669  00000000  00000000  00051140  2**0
                  CONTENTS, READONLY, DEBUGGING
 23 .stabstr      000000e3  00000000  00000000  000527a9  2**0
                  CONTENTS, READONLY, DEBUGGING

main.elf:     file format elf32-littlearm


Disassembly of section .boot2:

10000000 <__flash_binary_start>:
10000000:	4b32b500 	.word	0x4b32b500
10000004:	60582021 	.word	0x60582021
10000008:	21026898 	.word	0x21026898
1000000c:	60984388 	.word	0x60984388
10000010:	611860d8 	.word	0x611860d8
10000014:	4b2e6158 	.word	0x4b2e6158
10000018:	60992100 	.word	0x60992100
1000001c:	61592102 	.word	0x61592102
10000020:	22f02101 	.word	0x22f02101
10000024:	492b5099 	.word	0x492b5099
10000028:	21016019 	.word	0x21016019
1000002c:	20356099 	.word	0x20356099
10000030:	f844f000 	.word	0xf844f000
10000034:	42902202 	.word	0x42902202
10000038:	2106d014 	.word	0x2106d014
1000003c:	f0006619 	.word	0xf0006619
10000040:	6e19f834 	.word	0x6e19f834
10000044:	66192101 	.word	0x66192101
10000048:	66182000 	.word	0x66182000
1000004c:	f000661a 	.word	0xf000661a
10000050:	6e19f82c 	.word	0x6e19f82c
10000054:	6e196e19 	.word	0x6e196e19
10000058:	f0002005 	.word	0xf0002005
1000005c:	2101f82f 	.word	0x2101f82f
10000060:	d1f94208 	.word	0xd1f94208
10000064:	60992100 	.word	0x60992100
10000068:	6019491b 	.word	0x6019491b
1000006c:	60592100 	.word	0x60592100
10000070:	481b491a 	.word	0x481b491a
10000074:	21016001 	.word	0x21016001
10000078:	21eb6099 	.word	0x21eb6099
1000007c:	21a06619 	.word	0x21a06619
10000080:	f0006619 	.word	0xf0006619
10000084:	2100f812 	.word	0x2100f812
10000088:	49166099 	.word	0x49166099
1000008c:	60014814 	.word	0x60014814
10000090:	60992101 	.word	0x60992101
10000094:	2800bc01 	.word	0x2800bc01
10000098:	4700d000 	.word	0x4700d000
1000009c:	49134812 	.word	0x49134812
100000a0:	c8036008 	.word	0xc8036008
100000a4:	8808f380 	.word	0x8808f380
100000a8:	b5034708 	.word	0xb5034708
100000ac:	20046a99 	.word	0x20046a99
100000b0:	d0fb4201 	.word	0xd0fb4201
100000b4:	42012001 	.word	0x42012001
100000b8:	bd03d1f8 	.word	0xbd03d1f8
100000bc:	6618b502 	.word	0x6618b502
100000c0:	f7ff6618 	.word	0xf7ff6618
100000c4:	6e18fff2 	.word	0x6e18fff2
100000c8:	bd026e18 	.word	0xbd026e18
100000cc:	40020000 	.word	0x40020000
100000d0:	18000000 	.word	0x18000000
100000d4:	00070000 	.word	0x00070000
100000d8:	005f0300 	.word	0x005f0300
100000dc:	00002221 	.word	0x00002221
100000e0:	180000f4 	.word	0x180000f4
100000e4:	a0002022 	.word	0xa0002022
100000e8:	10000100 	.word	0x10000100
100000ec:	e000ed08 	.word	0xe000ed08
	...
100000fc:	7a4eb274 	.word	0x7a4eb274

Disassembly of section .text:

10000100 <__vectors>:
10000100:	20042000 	.word	0x20042000
10000104:	100001f7 	.word	0x100001f7
10000108:	100001c3 	.word	0x100001c3
1000010c:	100001c5 	.word	0x100001c5
10000110:	100001c1 	.word	0x100001c1
10000114:	100001c1 	.word	0x100001c1
10000118:	100001c1 	.word	0x100001c1
1000011c:	100001c1 	.word	0x100001c1
10000120:	100001c1 	.word	0x100001c1
10000124:	100001c1 	.word	0x100001c1
10000128:	100001c1 	.word	0x100001c1
1000012c:	100001c7 	.word	0x100001c7
10000130:	100001c1 	.word	0x100001c1
10000134:	100001c1 	.word	0x100001c1
10000138:	1000102d 	.word	0x1000102d
1000013c:	1000096d 	.word	0x1000096d
10000140:	100001cd 	.word	0x100001cd
10000144:	100001cd 	.word	0x100001cd
10000148:	100001cd 	.word	0x100001cd
1000014c:	100001cd 	.word	0x100001cd
10000150:	100001cd 	.word	0x100001cd
10000154:	100001cd 	.word	0x100001cd
10000158:	100001cd 	.word	0x100001cd
1000015c:	100001cd 	.word	0x100001cd
10000160:	100001cd 	.word	0x100001cd
10000164:	100001cd 	.word	0x100001cd
10000168:	100001cd 	.word	0x100001cd
1000016c:	100001cd 	.word	0x100001cd
10000170:	100001cd 	.word	0x100001cd
10000174:	100001cd 	.word	0x100001cd
10000178:	100001cd 	.word	0x100001cd
1000017c:	100001cd 	.word	0x100001cd
10000180:	100001cd 	.word	0x100001cd
10000184:	100001cd 	.word	0x100001cd
10000188:	100001cd 	.word	0x100001cd
1000018c:	100001cd 	.word	0x100001cd
10000190:	100001cd 	.word	0x100001cd
10000194:	100001cd 	.word	0x100001cd
10000198:	100001cd 	.word	0x100001cd
1000019c:	100001cd 	.word	0x100001cd
100001a0:	100001cd 	.word	0x100001cd
100001a4:	100001cd 	.word	0x100001cd
100001a8:	100001cd 	.word	0x100001cd
100001ac:	100001cd 	.word	0x100001cd
100001b0:	100001cd 	.word	0x100001cd
100001b4:	100001cd 	.word	0x100001cd
100001b8:	100001cd 	.word	0x100001cd
100001bc:	100001cd 	.word	0x100001cd

100001c0 <isr_invalid>:
100001c0:	be00      	bkpt	0x0000

100001c2 <isr_nmi>:
100001c2:	be00      	bkpt	0x0000

100001c4 <isr_hardfault>:
100001c4:	be00      	bkpt	0x0000

100001c6 <isr_svcall>:
100001c6:	be00      	bkpt	0x0000
100001c8:	be00      	bkpt	0x0000
100001ca:	be00      	bkpt	0x0000

100001cc <__unhandled_user_irq>:
100001cc:	f000 f84b 	bl	10000266 <__get_current_exception>
100001d0:	3810      	subs	r0, #16

100001d2 <unhandled_user_irq_num_in_r0>:
100001d2:	be00      	bkpt	0x0000

100001d4 <binary_info_header>:
100001d4:	7188ebf2 	.word	0x7188ebf2
100001d8:	10008e6c 	.word	0x10008e6c
100001dc:	10008e8c 	.word	0x10008e8c
100001e0:	10000234 	.word	0x10000234
100001e4:	e71aa390 	.word	0xe71aa390

100001e8 <_entry_point>:
100001e8:	2000      	movs	r0, #0
100001ea:	4921      	ldr	r1, [pc, #132]	; (10000270 <__get_current_exception+0xa>)
100001ec:	6008      	str	r0, [r1, #0]
100001ee:	c806      	ldmia	r0!, {r1, r2}
100001f0:	f381 8808 	msr	MSP, r1
100001f4:	4710      	bx	r2

100001f6 <_reset_handler>:
100001f6:	481f      	ldr	r0, [pc, #124]	; (10000274 <__get_current_exception+0xe>)
100001f8:	6800      	ldr	r0, [r0, #0]
100001fa:	2800      	cmp	r0, #0
100001fc:	d12f      	bne.n	1000025e <hold_non_core0_in_bootrom>
100001fe:	a40d      	add	r4, pc, #52	; (adr r4, 10000234 <data_cpy_table>)
10000200:	cc0e      	ldmia	r4!, {r1, r2, r3}
10000202:	2900      	cmp	r1, #0
10000204:	d002      	beq.n	1000020c <_reset_handler+0x16>
10000206:	f000 f812 	bl	1000022e <data_cpy>
1000020a:	e7f9      	b.n	10000200 <_reset_handler+0xa>
1000020c:	491a      	ldr	r1, [pc, #104]	; (10000278 <__get_current_exception+0x12>)
1000020e:	4a1b      	ldr	r2, [pc, #108]	; (1000027c <__get_current_exception+0x16>)
10000210:	2000      	movs	r0, #0
10000212:	e000      	b.n	10000216 <bss_fill_test>

10000214 <bss_fill_loop>:
10000214:	c101      	stmia	r1!, {r0}

10000216 <bss_fill_test>:
10000216:	4291      	cmp	r1, r2
10000218:	d1fc      	bne.n	10000214 <bss_fill_loop>

1000021a <platform_entry>:
1000021a:	4919      	ldr	r1, [pc, #100]	; (10000280 <__get_current_exception+0x1a>)
1000021c:	4788      	blx	r1
1000021e:	4919      	ldr	r1, [pc, #100]	; (10000284 <__get_current_exception+0x1e>)
10000220:	4788      	blx	r1
10000222:	4919      	ldr	r1, [pc, #100]	; (10000288 <__get_current_exception+0x22>)
10000224:	4788      	blx	r1
10000226:	be00      	bkpt	0x0000
10000228:	e7fd      	b.n	10000226 <platform_entry+0xc>

1000022a <data_cpy_loop>:
1000022a:	c901      	ldmia	r1!, {r0}
1000022c:	c201      	stmia	r2!, {r0}

1000022e <data_cpy>:
1000022e:	429a      	cmp	r2, r3
10000230:	d3fb      	bcc.n	1000022a <data_cpy_loop>
10000232:	4770      	bx	lr

10000234 <data_cpy_table>:
10000234:	10008e8c 	.word	0x10008e8c
10000238:	200000c0 	.word	0x200000c0
1000023c:	20000b64 	.word	0x20000b64
10000240:	10009930 	.word	0x10009930
10000244:	20040000 	.word	0x20040000
10000248:	20040000 	.word	0x20040000
1000024c:	10009930 	.word	0x10009930
10000250:	20041000 	.word	0x20041000
10000254:	20041000 	.word	0x20041000
10000258:	00000000 	.word	0x00000000
1000025c:	4770      	bx	lr

1000025e <hold_non_core0_in_bootrom>:
1000025e:	480b      	ldr	r0, [pc, #44]	; (1000028c <__get_current_exception+0x26>)
10000260:	f005 fb24 	bl	100058ac <rom_func_lookup>
10000264:	4700      	bx	r0

10000266 <__get_current_exception>:
10000266:	f3ef 8005 	mrs	r0, IPSR
1000026a:	b2c0      	uxtb	r0, r0
1000026c:	4770      	bx	lr
1000026e:	0000      	.short	0x0000
10000270:	e000ed08 	.word	0xe000ed08
10000274:	d0000000 	.word	0xd0000000
10000278:	20000b68 	.word	0x20000b68
1000027c:	20001c6c 	.word	0x20001c6c
10000280:	10003059 	.word	0x10003059
10000284:	1000083d 	.word	0x1000083d
10000288:	100031b5 	.word	0x100031b5
1000028c:	00005657 	.word	0x00005657

10000290 <__bi_18>:
10000290:	50520005 68f465de 10009930              ..RP.e.h0...

1000029c <__bi_26>:
1000029c:	50520006 9da22254 10008d00              ..RPT"......

100002a8 <__bi_34>:
100002a8:	50520006 02031c86 10008d0c              ..RP........

100002b4 <__bi_46>:
100002b4:	50520006 5360b3ab 10008d1c              ..RP..`S....

100002c0 <_init>:
100002c0:	b5f8      	push	{r3, r4, r5, r6, r7, lr}
100002c2:	46c0      	nop			; (mov r8, r8)

100002c4 <deregister_tm_clones>:
100002c4:	4b05      	ldr	r3, [pc, #20]	; (100002dc <deregister_tm_clones+0x18>)
100002c6:	4806      	ldr	r0, [pc, #24]	; (100002e0 <deregister_tm_clones+0x1c>)
100002c8:	3303      	adds	r3, #3
100002ca:	b510      	push	{r4, lr}
100002cc:	1a1b      	subs	r3, r3, r0
100002ce:	2b06      	cmp	r3, #6
100002d0:	d903      	bls.n	100002da <deregister_tm_clones+0x16>
100002d2:	4b04      	ldr	r3, [pc, #16]	; (100002e4 <deregister_tm_clones+0x20>)
100002d4:	2b00      	cmp	r3, #0
100002d6:	d000      	beq.n	100002da <deregister_tm_clones+0x16>
100002d8:	4798      	blx	r3
100002da:	bd10      	pop	{r4, pc}
100002dc:	20000b64 	.word	0x20000b64
100002e0:	20000b64 	.word	0x20000b64
100002e4:	00000000 	.word	0x00000000

100002e8 <register_tm_clones>:
100002e8:	4806      	ldr	r0, [pc, #24]	; (10000304 <register_tm_clones+0x1c>)
100002ea:	4907      	ldr	r1, [pc, #28]	; (10000308 <register_tm_clones+0x20>)
100002ec:	b510      	push	{r4, lr}
100002ee:	1a09      	subs	r1, r1, r0
100002f0:	1089      	asrs	r1, r1, #2
100002f2:	0fcb      	lsrs	r3, r1, #31
100002f4:	1859      	adds	r1, r3, r1
100002f6:	1049      	asrs	r1, r1, #1
100002f8:	d003      	beq.n	10000302 <register_tm_clones+0x1a>
100002fa:	4b04      	ldr	r3, [pc, #16]	; (1000030c <register_tm_clones+0x24>)
100002fc:	2b00      	cmp	r3, #0
100002fe:	d000      	beq.n	10000302 <register_tm_clones+0x1a>
10000300:	4798      	blx	r3
10000302:	bd10      	pop	{r4, pc}
10000304:	20000b64 	.word	0x20000b64
10000308:	20000b64 	.word	0x20000b64
1000030c:	00000000 	.word	0x00000000

10000310 <__do_global_dtors_aux>:
10000310:	b510      	push	{r4, lr}
10000312:	4c07      	ldr	r4, [pc, #28]	; (10000330 <__do_global_dtors_aux+0x20>)
10000314:	7823      	ldrb	r3, [r4, #0]
10000316:	2b00      	cmp	r3, #0
10000318:	d109      	bne.n	1000032e <__do_global_dtors_aux+0x1e>
1000031a:	f7ff ffd3 	bl	100002c4 <deregister_tm_clones>
1000031e:	4b05      	ldr	r3, [pc, #20]	; (10000334 <__do_global_dtors_aux+0x24>)
10000320:	2b00      	cmp	r3, #0
10000322:	d002      	beq.n	1000032a <__do_global_dtors_aux+0x1a>
10000324:	4804      	ldr	r0, [pc, #16]	; (10000338 <__do_global_dtors_aux+0x28>)
10000326:	e000      	b.n	1000032a <__do_global_dtors_aux+0x1a>
10000328:	bf00      	nop
1000032a:	2301      	movs	r3, #1
1000032c:	7023      	strb	r3, [r4, #0]
1000032e:	bd10      	pop	{r4, pc}
10000330:	20000b68 	.word	0x20000b68
10000334:	00000000 	.word	0x00000000
10000338:	10007d90 	.word	0x10007d90

1000033c <frame_dummy>:
1000033c:	4b09      	ldr	r3, [pc, #36]	; (10000364 <frame_dummy+0x28>)
1000033e:	b510      	push	{r4, lr}
10000340:	2b00      	cmp	r3, #0
10000342:	d003      	beq.n	1000034c <frame_dummy+0x10>
10000344:	4908      	ldr	r1, [pc, #32]	; (10000368 <frame_dummy+0x2c>)
10000346:	4809      	ldr	r0, [pc, #36]	; (1000036c <frame_dummy+0x30>)
10000348:	e000      	b.n	1000034c <frame_dummy+0x10>
1000034a:	bf00      	nop
1000034c:	4808      	ldr	r0, [pc, #32]	; (10000370 <frame_dummy+0x34>)
1000034e:	6803      	ldr	r3, [r0, #0]
10000350:	2b00      	cmp	r3, #0
10000352:	d102      	bne.n	1000035a <frame_dummy+0x1e>
10000354:	f7ff ffc8 	bl	100002e8 <register_tm_clones>
10000358:	bd10      	pop	{r4, pc}
1000035a:	4b06      	ldr	r3, [pc, #24]	; (10000374 <frame_dummy+0x38>)
1000035c:	2b00      	cmp	r3, #0
1000035e:	d0f9      	beq.n	10000354 <frame_dummy+0x18>
10000360:	4798      	blx	r3
10000362:	e7f7      	b.n	10000354 <frame_dummy+0x18>
10000364:	00000000 	.word	0x00000000
10000368:	20000b6c 	.word	0x20000b6c
1000036c:	10007d90 	.word	0x10007d90
10000370:	20000b64 	.word	0x20000b64
10000374:	00000000 	.word	0x00000000

10000378 <gpio_set_dir_out_masked>:
10000378:	b580      	push	{r7, lr}
1000037a:	b082      	sub	sp, #8
1000037c:	af00      	add	r7, sp, #0
1000037e:	6078      	str	r0, [r7, #4]
10000380:	23d0      	movs	r3, #208	; 0xd0
10000382:	061b      	lsls	r3, r3, #24
10000384:	687a      	ldr	r2, [r7, #4]
10000386:	625a      	str	r2, [r3, #36]	; 0x24
10000388:	46c0      	nop			; (mov r8, r8)
1000038a:	46bd      	mov	sp, r7
1000038c:	b002      	add	sp, #8
1000038e:	bd80      	pop	{r7, pc}

10000390 <gpio_set_dir_in_masked>:
10000390:	b580      	push	{r7, lr}
10000392:	b082      	sub	sp, #8
10000394:	af00      	add	r7, sp, #0
10000396:	6078      	str	r0, [r7, #4]
10000398:	23d0      	movs	r3, #208	; 0xd0
1000039a:	061b      	lsls	r3, r3, #24
1000039c:	687a      	ldr	r2, [r7, #4]
1000039e:	629a      	str	r2, [r3, #40]	; 0x28
100003a0:	46c0      	nop			; (mov r8, r8)
100003a2:	46bd      	mov	sp, r7
100003a4:	b002      	add	sp, #8
100003a6:	bd80      	pop	{r7, pc}

100003a8 <gpio_set_dir>:
100003a8:	b580      	push	{r7, lr}
100003aa:	b084      	sub	sp, #16
100003ac:	af00      	add	r7, sp, #0
100003ae:	6078      	str	r0, [r7, #4]
100003b0:	000a      	movs	r2, r1
100003b2:	1cfb      	adds	r3, r7, #3
100003b4:	701a      	strb	r2, [r3, #0]
100003b6:	2201      	movs	r2, #1
100003b8:	687b      	ldr	r3, [r7, #4]
100003ba:	409a      	lsls	r2, r3
100003bc:	0013      	movs	r3, r2
100003be:	60fb      	str	r3, [r7, #12]
100003c0:	1cfb      	adds	r3, r7, #3
100003c2:	781b      	ldrb	r3, [r3, #0]
100003c4:	2b00      	cmp	r3, #0
100003c6:	d004      	beq.n	100003d2 <gpio_set_dir+0x2a>
100003c8:	68fb      	ldr	r3, [r7, #12]
100003ca:	0018      	movs	r0, r3
100003cc:	f7ff ffd4 	bl	10000378 <gpio_set_dir_out_masked>
100003d0:	e003      	b.n	100003da <gpio_set_dir+0x32>
100003d2:	68fb      	ldr	r3, [r7, #12]
100003d4:	0018      	movs	r0, r3
100003d6:	f7ff ffdb 	bl	10000390 <gpio_set_dir_in_masked>
100003da:	46c0      	nop			; (mov r8, r8)
100003dc:	46bd      	mov	sp, r7
100003de:	b004      	add	sp, #16
100003e0:	bd80      	pop	{r7, pc}
	...

100003e4 <blink>:
100003e4:	b580      	push	{r7, lr}
100003e6:	af00      	add	r7, sp, #0
100003e8:	4b08      	ldr	r3, [pc, #32]	; (1000040c <blink+0x28>)
100003ea:	2280      	movs	r2, #128	; 0x80
100003ec:	0252      	lsls	r2, r2, #9
100003ee:	601a      	str	r2, [r3, #0]
100003f0:	4b07      	ldr	r3, [pc, #28]	; (10000410 <blink+0x2c>)
100003f2:	0018      	movs	r0, r3
100003f4:	f000 fdce 	bl	10000f94 <delayus>
100003f8:	4b06      	ldr	r3, [pc, #24]	; (10000414 <blink+0x30>)
100003fa:	2280      	movs	r2, #128	; 0x80
100003fc:	0252      	lsls	r2, r2, #9
100003fe:	601a      	str	r2, [r3, #0]
10000400:	4b03      	ldr	r3, [pc, #12]	; (10000410 <blink+0x2c>)
10000402:	0018      	movs	r0, r3
10000404:	f000 fdc6 	bl	10000f94 <delayus>
10000408:	e7ee      	b.n	100003e8 <blink+0x4>
1000040a:	46c0      	nop			; (mov r8, r8)
1000040c:	d0000014 	.word	0xd0000014
10000410:	000493e0 	.word	0x000493e0
10000414:	d0000018 	.word	0xd0000018

10000418 <blink2>:
10000418:	b580      	push	{r7, lr}
1000041a:	b082      	sub	sp, #8
1000041c:	af00      	add	r7, sp, #0
1000041e:	2300      	movs	r3, #0
10000420:	607b      	str	r3, [r7, #4]
10000422:	4b08      	ldr	r3, [pc, #32]	; (10000444 <blink2+0x2c>)
10000424:	2280      	movs	r2, #128	; 0x80
10000426:	0492      	lsls	r2, r2, #18
10000428:	601a      	str	r2, [r3, #0]
1000042a:	4b07      	ldr	r3, [pc, #28]	; (10000448 <blink2+0x30>)
1000042c:	0018      	movs	r0, r3
1000042e:	f000 fdb1 	bl	10000f94 <delayus>
10000432:	4b06      	ldr	r3, [pc, #24]	; (1000044c <blink2+0x34>)
10000434:	2280      	movs	r2, #128	; 0x80
10000436:	0492      	lsls	r2, r2, #18
10000438:	601a      	str	r2, [r3, #0]
1000043a:	4b03      	ldr	r3, [pc, #12]	; (10000448 <blink2+0x30>)
1000043c:	0018      	movs	r0, r3
1000043e:	f000 fda9 	bl	10000f94 <delayus>
10000442:	e7ee      	b.n	10000422 <blink2+0xa>
10000444:	d0000014 	.word	0xd0000014
10000448:	00009088 	.word	0x00009088
1000044c:	d0000018 	.word	0xd0000018

10000450 <report>:
10000450:	b5f0      	push	{r4, r5, r6, r7, lr}
10000452:	b0a5      	sub	sp, #148	; 0x94
10000454:	af02      	add	r7, sp, #8
10000456:	f000 fa53 	bl	10000900 <getTimeUs>
1000045a:	0003      	movs	r3, r0
1000045c:	000c      	movs	r4, r1
1000045e:	2280      	movs	r2, #128	; 0x80
10000460:	18ba      	adds	r2, r7, r2
10000462:	6013      	str	r3, [r2, #0]
10000464:	6054      	str	r4, [r2, #4]
10000466:	2308      	movs	r3, #8
10000468:	18fb      	adds	r3, r7, r3
1000046a:	0018      	movs	r0, r3
1000046c:	2338      	movs	r3, #56	; 0x38
1000046e:	001a      	movs	r2, r3
10000470:	2100      	movs	r1, #0
10000472:	f006 fb0b 	bl	10006a8c <__wrap_memset>
10000476:	4bd5      	ldr	r3, [pc, #852]	; (100007cc <report+0x37c>)
10000478:	0018      	movs	r0, r3
1000047a:	f000 fd8b 	bl	10000f94 <delayus>
1000047e:	f000 fa3f 	bl	10000900 <getTimeUs>
10000482:	0003      	movs	r3, r0
10000484:	000c      	movs	r4, r1
10000486:	673b      	str	r3, [r7, #112]	; 0x70
10000488:	677c      	str	r4, [r7, #116]	; 0x74
1000048a:	6f39      	ldr	r1, [r7, #112]	; 0x70
1000048c:	6f7a      	ldr	r2, [r7, #116]	; 0x74
1000048e:	2380      	movs	r3, #128	; 0x80
10000490:	18fb      	adds	r3, r7, r3
10000492:	685c      	ldr	r4, [r3, #4]
10000494:	681b      	ldr	r3, [r3, #0]
10000496:	1ac9      	subs	r1, r1, r3
10000498:	41a2      	sbcs	r2, r4
1000049a:	000b      	movs	r3, r1
1000049c:	0014      	movs	r4, r2
1000049e:	66bb      	str	r3, [r7, #104]	; 0x68
100004a0:	66fc      	str	r4, [r7, #108]	; 0x6c
100004a2:	6f3b      	ldr	r3, [r7, #112]	; 0x70
100004a4:	6f7c      	ldr	r4, [r7, #116]	; 0x74
100004a6:	2280      	movs	r2, #128	; 0x80
100004a8:	18ba      	adds	r2, r7, r2
100004aa:	6013      	str	r3, [r2, #0]
100004ac:	6054      	str	r4, [r2, #4]
100004ae:	6f38      	ldr	r0, [r7, #112]	; 0x70
100004b0:	6f79      	ldr	r1, [r7, #116]	; 0x74
100004b2:	4ac6      	ldr	r2, [pc, #792]	; (100007cc <report+0x37c>)
100004b4:	2300      	movs	r3, #0
100004b6:	f005 fac7 	bl	10005a48 <__wrap___aeabi_uldivmod>
100004ba:	0003      	movs	r3, r0
100004bc:	000c      	movs	r4, r1
100004be:	49c4      	ldr	r1, [pc, #784]	; (100007d0 <report+0x380>)
100004c0:	001a      	movs	r2, r3
100004c2:	0023      	movs	r3, r4
100004c4:	0008      	movs	r0, r1
100004c6:	f006 fcfb 	bl	10006ec0 <__wrap_printf>
100004ca:	2377      	movs	r3, #119	; 0x77
100004cc:	2208      	movs	r2, #8
100004ce:	4694      	mov	ip, r2
100004d0:	44bc      	add	ip, r7
100004d2:	4463      	add	r3, ip
100004d4:	2200      	movs	r2, #0
100004d6:	701a      	strb	r2, [r3, #0]
100004d8:	e0ab      	b.n	10000632 <report+0x1e2>
100004da:	2377      	movs	r3, #119	; 0x77
100004dc:	2208      	movs	r2, #8
100004de:	4694      	mov	ip, r2
100004e0:	44bc      	add	ip, r7
100004e2:	4463      	add	r3, ip
100004e4:	781b      	ldrb	r3, [r3, #0]
100004e6:	4abb      	ldr	r2, [pc, #748]	; (100007d4 <report+0x384>)
100004e8:	015b      	lsls	r3, r3, #5
100004ea:	18d3      	adds	r3, r2, r3
100004ec:	3308      	adds	r3, #8
100004ee:	6819      	ldr	r1, [r3, #0]
100004f0:	685a      	ldr	r2, [r3, #4]
100004f2:	2377      	movs	r3, #119	; 0x77
100004f4:	2008      	movs	r0, #8
100004f6:	4684      	mov	ip, r0
100004f8:	44bc      	add	ip, r7
100004fa:	4463      	add	r3, ip
100004fc:	781b      	ldrb	r3, [r3, #0]
100004fe:	2008      	movs	r0, #8
10000500:	1838      	adds	r0, r7, r0
10000502:	00db      	lsls	r3, r3, #3
10000504:	18c3      	adds	r3, r0, r3
10000506:	685c      	ldr	r4, [r3, #4]
10000508:	681b      	ldr	r3, [r3, #0]
1000050a:	1ac9      	subs	r1, r1, r3
1000050c:	41a2      	sbcs	r2, r4
1000050e:	000b      	movs	r3, r1
10000510:	0014      	movs	r4, r2
10000512:	64bb      	str	r3, [r7, #72]	; 0x48
10000514:	64fc      	str	r4, [r7, #76]	; 0x4c
10000516:	2377      	movs	r3, #119	; 0x77
10000518:	2208      	movs	r2, #8
1000051a:	4694      	mov	ip, r2
1000051c:	44bc      	add	ip, r7
1000051e:	4463      	add	r3, ip
10000520:	781d      	ldrb	r5, [r3, #0]
10000522:	2377      	movs	r3, #119	; 0x77
10000524:	2208      	movs	r2, #8
10000526:	4694      	mov	ip, r2
10000528:	44bc      	add	ip, r7
1000052a:	4463      	add	r3, ip
1000052c:	781a      	ldrb	r2, [r3, #0]
1000052e:	49aa      	ldr	r1, [pc, #680]	; (100007d8 <report+0x388>)
10000530:	0013      	movs	r3, r2
10000532:	005b      	lsls	r3, r3, #1
10000534:	189b      	adds	r3, r3, r2
10000536:	00db      	lsls	r3, r3, #3
10000538:	18cb      	adds	r3, r1, r3
1000053a:	685c      	ldr	r4, [r3, #4]
1000053c:	681b      	ldr	r3, [r3, #0]
1000053e:	0018      	movs	r0, r3
10000540:	0021      	movs	r1, r4
10000542:	f005 fd4b 	bl	10005fdc <__wrap___aeabi_ul2d>
10000546:	2200      	movs	r2, #0
10000548:	4ba4      	ldr	r3, [pc, #656]	; (100007dc <report+0x38c>)
1000054a:	f005 fc97 	bl	10005e7c <__wrap___aeabi_dmul>
1000054e:	0003      	movs	r3, r0
10000550:	000c      	movs	r4, r1
10000552:	603b      	str	r3, [r7, #0]
10000554:	607c      	str	r4, [r7, #4]
10000556:	6f38      	ldr	r0, [r7, #112]	; 0x70
10000558:	6f79      	ldr	r1, [r7, #116]	; 0x74
1000055a:	f005 fd3f 	bl	10005fdc <__wrap___aeabi_ul2d>
1000055e:	0003      	movs	r3, r0
10000560:	000c      	movs	r4, r1
10000562:	001a      	movs	r2, r3
10000564:	0023      	movs	r3, r4
10000566:	6838      	ldr	r0, [r7, #0]
10000568:	6879      	ldr	r1, [r7, #4]
1000056a:	f005 fc7e 	bl	10005e6a <__wrap___aeabi_ddiv>
1000056e:	0003      	movs	r3, r0
10000570:	000c      	movs	r4, r1
10000572:	489b      	ldr	r0, [pc, #620]	; (100007e0 <report+0x390>)
10000574:	001a      	movs	r2, r3
10000576:	0023      	movs	r3, r4
10000578:	0029      	movs	r1, r5
1000057a:	f006 fca1 	bl	10006ec0 <__wrap_printf>
1000057e:	6cb8      	ldr	r0, [r7, #72]	; 0x48
10000580:	6cf9      	ldr	r1, [r7, #76]	; 0x4c
10000582:	f005 fd2b 	bl	10005fdc <__wrap___aeabi_ul2d>
10000586:	2200      	movs	r2, #0
10000588:	4b94      	ldr	r3, [pc, #592]	; (100007dc <report+0x38c>)
1000058a:	f005 fc77 	bl	10005e7c <__wrap___aeabi_dmul>
1000058e:	0003      	movs	r3, r0
10000590:	000c      	movs	r4, r1
10000592:	0025      	movs	r5, r4
10000594:	001c      	movs	r4, r3
10000596:	6eb8      	ldr	r0, [r7, #104]	; 0x68
10000598:	6ef9      	ldr	r1, [r7, #108]	; 0x6c
1000059a:	f005 fd1f 	bl	10005fdc <__wrap___aeabi_ul2d>
1000059e:	0002      	movs	r2, r0
100005a0:	000b      	movs	r3, r1
100005a2:	0020      	movs	r0, r4
100005a4:	0029      	movs	r1, r5
100005a6:	f005 fc60 	bl	10005e6a <__wrap___aeabi_ddiv>
100005aa:	0003      	movs	r3, r0
100005ac:	000c      	movs	r4, r1
100005ae:	0018      	movs	r0, r3
100005b0:	0021      	movs	r1, r4
100005b2:	f005 fd1f 	bl	10005ff4 <__wrap___aeabi_d2f>
100005b6:	1c03      	adds	r3, r0, #0
100005b8:	647b      	str	r3, [r7, #68]	; 0x44
100005ba:	6c79      	ldr	r1, [r7, #68]	; 0x44
100005bc:	4889      	ldr	r0, [pc, #548]	; (100007e4 <report+0x394>)
100005be:	f006 f91c 	bl	100067fa <__wrap___aeabi_fsub>
100005c2:	1c03      	adds	r3, r0, #0
100005c4:	1c18      	adds	r0, r3, #0
100005c6:	f006 f92f 	bl	10006828 <__wrap___aeabi_f2d>
100005ca:	0005      	movs	r5, r0
100005cc:	000e      	movs	r6, r1
100005ce:	6c78      	ldr	r0, [r7, #68]	; 0x44
100005d0:	f006 f92a 	bl	10006828 <__wrap___aeabi_f2d>
100005d4:	0003      	movs	r3, r0
100005d6:	000c      	movs	r4, r1
100005d8:	4983      	ldr	r1, [pc, #524]	; (100007e8 <report+0x398>)
100005da:	9300      	str	r3, [sp, #0]
100005dc:	9401      	str	r4, [sp, #4]
100005de:	002a      	movs	r2, r5
100005e0:	0033      	movs	r3, r6
100005e2:	0008      	movs	r0, r1
100005e4:	f006 fc6c 	bl	10006ec0 <__wrap_printf>
100005e8:	2377      	movs	r3, #119	; 0x77
100005ea:	2208      	movs	r2, #8
100005ec:	4694      	mov	ip, r2
100005ee:	44bc      	add	ip, r7
100005f0:	4463      	add	r3, ip
100005f2:	781a      	ldrb	r2, [r3, #0]
100005f4:	2377      	movs	r3, #119	; 0x77
100005f6:	2108      	movs	r1, #8
100005f8:	468c      	mov	ip, r1
100005fa:	44bc      	add	ip, r7
100005fc:	4463      	add	r3, ip
100005fe:	781b      	ldrb	r3, [r3, #0]
10000600:	4974      	ldr	r1, [pc, #464]	; (100007d4 <report+0x384>)
10000602:	015b      	lsls	r3, r3, #5
10000604:	18cb      	adds	r3, r1, r3
10000606:	3308      	adds	r3, #8
10000608:	685c      	ldr	r4, [r3, #4]
1000060a:	681b      	ldr	r3, [r3, #0]
1000060c:	2108      	movs	r1, #8
1000060e:	1879      	adds	r1, r7, r1
10000610:	00d2      	lsls	r2, r2, #3
10000612:	188a      	adds	r2, r1, r2
10000614:	6013      	str	r3, [r2, #0]
10000616:	6054      	str	r4, [r2, #4]
10000618:	2377      	movs	r3, #119	; 0x77
1000061a:	2208      	movs	r2, #8
1000061c:	4694      	mov	ip, r2
1000061e:	44bc      	add	ip, r7
10000620:	4463      	add	r3, ip
10000622:	781a      	ldrb	r2, [r3, #0]
10000624:	2377      	movs	r3, #119	; 0x77
10000626:	2108      	movs	r1, #8
10000628:	468c      	mov	ip, r1
1000062a:	44bc      	add	ip, r7
1000062c:	4463      	add	r3, ip
1000062e:	3201      	adds	r2, #1
10000630:	701a      	strb	r2, [r3, #0]
10000632:	2377      	movs	r3, #119	; 0x77
10000634:	2208      	movs	r2, #8
10000636:	4694      	mov	ip, r2
10000638:	44bc      	add	ip, r7
1000063a:	4463      	add	r3, ip
1000063c:	781b      	ldrb	r3, [r3, #0]
1000063e:	2b01      	cmp	r3, #1
10000640:	d800      	bhi.n	10000644 <report+0x1f4>
10000642:	e74a      	b.n	100004da <report+0x8a>
10000644:	4b69      	ldr	r3, [pc, #420]	; (100007ec <report+0x39c>)
10000646:	0018      	movs	r0, r3
10000648:	f006 fb3c 	bl	10006cc4 <__wrap_puts>
1000064c:	2376      	movs	r3, #118	; 0x76
1000064e:	2208      	movs	r2, #8
10000650:	4694      	mov	ip, r2
10000652:	44bc      	add	ip, r7
10000654:	4463      	add	r3, ip
10000656:	2202      	movs	r2, #2
10000658:	701a      	strb	r2, [r3, #0]
1000065a:	e0aa      	b.n	100007b2 <report+0x362>
1000065c:	2376      	movs	r3, #118	; 0x76
1000065e:	2208      	movs	r2, #8
10000660:	4694      	mov	ip, r2
10000662:	44bc      	add	ip, r7
10000664:	4463      	add	r3, ip
10000666:	781b      	ldrb	r3, [r3, #0]
10000668:	015a      	lsls	r2, r3, #5
1000066a:	4b5a      	ldr	r3, [pc, #360]	; (100007d4 <report+0x384>)
1000066c:	18d3      	adds	r3, r2, r3
1000066e:	667b      	str	r3, [r7, #100]	; 0x64
10000670:	2376      	movs	r3, #118	; 0x76
10000672:	2208      	movs	r2, #8
10000674:	4694      	mov	ip, r2
10000676:	44bc      	add	ip, r7
10000678:	4463      	add	r3, ip
1000067a:	781b      	ldrb	r3, [r3, #0]
1000067c:	1e99      	subs	r1, r3, #2
1000067e:	6e7b      	ldr	r3, [r7, #100]	; 0x64
10000680:	699a      	ldr	r2, [r3, #24]
10000682:	4b5b      	ldr	r3, [pc, #364]	; (100007f0 <report+0x3a0>)
10000684:	0018      	movs	r0, r3
10000686:	f006 fc1b 	bl	10006ec0 <__wrap_printf>
1000068a:	2376      	movs	r3, #118	; 0x76
1000068c:	2208      	movs	r2, #8
1000068e:	4694      	mov	ip, r2
10000690:	44bc      	add	ip, r7
10000692:	4463      	add	r3, ip
10000694:	781b      	ldrb	r3, [r3, #0]
10000696:	2b00      	cmp	r3, #0
10000698:	d022      	beq.n	100006e0 <report+0x290>
1000069a:	6e7b      	ldr	r3, [r7, #100]	; 0x64
1000069c:	795b      	ldrb	r3, [r3, #5]
1000069e:	b2db      	uxtb	r3, r3
100006a0:	2b01      	cmp	r3, #1
100006a2:	d012      	beq.n	100006ca <report+0x27a>
100006a4:	dc02      	bgt.n	100006ac <report+0x25c>
100006a6:	2b00      	cmp	r3, #0
100006a8:	d005      	beq.n	100006b6 <report+0x266>
100006aa:	e01d      	b.n	100006e8 <report+0x298>
100006ac:	2b02      	cmp	r3, #2
100006ae:	d011      	beq.n	100006d4 <report+0x284>
100006b0:	2b03      	cmp	r3, #3
100006b2:	d005      	beq.n	100006c0 <report+0x270>
100006b4:	e018      	b.n	100006e8 <report+0x298>
100006b6:	4b4f      	ldr	r3, [pc, #316]	; (100007f4 <report+0x3a4>)
100006b8:	0018      	movs	r0, r3
100006ba:	f006 fc01 	bl	10006ec0 <__wrap_printf>
100006be:	e013      	b.n	100006e8 <report+0x298>
100006c0:	4b4d      	ldr	r3, [pc, #308]	; (100007f8 <report+0x3a8>)
100006c2:	0018      	movs	r0, r3
100006c4:	f006 fbfc 	bl	10006ec0 <__wrap_printf>
100006c8:	e00e      	b.n	100006e8 <report+0x298>
100006ca:	4b4c      	ldr	r3, [pc, #304]	; (100007fc <report+0x3ac>)
100006cc:	0018      	movs	r0, r3
100006ce:	f006 fbf7 	bl	10006ec0 <__wrap_printf>
100006d2:	e009      	b.n	100006e8 <report+0x298>
100006d4:	4b4a      	ldr	r3, [pc, #296]	; (10000800 <report+0x3b0>)
100006d6:	0018      	movs	r0, r3
100006d8:	f006 fbf2 	bl	10006ec0 <__wrap_printf>
100006dc:	46c0      	nop			; (mov r8, r8)
100006de:	e003      	b.n	100006e8 <report+0x298>
100006e0:	4b48      	ldr	r3, [pc, #288]	; (10000804 <report+0x3b4>)
100006e2:	0018      	movs	r0, r3
100006e4:	f006 fbec 	bl	10006ec0 <__wrap_printf>
100006e8:	6e7b      	ldr	r3, [r7, #100]	; 0x64
100006ea:	6899      	ldr	r1, [r3, #8]
100006ec:	68da      	ldr	r2, [r3, #12]
100006ee:	2376      	movs	r3, #118	; 0x76
100006f0:	2008      	movs	r0, #8
100006f2:	4684      	mov	ip, r0
100006f4:	44bc      	add	ip, r7
100006f6:	4463      	add	r3, ip
100006f8:	781b      	ldrb	r3, [r3, #0]
100006fa:	2008      	movs	r0, #8
100006fc:	1838      	adds	r0, r7, r0
100006fe:	00db      	lsls	r3, r3, #3
10000700:	18c3      	adds	r3, r0, r3
10000702:	685c      	ldr	r4, [r3, #4]
10000704:	681b      	ldr	r3, [r3, #0]
10000706:	1ac9      	subs	r1, r1, r3
10000708:	41a2      	sbcs	r2, r4
1000070a:	000b      	movs	r3, r1
1000070c:	0014      	movs	r4, r2
1000070e:	65bb      	str	r3, [r7, #88]	; 0x58
10000710:	65fc      	str	r4, [r7, #92]	; 0x5c
10000712:	2376      	movs	r3, #118	; 0x76
10000714:	2208      	movs	r2, #8
10000716:	4694      	mov	ip, r2
10000718:	44bc      	add	ip, r7
1000071a:	4463      	add	r3, ip
1000071c:	781a      	ldrb	r2, [r3, #0]
1000071e:	6e7b      	ldr	r3, [r7, #100]	; 0x64
10000720:	68dc      	ldr	r4, [r3, #12]
10000722:	689b      	ldr	r3, [r3, #8]
10000724:	2108      	movs	r1, #8
10000726:	1879      	adds	r1, r7, r1
10000728:	00d2      	lsls	r2, r2, #3
1000072a:	188a      	adds	r2, r1, r2
1000072c:	6013      	str	r3, [r2, #0]
1000072e:	6054      	str	r4, [r2, #4]
10000730:	6e7b      	ldr	r3, [r7, #100]	; 0x64
10000732:	7f9b      	ldrb	r3, [r3, #30]
10000734:	b2da      	uxtb	r2, r3
10000736:	234f      	movs	r3, #79	; 0x4f
10000738:	2108      	movs	r1, #8
1000073a:	468c      	mov	ip, r1
1000073c:	44bc      	add	ip, r7
1000073e:	4463      	add	r3, ip
10000740:	3230      	adds	r2, #48	; 0x30
10000742:	701a      	strb	r2, [r3, #0]
10000744:	6e7b      	ldr	r3, [r7, #100]	; 0x64
10000746:	7f1b      	ldrb	r3, [r3, #28]
10000748:	001e      	movs	r6, r3
1000074a:	6db8      	ldr	r0, [r7, #88]	; 0x58
1000074c:	6df9      	ldr	r1, [r7, #92]	; 0x5c
1000074e:	f005 fc45 	bl	10005fdc <__wrap___aeabi_ul2d>
10000752:	2200      	movs	r2, #0
10000754:	4b21      	ldr	r3, [pc, #132]	; (100007dc <report+0x38c>)
10000756:	f005 fb91 	bl	10005e7c <__wrap___aeabi_dmul>
1000075a:	0003      	movs	r3, r0
1000075c:	000c      	movs	r4, r1
1000075e:	0025      	movs	r5, r4
10000760:	001c      	movs	r4, r3
10000762:	6eb8      	ldr	r0, [r7, #104]	; 0x68
10000764:	6ef9      	ldr	r1, [r7, #108]	; 0x6c
10000766:	f005 fc39 	bl	10005fdc <__wrap___aeabi_ul2d>
1000076a:	0002      	movs	r2, r0
1000076c:	000b      	movs	r3, r1
1000076e:	0020      	movs	r0, r4
10000770:	0029      	movs	r1, r5
10000772:	f005 fb7a 	bl	10005e6a <__wrap___aeabi_ddiv>
10000776:	0003      	movs	r3, r0
10000778:	000c      	movs	r4, r1
1000077a:	0019      	movs	r1, r3
1000077c:	0022      	movs	r2, r4
1000077e:	234f      	movs	r3, #79	; 0x4f
10000780:	2008      	movs	r0, #8
10000782:	4684      	mov	ip, r0
10000784:	44bc      	add	ip, r7
10000786:	4463      	add	r3, ip
10000788:	781b      	ldrb	r3, [r3, #0]
1000078a:	481f      	ldr	r0, [pc, #124]	; (10000808 <report+0x3b8>)
1000078c:	9300      	str	r3, [sp, #0]
1000078e:	0013      	movs	r3, r2
10000790:	000a      	movs	r2, r1
10000792:	0031      	movs	r1, r6
10000794:	f006 fb94 	bl	10006ec0 <__wrap_printf>
10000798:	2376      	movs	r3, #118	; 0x76
1000079a:	2208      	movs	r2, #8
1000079c:	4694      	mov	ip, r2
1000079e:	44bc      	add	ip, r7
100007a0:	4463      	add	r3, ip
100007a2:	781a      	ldrb	r2, [r3, #0]
100007a4:	2376      	movs	r3, #118	; 0x76
100007a6:	2108      	movs	r1, #8
100007a8:	468c      	mov	ip, r1
100007aa:	44bc      	add	ip, r7
100007ac:	4463      	add	r3, ip
100007ae:	3201      	adds	r2, #1
100007b0:	701a      	strb	r2, [r3, #0]
100007b2:	4b16      	ldr	r3, [pc, #88]	; (1000080c <report+0x3bc>)
100007b4:	781b      	ldrb	r3, [r3, #0]
100007b6:	2276      	movs	r2, #118	; 0x76
100007b8:	2108      	movs	r1, #8
100007ba:	468c      	mov	ip, r1
100007bc:	44bc      	add	ip, r7
100007be:	4462      	add	r2, ip
100007c0:	7812      	ldrb	r2, [r2, #0]
100007c2:	429a      	cmp	r2, r3
100007c4:	d200      	bcs.n	100007c8 <report+0x378>
100007c6:	e749      	b.n	1000065c <report+0x20c>
100007c8:	e655      	b.n	10000476 <report+0x26>
100007ca:	46c0      	nop			; (mov r8, r8)
100007cc:	000f4240 	.word	0x000f4240
100007d0:	10007d90 	.word	0x10007d90
100007d4:	20001948 	.word	0x20001948
100007d8:	20001a30 	.word	0x20001a30
100007dc:	40590000 	.word	0x40590000
100007e0:	10007da4 	.word	0x10007da4
100007e4:	42c80000 	.word	0x42c80000
100007e8:	10007db8 	.word	0x10007db8
100007ec:	10007dd4 	.word	0x10007dd4
100007f0:	10007dfc 	.word	0x10007dfc
100007f4:	10007e08 	.word	0x10007e08
100007f8:	10007e0c 	.word	0x10007e0c
100007fc:	10007e10 	.word	0x10007e10
10000800:	10007e14 	.word	0x10007e14
10000804:	10007e18 	.word	0x10007e18
10000808:	10007e1c 	.word	0x10007e1c
1000080c:	20000278 	.word	0x20000278

10000810 <spinner>:
10000810:	b580      	push	{r7, lr}
10000812:	b082      	sub	sp, #8
10000814:	af00      	add	r7, sp, #0
10000816:	1dbb      	adds	r3, r7, #6
10000818:	2200      	movs	r2, #0
1000081a:	801a      	strh	r2, [r3, #0]
1000081c:	e004      	b.n	10000828 <spinner+0x18>
1000081e:	1dbb      	adds	r3, r7, #6
10000820:	881a      	ldrh	r2, [r3, #0]
10000822:	1dbb      	adds	r3, r7, #6
10000824:	3201      	adds	r2, #1
10000826:	801a      	strh	r2, [r3, #0]
10000828:	1dbb      	adds	r3, r7, #6
1000082a:	881b      	ldrh	r3, [r3, #0]
1000082c:	4a02      	ldr	r2, [pc, #8]	; (10000838 <spinner+0x28>)
1000082e:	4293      	cmp	r3, r2
10000830:	d9f5      	bls.n	1000081e <spinner+0xe>
10000832:	f000 fb2f 	bl	10000e94 <yield>
10000836:	e7ee      	b.n	10000816 <spinner+0x6>
10000838:	000061a7 	.word	0x000061a7

1000083c <main>:
1000083c:	b590      	push	{r4, r7, lr}
1000083e:	b083      	sub	sp, #12
10000840:	af02      	add	r7, sp, #8
10000842:	f006 fb54 	bl	10006eee <stdio_init_all>
10000846:	2019      	movs	r0, #25
10000848:	f000 fc80 	bl	1000114c <gpio_init>
1000084c:	2101      	movs	r1, #1
1000084e:	2019      	movs	r0, #25
10000850:	f7ff fdaa 	bl	100003a8 <gpio_set_dir>
10000854:	2010      	movs	r0, #16
10000856:	f000 fc79 	bl	1000114c <gpio_init>
1000085a:	2101      	movs	r1, #1
1000085c:	2010      	movs	r0, #16
1000085e:	f7ff fda3 	bl	100003a8 <gpio_set_dir>
10000862:	200e      	movs	r0, #14
10000864:	f000 fc72 	bl	1000114c <gpio_init>
10000868:	2101      	movs	r1, #1
1000086a:	200e      	movs	r0, #14
1000086c:	f7ff fd9c 	bl	100003a8 <gpio_set_dir>
10000870:	200f      	movs	r0, #15
10000872:	f000 fc6b 	bl	1000114c <gpio_init>
10000876:	2101      	movs	r1, #1
10000878:	200f      	movs	r0, #15
1000087a:	f7ff fd95 	bl	100003a8 <gpio_set_dir>
1000087e:	4a14      	ldr	r2, [pc, #80]	; (100008d0 <main+0x94>)
10000880:	4914      	ldr	r1, [pc, #80]	; (100008d4 <main+0x98>)
10000882:	4815      	ldr	r0, [pc, #84]	; (100008d8 <main+0x9c>)
10000884:	2364      	movs	r3, #100	; 0x64
10000886:	9300      	str	r3, [sp, #0]
10000888:	2380      	movs	r3, #128	; 0x80
1000088a:	f000 fb23 	bl	10000ed4 <addThread>
1000088e:	4a13      	ldr	r2, [pc, #76]	; (100008dc <main+0xa0>)
10000890:	4913      	ldr	r1, [pc, #76]	; (100008e0 <main+0xa4>)
10000892:	4814      	ldr	r0, [pc, #80]	; (100008e4 <main+0xa8>)
10000894:	2364      	movs	r3, #100	; 0x64
10000896:	9300      	str	r3, [sp, #0]
10000898:	2380      	movs	r3, #128	; 0x80
1000089a:	f000 fb1b 	bl	10000ed4 <addThread>
1000089e:	2380      	movs	r3, #128	; 0x80
100008a0:	005c      	lsls	r4, r3, #1
100008a2:	4a11      	ldr	r2, [pc, #68]	; (100008e8 <main+0xac>)
100008a4:	4911      	ldr	r1, [pc, #68]	; (100008ec <main+0xb0>)
100008a6:	4812      	ldr	r0, [pc, #72]	; (100008f0 <main+0xb4>)
100008a8:	23ff      	movs	r3, #255	; 0xff
100008aa:	9300      	str	r3, [sp, #0]
100008ac:	0023      	movs	r3, r4
100008ae:	f000 fb11 	bl	10000ed4 <addThread>
100008b2:	4a10      	ldr	r2, [pc, #64]	; (100008f4 <main+0xb8>)
100008b4:	4910      	ldr	r1, [pc, #64]	; (100008f8 <main+0xbc>)
100008b6:	4811      	ldr	r0, [pc, #68]	; (100008fc <main+0xc0>)
100008b8:	2396      	movs	r3, #150	; 0x96
100008ba:	9300      	str	r3, [sp, #0]
100008bc:	2380      	movs	r3, #128	; 0x80
100008be:	f000 fb09 	bl	10000ed4 <addThread>
100008c2:	f000 fa83 	bl	10000dcc <setupSched>
100008c6:	2300      	movs	r3, #0
100008c8:	0018      	movs	r0, r3
100008ca:	46bd      	mov	sp, r7
100008cc:	b001      	add	sp, #4
100008ce:	bd90      	pop	{r4, r7, pc}
100008d0:	20000dc8 	.word	0x20000dc8
100008d4:	100003e5 	.word	0x100003e5
100008d8:	10007e30 	.word	0x10007e30
100008dc:	20000bc8 	.word	0x20000bc8
100008e0:	10000419 	.word	0x10000419
100008e4:	10007e38 	.word	0x10007e38
100008e8:	20001330 	.word	0x20001330
100008ec:	10000451 	.word	0x10000451
100008f0:	10007e44 	.word	0x10007e44
100008f4:	20001730 	.word	0x20001730
100008f8:	10000811 	.word	0x10000811
100008fc:	10007e4c 	.word	0x10007e4c

10000900 <getTimeUs>:
10000900:	b590      	push	{r4, r7, lr}
10000902:	b083      	sub	sp, #12
10000904:	af00      	add	r7, sp, #0
10000906:	4a0c      	ldr	r2, [pc, #48]	; (10000938 <getTimeUs+0x38>)
10000908:	6812      	ldr	r2, [r2, #0]
1000090a:	603a      	str	r2, [r7, #0]
1000090c:	2200      	movs	r2, #0
1000090e:	607a      	str	r2, [r7, #4]
10000910:	4a0a      	ldr	r2, [pc, #40]	; (1000093c <getTimeUs+0x3c>)
10000912:	6812      	ldr	r2, [r2, #0]
10000914:	0412      	lsls	r2, r2, #16
10000916:	0013      	movs	r3, r2
10000918:	2200      	movs	r2, #0
1000091a:	0014      	movs	r4, r2
1000091c:	683a      	ldr	r2, [r7, #0]
1000091e:	431a      	orrs	r2, r3
10000920:	603a      	str	r2, [r7, #0]
10000922:	687a      	ldr	r2, [r7, #4]
10000924:	4322      	orrs	r2, r4
10000926:	0013      	movs	r3, r2
10000928:	607b      	str	r3, [r7, #4]
1000092a:	683b      	ldr	r3, [r7, #0]
1000092c:	687c      	ldr	r4, [r7, #4]
1000092e:	0018      	movs	r0, r3
10000930:	0021      	movs	r1, r4
10000932:	46bd      	mov	sp, r7
10000934:	b003      	add	sp, #12
10000936:	bd90      	pop	{r4, r7, pc}
10000938:	4005400c 	.word	0x4005400c
1000093c:	40054008 	.word	0x40054008

10000940 <contextLock>:
10000940:	b580      	push	{r7, lr}
10000942:	af00      	add	r7, sp, #0
10000944:	46c0      	nop			; (mov r8, r8)
10000946:	4b03      	ldr	r3, [pc, #12]	; (10000954 <contextLock+0x14>)
10000948:	681b      	ldr	r3, [r3, #0]
1000094a:	2b00      	cmp	r3, #0
1000094c:	d0fb      	beq.n	10000946 <contextLock+0x6>
1000094e:	46c0      	nop			; (mov r8, r8)
10000950:	46bd      	mov	sp, r7
10000952:	bd80      	pop	{r7, pc}
10000954:	d0000100 	.word	0xd0000100

10000958 <contextUnlock>:
10000958:	b580      	push	{r7, lr}
1000095a:	af00      	add	r7, sp, #0
1000095c:	4b02      	ldr	r3, [pc, #8]	; (10000968 <contextUnlock+0x10>)
1000095e:	2200      	movs	r2, #0
10000960:	601a      	str	r2, [r3, #0]
10000962:	46c0      	nop			; (mov r8, r8)
10000964:	46bd      	mov	sp, r7
10000966:	bd80      	pop	{r7, pc}
10000968:	d0000100 	.word	0xd0000100

1000096c <isr_systick>:
1000096c:	b580      	push	{r7, lr}
1000096e:	af00      	add	r7, sp, #0
10000970:	4b03      	ldr	r3, [pc, #12]	; (10000980 <isr_systick+0x14>)
10000972:	2280      	movs	r2, #128	; 0x80
10000974:	0552      	lsls	r2, r2, #21
10000976:	601a      	str	r2, [r3, #0]
10000978:	46c0      	nop			; (mov r8, r8)
1000097a:	46bd      	mov	sp, r7
1000097c:	bd80      	pop	{r7, pc}
1000097e:	46c0      	nop			; (mov r8, r8)
10000980:	e000ed04 	.word	0xe000ed04

10000984 <contextSwitch>:
10000984:	b5f0      	push	{r4, r5, r6, r7, lr}
10000986:	b08d      	sub	sp, #52	; 0x34
10000988:	af00      	add	r7, sp, #0
1000098a:	f7ff ffb9 	bl	10000900 <getTimeUs>
1000098e:	0003      	movs	r3, r0
10000990:	000c      	movs	r4, r1
10000992:	623b      	str	r3, [r7, #32]
10000994:	627c      	str	r4, [r7, #36]	; 0x24
10000996:	23d0      	movs	r3, #208	; 0xd0
10000998:	061b      	lsls	r3, r3, #24
1000099a:	681a      	ldr	r2, [r3, #0]
1000099c:	2317      	movs	r3, #23
1000099e:	2108      	movs	r1, #8
100009a0:	468c      	mov	ip, r1
100009a2:	44bc      	add	ip, r7
100009a4:	4463      	add	r3, ip
100009a6:	701a      	strb	r2, [r3, #0]
100009a8:	2317      	movs	r3, #23
100009aa:	2208      	movs	r2, #8
100009ac:	4694      	mov	ip, r2
100009ae:	44bc      	add	ip, r7
100009b0:	4463      	add	r3, ip
100009b2:	781a      	ldrb	r2, [r3, #0]
100009b4:	0013      	movs	r3, r2
100009b6:	005b      	lsls	r3, r3, #1
100009b8:	189b      	adds	r3, r3, r2
100009ba:	00db      	lsls	r3, r3, #3
100009bc:	4ab2      	ldr	r2, [pc, #712]	; (10000c88 <contextSwitch+0x304>)
100009be:	189b      	adds	r3, r3, r2
100009c0:	61bb      	str	r3, [r7, #24]
100009c2:	2317      	movs	r3, #23
100009c4:	2208      	movs	r2, #8
100009c6:	4694      	mov	ip, r2
100009c8:	44bc      	add	ip, r7
100009ca:	4463      	add	r3, ip
100009cc:	781a      	ldrb	r2, [r3, #0]
100009ce:	4baf      	ldr	r3, [pc, #700]	; (10000c8c <contextSwitch+0x308>)
100009d0:	0092      	lsls	r2, r2, #2
100009d2:	58d3      	ldr	r3, [r2, r3]
100009d4:	62fb      	str	r3, [r7, #44]	; 0x2c
100009d6:	6a3a      	ldr	r2, [r7, #32]
100009d8:	69bb      	ldr	r3, [r7, #24]
100009da:	68dc      	ldr	r4, [r3, #12]
100009dc:	689b      	ldr	r3, [r3, #8]
100009de:	1ad3      	subs	r3, r2, r3
100009e0:	617b      	str	r3, [r7, #20]
100009e2:	69bb      	ldr	r3, [r7, #24]
100009e4:	691b      	ldr	r3, [r3, #16]
100009e6:	1c5a      	adds	r2, r3, #1
100009e8:	69bb      	ldr	r3, [r7, #24]
100009ea:	611a      	str	r2, [r3, #16]
100009ec:	6afb      	ldr	r3, [r7, #44]	; 0x2c
100009ee:	68dc      	ldr	r4, [r3, #12]
100009f0:	689b      	ldr	r3, [r3, #8]
100009f2:	697a      	ldr	r2, [r7, #20]
100009f4:	603a      	str	r2, [r7, #0]
100009f6:	2200      	movs	r2, #0
100009f8:	607a      	str	r2, [r7, #4]
100009fa:	6839      	ldr	r1, [r7, #0]
100009fc:	687a      	ldr	r2, [r7, #4]
100009fe:	185b      	adds	r3, r3, r1
10000a00:	4154      	adcs	r4, r2
10000a02:	6afa      	ldr	r2, [r7, #44]	; 0x2c
10000a04:	6093      	str	r3, [r2, #8]
10000a06:	60d4      	str	r4, [r2, #12]
10000a08:	6afb      	ldr	r3, [r7, #44]	; 0x2c
10000a0a:	2217      	movs	r2, #23
10000a0c:	2108      	movs	r1, #8
10000a0e:	468c      	mov	ip, r1
10000a10:	44bc      	add	ip, r7
10000a12:	4462      	add	r2, ip
10000a14:	7812      	ldrb	r2, [r2, #0]
10000a16:	779a      	strb	r2, [r3, #30]
10000a18:	6afb      	ldr	r3, [r7, #44]	; 0x2c
10000a1a:	22ff      	movs	r2, #255	; 0xff
10000a1c:	775a      	strb	r2, [r3, #29]
10000a1e:	6afb      	ldr	r3, [r7, #44]	; 0x2c
10000a20:	2200      	movs	r2, #0
10000a22:	77da      	strb	r2, [r3, #31]
10000a24:	f7ff ff8c 	bl	10000940 <contextLock>
10000a28:	2323      	movs	r3, #35	; 0x23
10000a2a:	2208      	movs	r2, #8
10000a2c:	4694      	mov	ip, r2
10000a2e:	44bc      	add	ip, r7
10000a30:	4463      	add	r3, ip
10000a32:	22ff      	movs	r2, #255	; 0xff
10000a34:	701a      	strb	r2, [r3, #0]
10000a36:	2322      	movs	r3, #34	; 0x22
10000a38:	2208      	movs	r2, #8
10000a3a:	4694      	mov	ip, r2
10000a3c:	44bc      	add	ip, r7
10000a3e:	4463      	add	r3, ip
10000a40:	2202      	movs	r2, #2
10000a42:	701a      	strb	r2, [r3, #0]
10000a44:	e055      	b.n	10000af2 <contextSwitch+0x16e>
10000a46:	2322      	movs	r3, #34	; 0x22
10000a48:	2208      	movs	r2, #8
10000a4a:	4694      	mov	ip, r2
10000a4c:	44bc      	add	ip, r7
10000a4e:	4463      	add	r3, ip
10000a50:	781b      	ldrb	r3, [r3, #0]
10000a52:	015a      	lsls	r2, r3, #5
10000a54:	4b8e      	ldr	r3, [pc, #568]	; (10000c90 <contextSwitch+0x30c>)
10000a56:	18d3      	adds	r3, r2, r3
10000a58:	613b      	str	r3, [r7, #16]
10000a5a:	693b      	ldr	r3, [r7, #16]
10000a5c:	7f5b      	ldrb	r3, [r3, #29]
10000a5e:	b2db      	uxtb	r3, r3
10000a60:	2bff      	cmp	r3, #255	; 0xff
10000a62:	d00a      	beq.n	10000a7a <contextSwitch+0xf6>
10000a64:	693b      	ldr	r3, [r7, #16]
10000a66:	7f5b      	ldrb	r3, [r3, #29]
10000a68:	b2db      	uxtb	r3, r3
10000a6a:	2217      	movs	r2, #23
10000a6c:	2108      	movs	r1, #8
10000a6e:	468c      	mov	ip, r1
10000a70:	44bc      	add	ip, r7
10000a72:	4462      	add	r2, ip
10000a74:	7812      	ldrb	r2, [r2, #0]
10000a76:	429a      	cmp	r2, r3
10000a78:	d12b      	bne.n	10000ad2 <contextSwitch+0x14e>
10000a7a:	693b      	ldr	r3, [r7, #16]
10000a7c:	795b      	ldrb	r3, [r3, #5]
10000a7e:	b2db      	uxtb	r3, r3
10000a80:	2b02      	cmp	r3, #2
10000a82:	d10e      	bne.n	10000aa2 <contextSwitch+0x11e>
10000a84:	693b      	ldr	r3, [r7, #16]
10000a86:	695c      	ldr	r4, [r3, #20]
10000a88:	691b      	ldr	r3, [r3, #16]
10000a8a:	6a7a      	ldr	r2, [r7, #36]	; 0x24
10000a8c:	42a2      	cmp	r2, r4
10000a8e:	d308      	bcc.n	10000aa2 <contextSwitch+0x11e>
10000a90:	6a7a      	ldr	r2, [r7, #36]	; 0x24
10000a92:	42a2      	cmp	r2, r4
10000a94:	d102      	bne.n	10000a9c <contextSwitch+0x118>
10000a96:	6a3a      	ldr	r2, [r7, #32]
10000a98:	429a      	cmp	r2, r3
10000a9a:	d302      	bcc.n	10000aa2 <contextSwitch+0x11e>
10000a9c:	693b      	ldr	r3, [r7, #16]
10000a9e:	2201      	movs	r2, #1
10000aa0:	715a      	strb	r2, [r3, #5]
10000aa2:	693b      	ldr	r3, [r7, #16]
10000aa4:	795b      	ldrb	r3, [r3, #5]
10000aa6:	b2db      	uxtb	r3, r3
10000aa8:	2b01      	cmp	r3, #1
10000aaa:	d114      	bne.n	10000ad6 <contextSwitch+0x152>
10000aac:	693b      	ldr	r3, [r7, #16]
10000aae:	7f1b      	ldrb	r3, [r3, #28]
10000ab0:	2223      	movs	r2, #35	; 0x23
10000ab2:	2108      	movs	r1, #8
10000ab4:	468c      	mov	ip, r1
10000ab6:	44bc      	add	ip, r7
10000ab8:	4462      	add	r2, ip
10000aba:	7812      	ldrb	r2, [r2, #0]
10000abc:	429a      	cmp	r2, r3
10000abe:	d90b      	bls.n	10000ad8 <contextSwitch+0x154>
10000ac0:	2323      	movs	r3, #35	; 0x23
10000ac2:	2208      	movs	r2, #8
10000ac4:	4694      	mov	ip, r2
10000ac6:	44bc      	add	ip, r7
10000ac8:	4463      	add	r3, ip
10000aca:	693a      	ldr	r2, [r7, #16]
10000acc:	7f12      	ldrb	r2, [r2, #28]
10000ace:	701a      	strb	r2, [r3, #0]
10000ad0:	e002      	b.n	10000ad8 <contextSwitch+0x154>
10000ad2:	46c0      	nop			; (mov r8, r8)
10000ad4:	e000      	b.n	10000ad8 <contextSwitch+0x154>
10000ad6:	46c0      	nop			; (mov r8, r8)
10000ad8:	2322      	movs	r3, #34	; 0x22
10000ada:	2208      	movs	r2, #8
10000adc:	4694      	mov	ip, r2
10000ade:	44bc      	add	ip, r7
10000ae0:	4463      	add	r3, ip
10000ae2:	781a      	ldrb	r2, [r3, #0]
10000ae4:	2322      	movs	r3, #34	; 0x22
10000ae6:	2108      	movs	r1, #8
10000ae8:	468c      	mov	ip, r1
10000aea:	44bc      	add	ip, r7
10000aec:	4463      	add	r3, ip
10000aee:	3201      	adds	r2, #1
10000af0:	701a      	strb	r2, [r3, #0]
10000af2:	4b68      	ldr	r3, [pc, #416]	; (10000c94 <contextSwitch+0x310>)
10000af4:	781b      	ldrb	r3, [r3, #0]
10000af6:	2222      	movs	r2, #34	; 0x22
10000af8:	2108      	movs	r1, #8
10000afa:	468c      	mov	ip, r1
10000afc:	44bc      	add	ip, r7
10000afe:	4462      	add	r2, ip
10000b00:	7812      	ldrb	r2, [r2, #0]
10000b02:	429a      	cmp	r2, r3
10000b04:	d39f      	bcc.n	10000a46 <contextSwitch+0xc2>
10000b06:	4b64      	ldr	r3, [pc, #400]	; (10000c98 <contextSwitch+0x314>)
10000b08:	781b      	ldrb	r3, [r3, #0]
10000b0a:	b2db      	uxtb	r3, r3
10000b0c:	2b01      	cmp	r3, #1
10000b0e:	d802      	bhi.n	10000b16 <contextSwitch+0x192>
10000b10:	4b61      	ldr	r3, [pc, #388]	; (10000c98 <contextSwitch+0x314>)
10000b12:	2201      	movs	r2, #1
10000b14:	701a      	strb	r2, [r3, #0]
10000b16:	2321      	movs	r3, #33	; 0x21
10000b18:	2208      	movs	r2, #8
10000b1a:	4694      	mov	ip, r2
10000b1c:	44bc      	add	ip, r7
10000b1e:	4463      	add	r3, ip
10000b20:	2202      	movs	r2, #2
10000b22:	701a      	strb	r2, [r3, #0]
10000b24:	e047      	b.n	10000bb6 <contextSwitch+0x232>
10000b26:	4b5c      	ldr	r3, [pc, #368]	; (10000c98 <contextSwitch+0x314>)
10000b28:	781b      	ldrb	r3, [r3, #0]
10000b2a:	b2db      	uxtb	r3, r3
10000b2c:	3301      	adds	r3, #1
10000b2e:	b2da      	uxtb	r2, r3
10000b30:	4b59      	ldr	r3, [pc, #356]	; (10000c98 <contextSwitch+0x314>)
10000b32:	701a      	strb	r2, [r3, #0]
10000b34:	4b58      	ldr	r3, [pc, #352]	; (10000c98 <contextSwitch+0x314>)
10000b36:	781b      	ldrb	r3, [r3, #0]
10000b38:	b2da      	uxtb	r2, r3
10000b3a:	4b56      	ldr	r3, [pc, #344]	; (10000c94 <contextSwitch+0x310>)
10000b3c:	781b      	ldrb	r3, [r3, #0]
10000b3e:	429a      	cmp	r2, r3
10000b40:	d302      	bcc.n	10000b48 <contextSwitch+0x1c4>
10000b42:	4b55      	ldr	r3, [pc, #340]	; (10000c98 <contextSwitch+0x314>)
10000b44:	2202      	movs	r2, #2
10000b46:	701a      	strb	r2, [r3, #0]
10000b48:	4b53      	ldr	r3, [pc, #332]	; (10000c98 <contextSwitch+0x314>)
10000b4a:	781b      	ldrb	r3, [r3, #0]
10000b4c:	b2db      	uxtb	r3, r3
10000b4e:	015a      	lsls	r2, r3, #5
10000b50:	4b4f      	ldr	r3, [pc, #316]	; (10000c90 <contextSwitch+0x30c>)
10000b52:	18d3      	adds	r3, r2, r3
10000b54:	60fb      	str	r3, [r7, #12]
10000b56:	68fb      	ldr	r3, [r7, #12]
10000b58:	7f5b      	ldrb	r3, [r3, #29]
10000b5a:	b2db      	uxtb	r3, r3
10000b5c:	2bff      	cmp	r3, #255	; 0xff
10000b5e:	d00a      	beq.n	10000b76 <contextSwitch+0x1f2>
10000b60:	68fb      	ldr	r3, [r7, #12]
10000b62:	7f5b      	ldrb	r3, [r3, #29]
10000b64:	b2db      	uxtb	r3, r3
10000b66:	2217      	movs	r2, #23
10000b68:	2108      	movs	r1, #8
10000b6a:	468c      	mov	ip, r1
10000b6c:	44bc      	add	ip, r7
10000b6e:	4462      	add	r2, ip
10000b70:	7812      	ldrb	r2, [r2, #0]
10000b72:	429a      	cmp	r2, r3
10000b74:	d10f      	bne.n	10000b96 <contextSwitch+0x212>
10000b76:	68fb      	ldr	r3, [r7, #12]
10000b78:	795b      	ldrb	r3, [r3, #5]
10000b7a:	b2db      	uxtb	r3, r3
10000b7c:	2b01      	cmp	r3, #1
10000b7e:	d10c      	bne.n	10000b9a <contextSwitch+0x216>
10000b80:	68fb      	ldr	r3, [r7, #12]
10000b82:	7f1b      	ldrb	r3, [r3, #28]
10000b84:	2223      	movs	r2, #35	; 0x23
10000b86:	2108      	movs	r1, #8
10000b88:	468c      	mov	ip, r1
10000b8a:	44bc      	add	ip, r7
10000b8c:	4462      	add	r2, ip
10000b8e:	7812      	ldrb	r2, [r2, #0]
10000b90:	429a      	cmp	r2, r3
10000b92:	d01b      	beq.n	10000bcc <contextSwitch+0x248>
10000b94:	e002      	b.n	10000b9c <contextSwitch+0x218>
10000b96:	46c0      	nop			; (mov r8, r8)
10000b98:	e000      	b.n	10000b9c <contextSwitch+0x218>
10000b9a:	46c0      	nop			; (mov r8, r8)
10000b9c:	2321      	movs	r3, #33	; 0x21
10000b9e:	2208      	movs	r2, #8
10000ba0:	4694      	mov	ip, r2
10000ba2:	44bc      	add	ip, r7
10000ba4:	4463      	add	r3, ip
10000ba6:	781a      	ldrb	r2, [r3, #0]
10000ba8:	2321      	movs	r3, #33	; 0x21
10000baa:	2108      	movs	r1, #8
10000bac:	468c      	mov	ip, r1
10000bae:	44bc      	add	ip, r7
10000bb0:	4463      	add	r3, ip
10000bb2:	3201      	adds	r2, #1
10000bb4:	701a      	strb	r2, [r3, #0]
10000bb6:	4b37      	ldr	r3, [pc, #220]	; (10000c94 <contextSwitch+0x310>)
10000bb8:	781b      	ldrb	r3, [r3, #0]
10000bba:	2221      	movs	r2, #33	; 0x21
10000bbc:	2108      	movs	r1, #8
10000bbe:	468c      	mov	ip, r1
10000bc0:	44bc      	add	ip, r7
10000bc2:	4462      	add	r2, ip
10000bc4:	7812      	ldrb	r2, [r2, #0]
10000bc6:	429a      	cmp	r2, r3
10000bc8:	d3ad      	bcc.n	10000b26 <contextSwitch+0x1a2>
10000bca:	e000      	b.n	10000bce <contextSwitch+0x24a>
10000bcc:	46c0      	nop			; (mov r8, r8)
10000bce:	4b31      	ldr	r3, [pc, #196]	; (10000c94 <contextSwitch+0x310>)
10000bd0:	781b      	ldrb	r3, [r3, #0]
10000bd2:	2221      	movs	r2, #33	; 0x21
10000bd4:	2108      	movs	r1, #8
10000bd6:	468c      	mov	ip, r1
10000bd8:	44bc      	add	ip, r7
10000bda:	4462      	add	r2, ip
10000bdc:	7812      	ldrb	r2, [r2, #0]
10000bde:	429a      	cmp	r2, r3
10000be0:	d316      	bcc.n	10000c10 <contextSwitch+0x28c>
10000be2:	2317      	movs	r3, #23
10000be4:	2208      	movs	r2, #8
10000be6:	4694      	mov	ip, r2
10000be8:	44bc      	add	ip, r7
10000bea:	4463      	add	r3, ip
10000bec:	781b      	ldrb	r3, [r3, #0]
10000bee:	2217      	movs	r2, #23
10000bf0:	2108      	movs	r1, #8
10000bf2:	468c      	mov	ip, r1
10000bf4:	44bc      	add	ip, r7
10000bf6:	4462      	add	r2, ip
10000bf8:	7812      	ldrb	r2, [r2, #0]
10000bfa:	0151      	lsls	r1, r2, #5
10000bfc:	4a24      	ldr	r2, [pc, #144]	; (10000c90 <contextSwitch+0x30c>)
10000bfe:	1888      	adds	r0, r1, r2
10000c00:	4a22      	ldr	r2, [pc, #136]	; (10000c8c <contextSwitch+0x308>)
10000c02:	0099      	lsls	r1, r3, #2
10000c04:	5088      	str	r0, [r1, r2]
10000c06:	4a21      	ldr	r2, [pc, #132]	; (10000c8c <contextSwitch+0x308>)
10000c08:	009b      	lsls	r3, r3, #2
10000c0a:	589b      	ldr	r3, [r3, r2]
10000c0c:	62fb      	str	r3, [r7, #44]	; 0x2c
10000c0e:	e012      	b.n	10000c36 <contextSwitch+0x2b2>
10000c10:	2317      	movs	r3, #23
10000c12:	2208      	movs	r2, #8
10000c14:	4694      	mov	ip, r2
10000c16:	44bc      	add	ip, r7
10000c18:	4463      	add	r3, ip
10000c1a:	781b      	ldrb	r3, [r3, #0]
10000c1c:	4a1e      	ldr	r2, [pc, #120]	; (10000c98 <contextSwitch+0x314>)
10000c1e:	7812      	ldrb	r2, [r2, #0]
10000c20:	b2d2      	uxtb	r2, r2
10000c22:	0151      	lsls	r1, r2, #5
10000c24:	4a1a      	ldr	r2, [pc, #104]	; (10000c90 <contextSwitch+0x30c>)
10000c26:	1888      	adds	r0, r1, r2
10000c28:	4a18      	ldr	r2, [pc, #96]	; (10000c8c <contextSwitch+0x308>)
10000c2a:	0099      	lsls	r1, r3, #2
10000c2c:	5088      	str	r0, [r1, r2]
10000c2e:	4a17      	ldr	r2, [pc, #92]	; (10000c8c <contextSwitch+0x308>)
10000c30:	009b      	lsls	r3, r3, #2
10000c32:	589b      	ldr	r3, [r3, r2]
10000c34:	62fb      	str	r3, [r7, #44]	; 0x2c
10000c36:	6afb      	ldr	r3, [r7, #44]	; 0x2c
10000c38:	2217      	movs	r2, #23
10000c3a:	2108      	movs	r1, #8
10000c3c:	468c      	mov	ip, r1
10000c3e:	44bc      	add	ip, r7
10000c40:	4462      	add	r2, ip
10000c42:	7812      	ldrb	r2, [r2, #0]
10000c44:	775a      	strb	r2, [r3, #29]
10000c46:	f7ff fe87 	bl	10000958 <contextUnlock>
10000c4a:	f7ff fe59 	bl	10000900 <getTimeUs>
10000c4e:	0003      	movs	r3, r0
10000c50:	000c      	movs	r4, r1
10000c52:	001a      	movs	r2, r3
10000c54:	6a3b      	ldr	r3, [r7, #32]
10000c56:	1ad3      	subs	r3, r2, r3
10000c58:	60bb      	str	r3, [r7, #8]
10000c5a:	69bb      	ldr	r3, [r7, #24]
10000c5c:	685c      	ldr	r4, [r3, #4]
10000c5e:	681b      	ldr	r3, [r3, #0]
10000c60:	68ba      	ldr	r2, [r7, #8]
10000c62:	0015      	movs	r5, r2
10000c64:	2200      	movs	r2, #0
10000c66:	0016      	movs	r6, r2
10000c68:	195b      	adds	r3, r3, r5
10000c6a:	4174      	adcs	r4, r6
10000c6c:	69ba      	ldr	r2, [r7, #24]
10000c6e:	6013      	str	r3, [r2, #0]
10000c70:	6054      	str	r4, [r2, #4]
10000c72:	f7ff fe45 	bl	10000900 <getTimeUs>
10000c76:	0003      	movs	r3, r0
10000c78:	000c      	movs	r4, r1
10000c7a:	69ba      	ldr	r2, [r7, #24]
10000c7c:	6093      	str	r3, [r2, #8]
10000c7e:	60d4      	str	r4, [r2, #12]
10000c80:	46c0      	nop			; (mov r8, r8)
10000c82:	46bd      	mov	sp, r7
10000c84:	b00d      	add	sp, #52	; 0x34
10000c86:	bdf0      	pop	{r4, r5, r6, r7, pc}
10000c88:	20001a30 	.word	0x20001a30
10000c8c:	20001a28 	.word	0x20001a28
10000c90:	20001948 	.word	0x20001948
10000c94:	20000278 	.word	0x20000278
10000c98:	20001945 	.word	0x20001945

10000c9c <idle>:
10000c9c:	b580      	push	{r7, lr}
10000c9e:	af00      	add	r7, sp, #0
10000ca0:	bf30      	wfi
10000ca2:	e7fd      	b.n	10000ca0 <idle+0x4>

10000ca4 <setupIdle>:
10000ca4:	b590      	push	{r4, r7, lr}
10000ca6:	b085      	sub	sp, #20
10000ca8:	af00      	add	r7, sp, #0
10000caa:	0002      	movs	r2, r0
10000cac:	1dfb      	adds	r3, r7, #7
10000cae:	701a      	strb	r2, [r3, #0]
10000cb0:	1dfb      	adds	r3, r7, #7
10000cb2:	781b      	ldrb	r3, [r3, #0]
10000cb4:	015a      	lsls	r2, r3, #5
10000cb6:	4b2f      	ldr	r3, [pc, #188]	; (10000d74 <setupIdle+0xd0>)
10000cb8:	18d3      	adds	r3, r2, r3
10000cba:	60fb      	str	r3, [r7, #12]
10000cbc:	68fa      	ldr	r2, [r7, #12]
10000cbe:	2300      	movs	r3, #0
10000cc0:	2400      	movs	r4, #0
10000cc2:	6093      	str	r3, [r2, #8]
10000cc4:	60d4      	str	r4, [r2, #12]
10000cc6:	68fb      	ldr	r3, [r7, #12]
10000cc8:	2201      	movs	r2, #1
10000cca:	715a      	strb	r2, [r3, #5]
10000ccc:	68fb      	ldr	r3, [r7, #12]
10000cce:	22ff      	movs	r2, #255	; 0xff
10000cd0:	771a      	strb	r2, [r3, #28]
10000cd2:	68fb      	ldr	r3, [r7, #12]
10000cd4:	22ff      	movs	r2, #255	; 0xff
10000cd6:	775a      	strb	r2, [r3, #29]
10000cd8:	68fb      	ldr	r3, [r7, #12]
10000cda:	1dfa      	adds	r2, r7, #7
10000cdc:	7812      	ldrb	r2, [r2, #0]
10000cde:	711a      	strb	r2, [r3, #4]
10000ce0:	68fb      	ldr	r3, [r7, #12]
10000ce2:	4a25      	ldr	r2, [pc, #148]	; (10000d78 <setupIdle+0xd4>)
10000ce4:	619a      	str	r2, [r3, #24]
10000ce6:	230b      	movs	r3, #11
10000ce8:	18fb      	adds	r3, r7, r3
10000cea:	2264      	movs	r2, #100	; 0x64
10000cec:	701a      	strb	r2, [r3, #0]
10000cee:	1dfb      	adds	r3, r7, #7
10000cf0:	7819      	ldrb	r1, [r3, #0]
10000cf2:	230b      	movs	r3, #11
10000cf4:	18fb      	adds	r3, r7, r3
10000cf6:	220b      	movs	r2, #11
10000cf8:	18ba      	adds	r2, r7, r2
10000cfa:	7812      	ldrb	r2, [r2, #0]
10000cfc:	3a01      	subs	r2, #1
10000cfe:	701a      	strb	r2, [r3, #0]
10000d00:	230b      	movs	r3, #11
10000d02:	18fb      	adds	r3, r7, r3
10000d04:	781a      	ldrb	r2, [r3, #0]
10000d06:	4b1d      	ldr	r3, [pc, #116]	; (10000d7c <setupIdle+0xd8>)
10000d08:	2064      	movs	r0, #100	; 0x64
10000d0a:	4341      	muls	r1, r0
10000d0c:	188a      	adds	r2, r1, r2
10000d0e:	0092      	lsls	r2, r2, #2
10000d10:	2180      	movs	r1, #128	; 0x80
10000d12:	0449      	lsls	r1, r1, #17
10000d14:	50d1      	str	r1, [r2, r3]
10000d16:	1dfb      	adds	r3, r7, #7
10000d18:	7818      	ldrb	r0, [r3, #0]
10000d1a:	230b      	movs	r3, #11
10000d1c:	18fb      	adds	r3, r7, r3
10000d1e:	220b      	movs	r2, #11
10000d20:	18ba      	adds	r2, r7, r2
10000d22:	7812      	ldrb	r2, [r2, #0]
10000d24:	3a01      	subs	r2, #1
10000d26:	701a      	strb	r2, [r3, #0]
10000d28:	230b      	movs	r3, #11
10000d2a:	18fb      	adds	r3, r7, r3
10000d2c:	781a      	ldrb	r2, [r3, #0]
10000d2e:	4914      	ldr	r1, [pc, #80]	; (10000d80 <setupIdle+0xdc>)
10000d30:	4b12      	ldr	r3, [pc, #72]	; (10000d7c <setupIdle+0xd8>)
10000d32:	2464      	movs	r4, #100	; 0x64
10000d34:	4360      	muls	r0, r4
10000d36:	1882      	adds	r2, r0, r2
10000d38:	0092      	lsls	r2, r2, #2
10000d3a:	50d1      	str	r1, [r2, r3]
10000d3c:	1dfb      	adds	r3, r7, #7
10000d3e:	781b      	ldrb	r3, [r3, #0]
10000d40:	22c8      	movs	r2, #200	; 0xc8
10000d42:	0052      	lsls	r2, r2, #1
10000d44:	435a      	muls	r2, r3
10000d46:	4b0d      	ldr	r3, [pc, #52]	; (10000d7c <setupIdle+0xd8>)
10000d48:	18d3      	adds	r3, r2, r3
10000d4a:	3351      	adds	r3, #81	; 0x51
10000d4c:	33ff      	adds	r3, #255	; 0xff
10000d4e:	001a      	movs	r2, r3
10000d50:	68fb      	ldr	r3, [r7, #12]
10000d52:	601a      	str	r2, [r3, #0]
10000d54:	1dfb      	adds	r3, r7, #7
10000d56:	781a      	ldrb	r2, [r3, #0]
10000d58:	4b0a      	ldr	r3, [pc, #40]	; (10000d84 <setupIdle+0xe0>)
10000d5a:	0092      	lsls	r2, r2, #2
10000d5c:	68f9      	ldr	r1, [r7, #12]
10000d5e:	50d1      	str	r1, [r2, r3]
10000d60:	68fb      	ldr	r3, [r7, #12]
10000d62:	681b      	ldr	r3, [r3, #0]
10000d64:	2102      	movs	r1, #2
10000d66:	0018      	movs	r0, r3
10000d68:	f000 f944 	bl	10000ff4 <setPSPControl>
10000d6c:	46c0      	nop			; (mov r8, r8)
10000d6e:	46bd      	mov	sp, r7
10000d70:	b005      	add	sp, #20
10000d72:	bd90      	pop	{r4, r7, pc}
10000d74:	20001948 	.word	0x20001948
10000d78:	10007e54 	.word	0x10007e54
10000d7c:	20001000 	.word	0x20001000
10000d80:	10000c9d 	.word	0x10000c9d
10000d84:	20001a28 	.word	0x20001a28

10000d88 <core1_main>:
10000d88:	b580      	push	{r7, lr}
10000d8a:	af00      	add	r7, sp, #0
10000d8c:	2001      	movs	r0, #1
10000d8e:	f7ff ff89 	bl	10000ca4 <setupIdle>
10000d92:	4b09      	ldr	r3, [pc, #36]	; (10000db8 <core1_main+0x30>)
10000d94:	4a09      	ldr	r2, [pc, #36]	; (10000dbc <core1_main+0x34>)
10000d96:	601a      	str	r2, [r3, #0]
10000d98:	4b09      	ldr	r3, [pc, #36]	; (10000dc0 <core1_main+0x38>)
10000d9a:	2207      	movs	r2, #7
10000d9c:	601a      	str	r2, [r3, #0]
10000d9e:	4b09      	ldr	r3, [pc, #36]	; (10000dc4 <core1_main+0x3c>)
10000da0:	22c0      	movs	r2, #192	; 0xc0
10000da2:	0412      	lsls	r2, r2, #16
10000da4:	601a      	str	r2, [r3, #0]
10000da6:	4b08      	ldr	r3, [pc, #32]	; (10000dc8 <core1_main+0x40>)
10000da8:	685b      	ldr	r3, [r3, #4]
10000daa:	681b      	ldr	r3, [r3, #0]
10000dac:	0018      	movs	r0, r3
10000dae:	f000 f972 	bl	10001096 <startStackThread>
10000db2:	46c0      	nop			; (mov r8, r8)
10000db4:	46bd      	mov	sp, r7
10000db6:	bd80      	pop	{r7, pc}
10000db8:	e000e014 	.word	0xe000e014
10000dbc:	001312d0 	.word	0x001312d0
10000dc0:	e000e010 	.word	0xe000e010
10000dc4:	e000ed20 	.word	0xe000ed20
10000dc8:	20001a28 	.word	0x20001a28

10000dcc <setupSched>:
10000dcc:	b590      	push	{r4, r7, lr}
10000dce:	b083      	sub	sp, #12
10000dd0:	af00      	add	r7, sp, #0
10000dd2:	1dfb      	adds	r3, r7, #7
10000dd4:	2200      	movs	r2, #0
10000dd6:	701a      	strb	r2, [r3, #0]
10000dd8:	e013      	b.n	10000e02 <setupSched+0x36>
10000dda:	1dfb      	adds	r3, r7, #7
10000ddc:	781c      	ldrb	r4, [r3, #0]
10000dde:	f7ff fd8f 	bl	10000900 <getTimeUs>
10000de2:	000a      	movs	r2, r1
10000de4:	0001      	movs	r1, r0
10000de6:	4816      	ldr	r0, [pc, #88]	; (10000e40 <setupSched+0x74>)
10000de8:	0023      	movs	r3, r4
10000dea:	005b      	lsls	r3, r3, #1
10000dec:	191b      	adds	r3, r3, r4
10000dee:	00db      	lsls	r3, r3, #3
10000df0:	18c3      	adds	r3, r0, r3
10000df2:	3308      	adds	r3, #8
10000df4:	6019      	str	r1, [r3, #0]
10000df6:	605a      	str	r2, [r3, #4]
10000df8:	1dfb      	adds	r3, r7, #7
10000dfa:	781a      	ldrb	r2, [r3, #0]
10000dfc:	1dfb      	adds	r3, r7, #7
10000dfe:	3201      	adds	r2, #1
10000e00:	701a      	strb	r2, [r3, #0]
10000e02:	1dfb      	adds	r3, r7, #7
10000e04:	781b      	ldrb	r3, [r3, #0]
10000e06:	2b01      	cmp	r3, #1
10000e08:	d9e7      	bls.n	10000dda <setupSched+0xe>
10000e0a:	2000      	movs	r0, #0
10000e0c:	f7ff ff4a 	bl	10000ca4 <setupIdle>
10000e10:	4b0c      	ldr	r3, [pc, #48]	; (10000e44 <setupSched+0x78>)
10000e12:	2202      	movs	r2, #2
10000e14:	701a      	strb	r2, [r3, #0]
10000e16:	4b0c      	ldr	r3, [pc, #48]	; (10000e48 <setupSched+0x7c>)
10000e18:	4a0c      	ldr	r2, [pc, #48]	; (10000e4c <setupSched+0x80>)
10000e1a:	601a      	str	r2, [r3, #0]
10000e1c:	4b0c      	ldr	r3, [pc, #48]	; (10000e50 <setupSched+0x84>)
10000e1e:	2207      	movs	r2, #7
10000e20:	601a      	str	r2, [r3, #0]
10000e22:	4b0c      	ldr	r3, [pc, #48]	; (10000e54 <setupSched+0x88>)
10000e24:	22c0      	movs	r2, #192	; 0xc0
10000e26:	0412      	lsls	r2, r2, #16
10000e28:	601a      	str	r2, [r3, #0]
10000e2a:	4b0b      	ldr	r3, [pc, #44]	; (10000e58 <setupSched+0x8c>)
10000e2c:	0018      	movs	r0, r3
10000e2e:	f006 fab3 	bl	10007398 <multicore_launch_core1>
10000e32:	4b0a      	ldr	r3, [pc, #40]	; (10000e5c <setupSched+0x90>)
10000e34:	681b      	ldr	r3, [r3, #0]
10000e36:	681b      	ldr	r3, [r3, #0]
10000e38:	0018      	movs	r0, r3
10000e3a:	f000 f92c 	bl	10001096 <startStackThread>
10000e3e:	e7fe      	b.n	10000e3e <setupSched+0x72>
10000e40:	20001a30 	.word	0x20001a30
10000e44:	20001945 	.word	0x20001945
10000e48:	e000e014 	.word	0xe000e014
10000e4c:	001312d0 	.word	0x001312d0
10000e50:	e000e010 	.word	0xe000e010
10000e54:	e000ed20 	.word	0xe000ed20
10000e58:	10000d89 	.word	0x10000d89
10000e5c:	20001a28 	.word	0x20001a28

10000e60 <getPID>:
10000e60:	b580      	push	{r7, lr}
10000e62:	b082      	sub	sp, #8
10000e64:	af00      	add	r7, sp, #0
10000e66:	b672      	cpsid	i
10000e68:	23d0      	movs	r3, #208	; 0xd0
10000e6a:	061b      	lsls	r3, r3, #24
10000e6c:	681a      	ldr	r2, [r3, #0]
10000e6e:	1dfb      	adds	r3, r7, #7
10000e70:	701a      	strb	r2, [r3, #0]
10000e72:	1dfb      	adds	r3, r7, #7
10000e74:	781a      	ldrb	r2, [r3, #0]
10000e76:	4b06      	ldr	r3, [pc, #24]	; (10000e90 <getPID+0x30>)
10000e78:	0092      	lsls	r2, r2, #2
10000e7a:	58d2      	ldr	r2, [r2, r3]
10000e7c:	1dbb      	adds	r3, r7, #6
10000e7e:	7912      	ldrb	r2, [r2, #4]
10000e80:	701a      	strb	r2, [r3, #0]
10000e82:	b662      	cpsie	i
10000e84:	1dbb      	adds	r3, r7, #6
10000e86:	781b      	ldrb	r3, [r3, #0]
10000e88:	0018      	movs	r0, r3
10000e8a:	46bd      	mov	sp, r7
10000e8c:	b002      	add	sp, #8
10000e8e:	bd80      	pop	{r7, pc}
10000e90:	20001a28 	.word	0x20001a28

10000e94 <yield>:
10000e94:	b580      	push	{r7, lr}
10000e96:	b082      	sub	sp, #8
10000e98:	af00      	add	r7, sp, #0
10000e9a:	f7ff ffe1 	bl	10000e60 <getPID>
10000e9e:	0003      	movs	r3, r0
10000ea0:	015a      	lsls	r2, r3, #5
10000ea2:	4b0a      	ldr	r3, [pc, #40]	; (10000ecc <yield+0x38>)
10000ea4:	18d3      	adds	r3, r2, r3
10000ea6:	607b      	str	r3, [r7, #4]
10000ea8:	687b      	ldr	r3, [r7, #4]
10000eaa:	2201      	movs	r2, #1
10000eac:	77da      	strb	r2, [r3, #31]
10000eae:	4b08      	ldr	r3, [pc, #32]	; (10000ed0 <yield+0x3c>)
10000eb0:	2280      	movs	r2, #128	; 0x80
10000eb2:	04d2      	lsls	r2, r2, #19
10000eb4:	601a      	str	r2, [r3, #0]
10000eb6:	46c0      	nop			; (mov r8, r8)
10000eb8:	687b      	ldr	r3, [r7, #4]
10000eba:	7fdb      	ldrb	r3, [r3, #31]
10000ebc:	b2db      	uxtb	r3, r3
10000ebe:	2b00      	cmp	r3, #0
10000ec0:	d1fa      	bne.n	10000eb8 <yield+0x24>
10000ec2:	46c0      	nop			; (mov r8, r8)
10000ec4:	46bd      	mov	sp, r7
10000ec6:	b002      	add	sp, #8
10000ec8:	bd80      	pop	{r7, pc}
10000eca:	46c0      	nop			; (mov r8, r8)
10000ecc:	20001948 	.word	0x20001948
10000ed0:	e000ed04 	.word	0xe000ed04

10000ed4 <addThread>:
10000ed4:	b590      	push	{r4, r7, lr}
10000ed6:	b087      	sub	sp, #28
10000ed8:	af00      	add	r7, sp, #0
10000eda:	60f8      	str	r0, [r7, #12]
10000edc:	60b9      	str	r1, [r7, #8]
10000ede:	607a      	str	r2, [r7, #4]
10000ee0:	001a      	movs	r2, r3
10000ee2:	1cbb      	adds	r3, r7, #2
10000ee4:	801a      	strh	r2, [r3, #0]
10000ee6:	4b26      	ldr	r3, [pc, #152]	; (10000f80 <addThread+0xac>)
10000ee8:	781b      	ldrb	r3, [r3, #0]
10000eea:	2b06      	cmp	r3, #6
10000eec:	d843      	bhi.n	10000f76 <addThread+0xa2>
10000eee:	4b24      	ldr	r3, [pc, #144]	; (10000f80 <addThread+0xac>)
10000ef0:	781b      	ldrb	r3, [r3, #0]
10000ef2:	015a      	lsls	r2, r3, #5
10000ef4:	4b23      	ldr	r3, [pc, #140]	; (10000f84 <addThread+0xb0>)
10000ef6:	18d3      	adds	r3, r2, r3
10000ef8:	617b      	str	r3, [r7, #20]
10000efa:	697a      	ldr	r2, [r7, #20]
10000efc:	2300      	movs	r3, #0
10000efe:	2400      	movs	r4, #0
10000f00:	6093      	str	r3, [r2, #8]
10000f02:	60d4      	str	r4, [r2, #12]
10000f04:	697b      	ldr	r3, [r7, #20]
10000f06:	2201      	movs	r2, #1
10000f08:	715a      	strb	r2, [r3, #5]
10000f0a:	697b      	ldr	r3, [r7, #20]
10000f0c:	2228      	movs	r2, #40	; 0x28
10000f0e:	18ba      	adds	r2, r7, r2
10000f10:	7812      	ldrb	r2, [r2, #0]
10000f12:	771a      	strb	r2, [r3, #28]
10000f14:	697b      	ldr	r3, [r7, #20]
10000f16:	22ff      	movs	r2, #255	; 0xff
10000f18:	775a      	strb	r2, [r3, #29]
10000f1a:	4b19      	ldr	r3, [pc, #100]	; (10000f80 <addThread+0xac>)
10000f1c:	781a      	ldrb	r2, [r3, #0]
10000f1e:	697b      	ldr	r3, [r7, #20]
10000f20:	711a      	strb	r2, [r3, #4]
10000f22:	697b      	ldr	r3, [r7, #20]
10000f24:	68fa      	ldr	r2, [r7, #12]
10000f26:	619a      	str	r2, [r3, #24]
10000f28:	1cbb      	adds	r3, r7, #2
10000f2a:	881b      	ldrh	r3, [r3, #0]
10000f2c:	4a16      	ldr	r2, [pc, #88]	; (10000f88 <addThread+0xb4>)
10000f2e:	4694      	mov	ip, r2
10000f30:	4463      	add	r3, ip
10000f32:	009b      	lsls	r3, r3, #2
10000f34:	687a      	ldr	r2, [r7, #4]
10000f36:	18d3      	adds	r3, r2, r3
10000f38:	2280      	movs	r2, #128	; 0x80
10000f3a:	0452      	lsls	r2, r2, #17
10000f3c:	601a      	str	r2, [r3, #0]
10000f3e:	1cbb      	adds	r3, r7, #2
10000f40:	881b      	ldrh	r3, [r3, #0]
10000f42:	4a12      	ldr	r2, [pc, #72]	; (10000f8c <addThread+0xb8>)
10000f44:	4694      	mov	ip, r2
10000f46:	4463      	add	r3, ip
10000f48:	009b      	lsls	r3, r3, #2
10000f4a:	687a      	ldr	r2, [r7, #4]
10000f4c:	18d3      	adds	r3, r2, r3
10000f4e:	68ba      	ldr	r2, [r7, #8]
10000f50:	601a      	str	r2, [r3, #0]
10000f52:	1cbb      	adds	r3, r7, #2
10000f54:	881b      	ldrh	r3, [r3, #0]
10000f56:	4a0e      	ldr	r2, [pc, #56]	; (10000f90 <addThread+0xbc>)
10000f58:	4694      	mov	ip, r2
10000f5a:	4463      	add	r3, ip
10000f5c:	009b      	lsls	r3, r3, #2
10000f5e:	687a      	ldr	r2, [r7, #4]
10000f60:	18d3      	adds	r3, r2, r3
10000f62:	001a      	movs	r2, r3
10000f64:	697b      	ldr	r3, [r7, #20]
10000f66:	601a      	str	r2, [r3, #0]
10000f68:	4b05      	ldr	r3, [pc, #20]	; (10000f80 <addThread+0xac>)
10000f6a:	781b      	ldrb	r3, [r3, #0]
10000f6c:	3301      	adds	r3, #1
10000f6e:	b2da      	uxtb	r2, r3
10000f70:	4b03      	ldr	r3, [pc, #12]	; (10000f80 <addThread+0xac>)
10000f72:	701a      	strb	r2, [r3, #0]
10000f74:	e000      	b.n	10000f78 <addThread+0xa4>
10000f76:	46c0      	nop			; (mov r8, r8)
10000f78:	46bd      	mov	sp, r7
10000f7a:	b007      	add	sp, #28
10000f7c:	bd90      	pop	{r4, r7, pc}
10000f7e:	46c0      	nop			; (mov r8, r8)
10000f80:	20000278 	.word	0x20000278
10000f84:	20001948 	.word	0x20001948
10000f88:	3fffffff 	.word	0x3fffffff
10000f8c:	3ffffffe 	.word	0x3ffffffe
10000f90:	3ffffff0 	.word	0x3ffffff0

10000f94 <delayus>:
10000f94:	b5f0      	push	{r4, r5, r6, r7, lr}
10000f96:	b085      	sub	sp, #20
10000f98:	af00      	add	r7, sp, #0
10000f9a:	6078      	str	r0, [r7, #4]
10000f9c:	230f      	movs	r3, #15
10000f9e:	18fe      	adds	r6, r7, r3
10000fa0:	f7ff ff5e 	bl	10000e60 <getPID>
10000fa4:	0003      	movs	r3, r0
10000fa6:	7033      	strb	r3, [r6, #0]
10000fa8:	230f      	movs	r3, #15
10000faa:	18fb      	adds	r3, r7, r3
10000fac:	781e      	ldrb	r6, [r3, #0]
10000fae:	f7ff fca7 	bl	10000900 <getTimeUs>
10000fb2:	0002      	movs	r2, r0
10000fb4:	000b      	movs	r3, r1
10000fb6:	6879      	ldr	r1, [r7, #4]
10000fb8:	000c      	movs	r4, r1
10000fba:	2100      	movs	r1, #0
10000fbc:	000d      	movs	r5, r1
10000fbe:	1912      	adds	r2, r2, r4
10000fc0:	416b      	adcs	r3, r5
10000fc2:	001c      	movs	r4, r3
10000fc4:	0013      	movs	r3, r2
10000fc6:	490a      	ldr	r1, [pc, #40]	; (10000ff0 <delayus+0x5c>)
10000fc8:	0172      	lsls	r2, r6, #5
10000fca:	188a      	adds	r2, r1, r2
10000fcc:	3210      	adds	r2, #16
10000fce:	6013      	str	r3, [r2, #0]
10000fd0:	6054      	str	r4, [r2, #4]
10000fd2:	230f      	movs	r3, #15
10000fd4:	18fb      	adds	r3, r7, r3
10000fd6:	781b      	ldrb	r3, [r3, #0]
10000fd8:	4a05      	ldr	r2, [pc, #20]	; (10000ff0 <delayus+0x5c>)
10000fda:	015b      	lsls	r3, r3, #5
10000fdc:	18d3      	adds	r3, r2, r3
10000fde:	3305      	adds	r3, #5
10000fe0:	2202      	movs	r2, #2
10000fe2:	701a      	strb	r2, [r3, #0]
10000fe4:	f7ff ff56 	bl	10000e94 <yield>
10000fe8:	46c0      	nop			; (mov r8, r8)
10000fea:	46bd      	mov	sp, r7
10000fec:	b005      	add	sp, #20
10000fee:	bdf0      	pop	{r4, r5, r6, r7, pc}
10000ff0:	20001948 	.word	0x20001948

10000ff4 <setPSPControl>:
10000ff4:	f381 8814 	msr	CONTROL, r1
10000ff8:	f380 8809 	msr	PSP, r0
10000ffc:	4685      	mov	sp, r0
10000ffe:	f3bf 8f6f 	isb	sy
10001002:	4770      	bx	lr

10001004 <__setMSP>:
10001004:	f380 8808 	msr	MSP, r0
10001008:	4770      	bx	lr

1000100a <__setPSP>:
1000100a:	f380 8809 	msr	PSP, r0
1000100e:	4770      	bx	lr

10001010 <__setGPIO>:
10001010:	b40f      	push	{r0, r1, r2, r3}
10001012:	4926      	ldr	r1, [pc, #152]	; (100010ac <startStackThread+0x16>)
10001014:	2201      	movs	r2, #1
10001016:	4082      	lsls	r2, r0
10001018:	600a      	str	r2, [r1, #0]
1000101a:	bc0f      	pop	{r0, r1, r2, r3}
1000101c:	4770      	bx	lr

1000101e <__clrGPIO>:
1000101e:	b40f      	push	{r0, r1, r2, r3}
10001020:	4923      	ldr	r1, [pc, #140]	; (100010b0 <startStackThread+0x1a>)
10001022:	2201      	movs	r2, #1
10001024:	4082      	lsls	r2, r0
10001026:	600a      	str	r2, [r1, #0]
10001028:	bc0f      	pop	{r0, r1, r2, r3}
1000102a:	4770      	bx	lr

1000102c <isr_pendsv>:
1000102c:	b672      	cpsid	i
1000102e:	4821      	ldr	r0, [pc, #132]	; (100010b4 <startStackThread+0x1e>)
10001030:	6800      	ldr	r0, [r0, #0]
10001032:	300e      	adds	r0, #14
10001034:	f7ff ffec 	bl	10001010 <__setGPIO>
10001038:	466b      	mov	r3, sp
1000103a:	f3ef 8209 	mrs	r2, PSP
1000103e:	4695      	mov	sp, r2
10001040:	b4f0      	push	{r4, r5, r6, r7}
10001042:	4644      	mov	r4, r8
10001044:	464d      	mov	r5, r9
10001046:	4656      	mov	r6, sl
10001048:	465f      	mov	r7, fp
1000104a:	b4f0      	push	{r4, r5, r6, r7}
1000104c:	466a      	mov	r2, sp
1000104e:	4919      	ldr	r1, [pc, #100]	; (100010b4 <startStackThread+0x1e>)
10001050:	6809      	ldr	r1, [r1, #0]
10001052:	0089      	lsls	r1, r1, #2
10001054:	4818      	ldr	r0, [pc, #96]	; (100010b8 <startStackThread+0x22>)
10001056:	5840      	ldr	r0, [r0, r1]
10001058:	6002      	str	r2, [r0, #0]
1000105a:	f383 8808 	msr	MSP, r3
1000105e:	f7ff fc91 	bl	10000984 <contextSwitch>

10001062 <rnext>:
10001062:	466b      	mov	r3, sp
10001064:	4913      	ldr	r1, [pc, #76]	; (100010b4 <startStackThread+0x1e>)
10001066:	6809      	ldr	r1, [r1, #0]
10001068:	0089      	lsls	r1, r1, #2
1000106a:	4813      	ldr	r0, [pc, #76]	; (100010b8 <startStackThread+0x22>)
1000106c:	5840      	ldr	r0, [r0, r1]
1000106e:	6802      	ldr	r2, [r0, #0]
10001070:	4695      	mov	sp, r2
10001072:	bcf0      	pop	{r4, r5, r6, r7}
10001074:	46a0      	mov	r8, r4
10001076:	46a9      	mov	r9, r5
10001078:	46b2      	mov	sl, r6
1000107a:	46bb      	mov	fp, r7
1000107c:	bcf0      	pop	{r4, r5, r6, r7}
1000107e:	4669      	mov	r1, sp
10001080:	f381 8809 	msr	PSP, r1
10001084:	469d      	mov	sp, r3
10001086:	480b      	ldr	r0, [pc, #44]	; (100010b4 <startStackThread+0x1e>)
10001088:	6800      	ldr	r0, [r0, #0]
1000108a:	300e      	adds	r0, #14
1000108c:	f7ff ffc7 	bl	1000101e <__clrGPIO>
10001090:	480a      	ldr	r0, [pc, #40]	; (100010bc <startStackThread+0x26>)
10001092:	b662      	cpsie	i
10001094:	4700      	bx	r0

10001096 <startStackThread>:
10001096:	b672      	cpsid	i
10001098:	4685      	mov	sp, r0
1000109a:	bcf0      	pop	{r4, r5, r6, r7}
1000109c:	bcf0      	pop	{r4, r5, r6, r7}
1000109e:	bc0f      	pop	{r0, r1, r2, r3}
100010a0:	bc30      	pop	{r4, r5}
100010a2:	bc08      	pop	{r3}
100010a4:	469e      	mov	lr, r3
100010a6:	bc08      	pop	{r3}
100010a8:	b662      	cpsie	i
100010aa:	4770      	bx	lr
100010ac:	d0000014 	.word	0xd0000014
100010b0:	d0000018 	.word	0xd0000018
100010b4:	d0000000 	.word	0xd0000000
100010b8:	20001a28 	.word	0x20001a28
100010bc:	fffffffd 	.word	0xfffffffd

100010c0 <hw_xor_bits>:
100010c0:	b580      	push	{r7, lr}
100010c2:	b082      	sub	sp, #8
100010c4:	af00      	add	r7, sp, #0
100010c6:	6078      	str	r0, [r7, #4]
100010c8:	6039      	str	r1, [r7, #0]
100010ca:	687b      	ldr	r3, [r7, #4]
100010cc:	2280      	movs	r2, #128	; 0x80
100010ce:	0152      	lsls	r2, r2, #5
100010d0:	4313      	orrs	r3, r2
100010d2:	683a      	ldr	r2, [r7, #0]
100010d4:	601a      	str	r2, [r3, #0]
100010d6:	46c0      	nop			; (mov r8, r8)
100010d8:	46bd      	mov	sp, r7
100010da:	b002      	add	sp, #8
100010dc:	bd80      	pop	{r7, pc}

100010de <hw_write_masked>:
100010de:	b580      	push	{r7, lr}
100010e0:	b084      	sub	sp, #16
100010e2:	af00      	add	r7, sp, #0
100010e4:	60f8      	str	r0, [r7, #12]
100010e6:	60b9      	str	r1, [r7, #8]
100010e8:	607a      	str	r2, [r7, #4]
100010ea:	68fb      	ldr	r3, [r7, #12]
100010ec:	681a      	ldr	r2, [r3, #0]
100010ee:	68bb      	ldr	r3, [r7, #8]
100010f0:	4053      	eors	r3, r2
100010f2:	687a      	ldr	r2, [r7, #4]
100010f4:	401a      	ands	r2, r3
100010f6:	68fb      	ldr	r3, [r7, #12]
100010f8:	0011      	movs	r1, r2
100010fa:	0018      	movs	r0, r3
100010fc:	f7ff ffe0 	bl	100010c0 <hw_xor_bits>
10001100:	46c0      	nop			; (mov r8, r8)
10001102:	46bd      	mov	sp, r7
10001104:	b004      	add	sp, #16
10001106:	bd80      	pop	{r7, pc}

10001108 <gpio_set_function>:
10001108:	b580      	push	{r7, lr}
1000110a:	b082      	sub	sp, #8
1000110c:	af00      	add	r7, sp, #0
1000110e:	6078      	str	r0, [r7, #4]
10001110:	000a      	movs	r2, r1
10001112:	1cfb      	adds	r3, r7, #3
10001114:	701a      	strb	r2, [r3, #0]
10001116:	687b      	ldr	r3, [r7, #4]
10001118:	009b      	lsls	r3, r3, #2
1000111a:	4a0a      	ldr	r2, [pc, #40]	; (10001144 <gpio_set_function+0x3c>)
1000111c:	4694      	mov	ip, r2
1000111e:	4463      	add	r3, ip
10001120:	22c0      	movs	r2, #192	; 0xc0
10001122:	2140      	movs	r1, #64	; 0x40
10001124:	0018      	movs	r0, r3
10001126:	f7ff ffda 	bl	100010de <hw_write_masked>
1000112a:	4907      	ldr	r1, [pc, #28]	; (10001148 <gpio_set_function+0x40>)
1000112c:	1cfb      	adds	r3, r7, #3
1000112e:	781a      	ldrb	r2, [r3, #0]
10001130:	687b      	ldr	r3, [r7, #4]
10001132:	00db      	lsls	r3, r3, #3
10001134:	18cb      	adds	r3, r1, r3
10001136:	3304      	adds	r3, #4
10001138:	601a      	str	r2, [r3, #0]
1000113a:	46c0      	nop			; (mov r8, r8)
1000113c:	46bd      	mov	sp, r7
1000113e:	b002      	add	sp, #8
10001140:	bd80      	pop	{r7, pc}
10001142:	46c0      	nop			; (mov r8, r8)
10001144:	4001c004 	.word	0x4001c004
10001148:	40014000 	.word	0x40014000

1000114c <gpio_init>:
1000114c:	b580      	push	{r7, lr}
1000114e:	b082      	sub	sp, #8
10001150:	af00      	add	r7, sp, #0
10001152:	6078      	str	r0, [r7, #4]
10001154:	23d0      	movs	r3, #208	; 0xd0
10001156:	061b      	lsls	r3, r3, #24
10001158:	2101      	movs	r1, #1
1000115a:	687a      	ldr	r2, [r7, #4]
1000115c:	4091      	lsls	r1, r2
1000115e:	000a      	movs	r2, r1
10001160:	629a      	str	r2, [r3, #40]	; 0x28
10001162:	23d0      	movs	r3, #208	; 0xd0
10001164:	061b      	lsls	r3, r3, #24
10001166:	2101      	movs	r1, #1
10001168:	687a      	ldr	r2, [r7, #4]
1000116a:	4091      	lsls	r1, r2
1000116c:	000a      	movs	r2, r1
1000116e:	619a      	str	r2, [r3, #24]
10001170:	687b      	ldr	r3, [r7, #4]
10001172:	2105      	movs	r1, #5
10001174:	0018      	movs	r0, r3
10001176:	f7ff ffc7 	bl	10001108 <gpio_set_function>
1000117a:	46c0      	nop			; (mov r8, r8)
1000117c:	46bd      	mov	sp, r7
1000117e:	b002      	add	sp, #8
10001180:	bd80      	pop	{r7, pc}

10001182 <__dmb>:
10001182:	b580      	push	{r7, lr}
10001184:	af00      	add	r7, sp, #0
10001186:	f3bf 8f5f 	dmb	sy
1000118a:	46c0      	nop			; (mov r8, r8)
1000118c:	46bd      	mov	sp, r7
1000118e:	bd80      	pop	{r7, pc}

10001190 <__mem_fence_acquire>:
10001190:	b580      	push	{r7, lr}
10001192:	af00      	add	r7, sp, #0
10001194:	f7ff fff5 	bl	10001182 <__dmb>
10001198:	46c0      	nop			; (mov r8, r8)
1000119a:	46bd      	mov	sp, r7
1000119c:	bd80      	pop	{r7, pc}

1000119e <__mem_fence_release>:
1000119e:	b580      	push	{r7, lr}
100011a0:	af00      	add	r7, sp, #0
100011a2:	f7ff ffee 	bl	10001182 <__dmb>
100011a6:	46c0      	nop			; (mov r8, r8)
100011a8:	46bd      	mov	sp, r7
100011aa:	bd80      	pop	{r7, pc}

100011ac <save_and_disable_interrupts>:
100011ac:	b580      	push	{r7, lr}
100011ae:	b082      	sub	sp, #8
100011b0:	af00      	add	r7, sp, #0
100011b2:	f3ef 8310 	mrs	r3, PRIMASK
100011b6:	607b      	str	r3, [r7, #4]
100011b8:	b672      	cpsid	i
100011ba:	687b      	ldr	r3, [r7, #4]
100011bc:	0018      	movs	r0, r3
100011be:	46bd      	mov	sp, r7
100011c0:	b002      	add	sp, #8
100011c2:	bd80      	pop	{r7, pc}

100011c4 <restore_interrupts>:
100011c4:	b580      	push	{r7, lr}
100011c6:	b082      	sub	sp, #8
100011c8:	af00      	add	r7, sp, #0
100011ca:	6078      	str	r0, [r7, #4]
100011cc:	687b      	ldr	r3, [r7, #4]
100011ce:	f383 8810 	msr	PRIMASK, r3
100011d2:	46c0      	nop			; (mov r8, r8)
100011d4:	46bd      	mov	sp, r7
100011d6:	b002      	add	sp, #8
100011d8:	bd80      	pop	{r7, pc}
	...

100011dc <spin_lock_instance>:
100011dc:	b580      	push	{r7, lr}
100011de:	b082      	sub	sp, #8
100011e0:	af00      	add	r7, sp, #0
100011e2:	6078      	str	r0, [r7, #4]
100011e4:	687b      	ldr	r3, [r7, #4]
100011e6:	4a04      	ldr	r2, [pc, #16]	; (100011f8 <spin_lock_instance+0x1c>)
100011e8:	4694      	mov	ip, r2
100011ea:	4463      	add	r3, ip
100011ec:	009b      	lsls	r3, r3, #2
100011ee:	0018      	movs	r0, r3
100011f0:	46bd      	mov	sp, r7
100011f2:	b002      	add	sp, #8
100011f4:	bd80      	pop	{r7, pc}
100011f6:	46c0      	nop			; (mov r8, r8)
100011f8:	34000040 	.word	0x34000040

100011fc <spin_lock_unsafe_blocking>:
100011fc:	b580      	push	{r7, lr}
100011fe:	b082      	sub	sp, #8
10001200:	af00      	add	r7, sp, #0
10001202:	6078      	str	r0, [r7, #4]
10001204:	46c0      	nop			; (mov r8, r8)
10001206:	687b      	ldr	r3, [r7, #4]
10001208:	681b      	ldr	r3, [r3, #0]
1000120a:	425a      	negs	r2, r3
1000120c:	4153      	adcs	r3, r2
1000120e:	b2db      	uxtb	r3, r3
10001210:	2b00      	cmp	r3, #0
10001212:	d1f8      	bne.n	10001206 <spin_lock_unsafe_blocking+0xa>
10001214:	f7ff ffbc 	bl	10001190 <__mem_fence_acquire>
10001218:	46c0      	nop			; (mov r8, r8)
1000121a:	46bd      	mov	sp, r7
1000121c:	b002      	add	sp, #8
1000121e:	bd80      	pop	{r7, pc}

10001220 <spin_unlock_unsafe>:
10001220:	b580      	push	{r7, lr}
10001222:	b082      	sub	sp, #8
10001224:	af00      	add	r7, sp, #0
10001226:	6078      	str	r0, [r7, #4]
10001228:	f7ff ffb9 	bl	1000119e <__mem_fence_release>
1000122c:	687b      	ldr	r3, [r7, #4]
1000122e:	2200      	movs	r2, #0
10001230:	601a      	str	r2, [r3, #0]
10001232:	46c0      	nop			; (mov r8, r8)
10001234:	46bd      	mov	sp, r7
10001236:	b002      	add	sp, #8
10001238:	bd80      	pop	{r7, pc}

1000123a <spin_lock_blocking>:
1000123a:	b580      	push	{r7, lr}
1000123c:	b084      	sub	sp, #16
1000123e:	af00      	add	r7, sp, #0
10001240:	6078      	str	r0, [r7, #4]
10001242:	f7ff ffb3 	bl	100011ac <save_and_disable_interrupts>
10001246:	0003      	movs	r3, r0
10001248:	60fb      	str	r3, [r7, #12]
1000124a:	687b      	ldr	r3, [r7, #4]
1000124c:	0018      	movs	r0, r3
1000124e:	f7ff ffd5 	bl	100011fc <spin_lock_unsafe_blocking>
10001252:	68fb      	ldr	r3, [r7, #12]
10001254:	0018      	movs	r0, r3
10001256:	46bd      	mov	sp, r7
10001258:	b004      	add	sp, #16
1000125a:	bd80      	pop	{r7, pc}

1000125c <spin_unlock>:
1000125c:	b580      	push	{r7, lr}
1000125e:	b082      	sub	sp, #8
10001260:	af00      	add	r7, sp, #0
10001262:	6078      	str	r0, [r7, #4]
10001264:	6039      	str	r1, [r7, #0]
10001266:	687b      	ldr	r3, [r7, #4]
10001268:	0018      	movs	r0, r3
1000126a:	f7ff ffd9 	bl	10001220 <spin_unlock_unsafe>
1000126e:	683b      	ldr	r3, [r7, #0]
10001270:	0018      	movs	r0, r3
10001272:	f7ff ffa7 	bl	100011c4 <restore_interrupts>
10001276:	46c0      	nop			; (mov r8, r8)
10001278:	46bd      	mov	sp, r7
1000127a:	b002      	add	sp, #8
1000127c:	bd80      	pop	{r7, pc}

1000127e <hw_claim_lock>:
1000127e:	b580      	push	{r7, lr}
10001280:	af00      	add	r7, sp, #0
10001282:	200b      	movs	r0, #11
10001284:	f7ff ffaa 	bl	100011dc <spin_lock_instance>
10001288:	0003      	movs	r3, r0
1000128a:	0018      	movs	r0, r3
1000128c:	f7ff ffd5 	bl	1000123a <spin_lock_blocking>
10001290:	0003      	movs	r3, r0
10001292:	0018      	movs	r0, r3
10001294:	46bd      	mov	sp, r7
10001296:	bd80      	pop	{r7, pc}

10001298 <hw_claim_unlock>:
10001298:	b580      	push	{r7, lr}
1000129a:	b082      	sub	sp, #8
1000129c:	af00      	add	r7, sp, #0
1000129e:	6078      	str	r0, [r7, #4]
100012a0:	200b      	movs	r0, #11
100012a2:	f7ff ff9b 	bl	100011dc <spin_lock_instance>
100012a6:	0002      	movs	r2, r0
100012a8:	687b      	ldr	r3, [r7, #4]
100012aa:	0019      	movs	r1, r3
100012ac:	0010      	movs	r0, r2
100012ae:	f7ff ffd5 	bl	1000125c <spin_unlock>
100012b2:	46c0      	nop			; (mov r8, r8)
100012b4:	46bd      	mov	sp, r7
100012b6:	b002      	add	sp, #8
100012b8:	bd80      	pop	{r7, pc}

100012ba <hw_claim_or_assert>:
100012ba:	b580      	push	{r7, lr}
100012bc:	b086      	sub	sp, #24
100012be:	af00      	add	r7, sp, #0
100012c0:	60f8      	str	r0, [r7, #12]
100012c2:	60b9      	str	r1, [r7, #8]
100012c4:	607a      	str	r2, [r7, #4]
100012c6:	f7ff ffda 	bl	1000127e <hw_claim_lock>
100012ca:	0003      	movs	r3, r0
100012cc:	617b      	str	r3, [r7, #20]
100012ce:	68bb      	ldr	r3, [r7, #8]
100012d0:	08db      	lsrs	r3, r3, #3
100012d2:	68fa      	ldr	r2, [r7, #12]
100012d4:	18d3      	adds	r3, r2, r3
100012d6:	781b      	ldrb	r3, [r3, #0]
100012d8:	0019      	movs	r1, r3
100012da:	68bb      	ldr	r3, [r7, #8]
100012dc:	2207      	movs	r2, #7
100012de:	4013      	ands	r3, r2
100012e0:	40d9      	lsrs	r1, r3
100012e2:	000b      	movs	r3, r1
100012e4:	2201      	movs	r2, #1
100012e6:	4013      	ands	r3, r2
100012e8:	d005      	beq.n	100012f6 <hw_claim_or_assert+0x3c>
100012ea:	68ba      	ldr	r2, [r7, #8]
100012ec:	687b      	ldr	r3, [r7, #4]
100012ee:	0011      	movs	r1, r2
100012f0:	0018      	movs	r0, r3
100012f2:	f001 ff8d 	bl	10003210 <panic>
100012f6:	68bb      	ldr	r3, [r7, #8]
100012f8:	08db      	lsrs	r3, r3, #3
100012fa:	68fa      	ldr	r2, [r7, #12]
100012fc:	18d3      	adds	r3, r2, r3
100012fe:	68ba      	ldr	r2, [r7, #8]
10001300:	08d2      	lsrs	r2, r2, #3
10001302:	68f9      	ldr	r1, [r7, #12]
10001304:	188a      	adds	r2, r1, r2
10001306:	7811      	ldrb	r1, [r2, #0]
10001308:	68ba      	ldr	r2, [r7, #8]
1000130a:	2007      	movs	r0, #7
1000130c:	4002      	ands	r2, r0
1000130e:	2001      	movs	r0, #1
10001310:	4090      	lsls	r0, r2
10001312:	0002      	movs	r2, r0
10001314:	b2d2      	uxtb	r2, r2
10001316:	430a      	orrs	r2, r1
10001318:	b2d2      	uxtb	r2, r2
1000131a:	701a      	strb	r2, [r3, #0]
1000131c:	697b      	ldr	r3, [r7, #20]
1000131e:	0018      	movs	r0, r3
10001320:	f7ff ffba 	bl	10001298 <hw_claim_unlock>
10001324:	46c0      	nop			; (mov r8, r8)
10001326:	46bd      	mov	sp, r7
10001328:	b006      	add	sp, #24
1000132a:	bd80      	pop	{r7, pc}

1000132c <__dmb>:
1000132c:	b580      	push	{r7, lr}
1000132e:	af00      	add	r7, sp, #0
10001330:	f3bf 8f5f 	dmb	sy
10001334:	46c0      	nop			; (mov r8, r8)
10001336:	46bd      	mov	sp, r7
10001338:	bd80      	pop	{r7, pc}

1000133a <__mem_fence_release>:
1000133a:	b580      	push	{r7, lr}
1000133c:	af00      	add	r7, sp, #0
1000133e:	f7ff fff5 	bl	1000132c <__dmb>
10001342:	46c0      	nop			; (mov r8, r8)
10001344:	46bd      	mov	sp, r7
10001346:	bd80      	pop	{r7, pc}

10001348 <spin_lock_instance>:
10001348:	b580      	push	{r7, lr}
1000134a:	b082      	sub	sp, #8
1000134c:	af00      	add	r7, sp, #0
1000134e:	6078      	str	r0, [r7, #4]
10001350:	687b      	ldr	r3, [r7, #4]
10001352:	4a04      	ldr	r2, [pc, #16]	; (10001364 <spin_lock_instance+0x1c>)
10001354:	4694      	mov	ip, r2
10001356:	4463      	add	r3, ip
10001358:	009b      	lsls	r3, r3, #2
1000135a:	0018      	movs	r0, r3
1000135c:	46bd      	mov	sp, r7
1000135e:	b002      	add	sp, #8
10001360:	bd80      	pop	{r7, pc}
10001362:	46c0      	nop			; (mov r8, r8)
10001364:	34000040 	.word	0x34000040

10001368 <spin_unlock_unsafe>:
10001368:	b580      	push	{r7, lr}
1000136a:	b082      	sub	sp, #8
1000136c:	af00      	add	r7, sp, #0
1000136e:	6078      	str	r0, [r7, #4]
10001370:	f7ff ffe3 	bl	1000133a <__mem_fence_release>
10001374:	687b      	ldr	r3, [r7, #4]
10001376:	2200      	movs	r2, #0
10001378:	601a      	str	r2, [r3, #0]
1000137a:	46c0      	nop			; (mov r8, r8)
1000137c:	46bd      	mov	sp, r7
1000137e:	b002      	add	sp, #8
10001380:	bd80      	pop	{r7, pc}

10001382 <spin_locks_reset>:
10001382:	b580      	push	{r7, lr}
10001384:	b082      	sub	sp, #8
10001386:	af00      	add	r7, sp, #0
10001388:	2300      	movs	r3, #0
1000138a:	607b      	str	r3, [r7, #4]
1000138c:	e00a      	b.n	100013a4 <spin_locks_reset+0x22>
1000138e:	687b      	ldr	r3, [r7, #4]
10001390:	0018      	movs	r0, r3
10001392:	f7ff ffd9 	bl	10001348 <spin_lock_instance>
10001396:	0003      	movs	r3, r0
10001398:	0018      	movs	r0, r3
1000139a:	f7ff ffe5 	bl	10001368 <spin_unlock_unsafe>
1000139e:	687b      	ldr	r3, [r7, #4]
100013a0:	3301      	adds	r3, #1
100013a2:	607b      	str	r3, [r7, #4]
100013a4:	687b      	ldr	r3, [r7, #4]
100013a6:	2b1f      	cmp	r3, #31
100013a8:	d9f1      	bls.n	1000138e <spin_locks_reset+0xc>
100013aa:	46c0      	nop			; (mov r8, r8)
100013ac:	46bd      	mov	sp, r7
100013ae:	b002      	add	sp, #8
100013b0:	bd80      	pop	{r7, pc}
	...

100013b4 <next_striped_spin_lock_num>:
100013b4:	b580      	push	{r7, lr}
100013b6:	b082      	sub	sp, #8
100013b8:	af00      	add	r7, sp, #0
100013ba:	4b09      	ldr	r3, [pc, #36]	; (100013e0 <next_striped_spin_lock_num+0x2c>)
100013bc:	781b      	ldrb	r3, [r3, #0]
100013be:	1c5a      	adds	r2, r3, #1
100013c0:	b2d1      	uxtb	r1, r2
100013c2:	4a07      	ldr	r2, [pc, #28]	; (100013e0 <next_striped_spin_lock_num+0x2c>)
100013c4:	7011      	strb	r1, [r2, #0]
100013c6:	607b      	str	r3, [r7, #4]
100013c8:	4b05      	ldr	r3, [pc, #20]	; (100013e0 <next_striped_spin_lock_num+0x2c>)
100013ca:	781b      	ldrb	r3, [r3, #0]
100013cc:	2b17      	cmp	r3, #23
100013ce:	d902      	bls.n	100013d6 <next_striped_spin_lock_num+0x22>
100013d0:	4b03      	ldr	r3, [pc, #12]	; (100013e0 <next_striped_spin_lock_num+0x2c>)
100013d2:	2210      	movs	r2, #16
100013d4:	701a      	strb	r2, [r3, #0]
100013d6:	687b      	ldr	r3, [r7, #4]
100013d8:	0018      	movs	r0, r3
100013da:	46bd      	mov	sp, r7
100013dc:	b002      	add	sp, #8
100013de:	bd80      	pop	{r7, pc}
100013e0:	20000279 	.word	0x20000279

100013e4 <running_on_fpga>:
100013e4:	b580      	push	{r7, lr}
100013e6:	af00      	add	r7, sp, #0
100013e8:	4b04      	ldr	r3, [pc, #16]	; (100013fc <running_on_fpga+0x18>)
100013ea:	681b      	ldr	r3, [r3, #0]
100013ec:	2202      	movs	r2, #2
100013ee:	4013      	ands	r3, r2
100013f0:	1e5a      	subs	r2, r3, #1
100013f2:	4193      	sbcs	r3, r2
100013f4:	b2db      	uxtb	r3, r3
100013f6:	0018      	movs	r0, r3
100013f8:	46bd      	mov	sp, r7
100013fa:	bd80      	pop	{r7, pc}
100013fc:	4006c000 	.word	0x4006c000

10001400 <tight_loop_contents>:
10001400:	b580      	push	{r7, lr}
10001402:	af00      	add	r7, sp, #0
10001404:	46c0      	nop			; (mov r8, r8)
10001406:	46bd      	mov	sp, r7
10001408:	bd80      	pop	{r7, pc}

1000140a <hw_set_bits>:
1000140a:	b580      	push	{r7, lr}
1000140c:	b082      	sub	sp, #8
1000140e:	af00      	add	r7, sp, #0
10001410:	6078      	str	r0, [r7, #4]
10001412:	6039      	str	r1, [r7, #0]
10001414:	687b      	ldr	r3, [r7, #4]
10001416:	2280      	movs	r2, #128	; 0x80
10001418:	0192      	lsls	r2, r2, #6
1000141a:	4313      	orrs	r3, r2
1000141c:	683a      	ldr	r2, [r7, #0]
1000141e:	601a      	str	r2, [r3, #0]
10001420:	46c0      	nop			; (mov r8, r8)
10001422:	46bd      	mov	sp, r7
10001424:	b002      	add	sp, #8
10001426:	bd80      	pop	{r7, pc}

10001428 <hw_clear_bits>:
10001428:	b580      	push	{r7, lr}
1000142a:	b082      	sub	sp, #8
1000142c:	af00      	add	r7, sp, #0
1000142e:	6078      	str	r0, [r7, #4]
10001430:	6039      	str	r1, [r7, #0]
10001432:	687b      	ldr	r3, [r7, #4]
10001434:	22c0      	movs	r2, #192	; 0xc0
10001436:	0192      	lsls	r2, r2, #6
10001438:	4313      	orrs	r3, r2
1000143a:	683a      	ldr	r2, [r7, #0]
1000143c:	601a      	str	r2, [r3, #0]
1000143e:	46c0      	nop			; (mov r8, r8)
10001440:	46bd      	mov	sp, r7
10001442:	b002      	add	sp, #8
10001444:	bd80      	pop	{r7, pc}

10001446 <hw_xor_bits>:
10001446:	b580      	push	{r7, lr}
10001448:	b082      	sub	sp, #8
1000144a:	af00      	add	r7, sp, #0
1000144c:	6078      	str	r0, [r7, #4]
1000144e:	6039      	str	r1, [r7, #0]
10001450:	687b      	ldr	r3, [r7, #4]
10001452:	2280      	movs	r2, #128	; 0x80
10001454:	0152      	lsls	r2, r2, #5
10001456:	4313      	orrs	r3, r2
10001458:	683a      	ldr	r2, [r7, #0]
1000145a:	601a      	str	r2, [r3, #0]
1000145c:	46c0      	nop			; (mov r8, r8)
1000145e:	46bd      	mov	sp, r7
10001460:	b002      	add	sp, #8
10001462:	bd80      	pop	{r7, pc}

10001464 <hw_write_masked>:
10001464:	b580      	push	{r7, lr}
10001466:	b084      	sub	sp, #16
10001468:	af00      	add	r7, sp, #0
1000146a:	60f8      	str	r0, [r7, #12]
1000146c:	60b9      	str	r1, [r7, #8]
1000146e:	607a      	str	r2, [r7, #4]
10001470:	68fb      	ldr	r3, [r7, #12]
10001472:	681a      	ldr	r2, [r3, #0]
10001474:	68bb      	ldr	r3, [r7, #8]
10001476:	4053      	eors	r3, r2
10001478:	687a      	ldr	r2, [r7, #4]
1000147a:	401a      	ands	r2, r3
1000147c:	68fb      	ldr	r3, [r7, #12]
1000147e:	0011      	movs	r1, r2
10001480:	0018      	movs	r0, r3
10001482:	f7ff ffe0 	bl	10001446 <hw_xor_bits>
10001486:	46c0      	nop			; (mov r8, r8)
10001488:	46bd      	mov	sp, r7
1000148a:	b004      	add	sp, #16
1000148c:	bd80      	pop	{r7, pc}
	...

10001490 <uart_get_index>:
10001490:	b580      	push	{r7, lr}
10001492:	b082      	sub	sp, #8
10001494:	af00      	add	r7, sp, #0
10001496:	6078      	str	r0, [r7, #4]
10001498:	687b      	ldr	r3, [r7, #4]
1000149a:	4a05      	ldr	r2, [pc, #20]	; (100014b0 <uart_get_index+0x20>)
1000149c:	4694      	mov	ip, r2
1000149e:	4463      	add	r3, ip
100014a0:	425a      	negs	r2, r3
100014a2:	4153      	adcs	r3, r2
100014a4:	b2db      	uxtb	r3, r3
100014a6:	0018      	movs	r0, r3
100014a8:	46bd      	mov	sp, r7
100014aa:	b002      	add	sp, #8
100014ac:	bd80      	pop	{r7, pc}
100014ae:	46c0      	nop			; (mov r8, r8)
100014b0:	bffc8000 	.word	0xbffc8000

100014b4 <uart_get_hw>:
100014b4:	b580      	push	{r7, lr}
100014b6:	b082      	sub	sp, #8
100014b8:	af00      	add	r7, sp, #0
100014ba:	6078      	str	r0, [r7, #4]
100014bc:	687b      	ldr	r3, [r7, #4]
100014be:	0018      	movs	r0, r3
100014c0:	f7ff ffe6 	bl	10001490 <uart_get_index>
100014c4:	687b      	ldr	r3, [r7, #4]
100014c6:	0018      	movs	r0, r3
100014c8:	46bd      	mov	sp, r7
100014ca:	b002      	add	sp, #8
100014cc:	bd80      	pop	{r7, pc}

100014ce <uart_set_format>:
100014ce:	b580      	push	{r7, lr}
100014d0:	b084      	sub	sp, #16
100014d2:	af00      	add	r7, sp, #0
100014d4:	60f8      	str	r0, [r7, #12]
100014d6:	60b9      	str	r1, [r7, #8]
100014d8:	607a      	str	r2, [r7, #4]
100014da:	001a      	movs	r2, r3
100014dc:	1cfb      	adds	r3, r7, #3
100014de:	701a      	strb	r2, [r3, #0]
100014e0:	68fb      	ldr	r3, [r7, #12]
100014e2:	0018      	movs	r0, r3
100014e4:	f7ff ffe6 	bl	100014b4 <uart_get_hw>
100014e8:	0003      	movs	r3, r0
100014ea:	332c      	adds	r3, #44	; 0x2c
100014ec:	0018      	movs	r0, r3
100014ee:	68bb      	ldr	r3, [r7, #8]
100014f0:	3b05      	subs	r3, #5
100014f2:	015a      	lsls	r2, r3, #5
100014f4:	687b      	ldr	r3, [r7, #4]
100014f6:	3b01      	subs	r3, #1
100014f8:	00db      	lsls	r3, r3, #3
100014fa:	431a      	orrs	r2, r3
100014fc:	1cfb      	adds	r3, r7, #3
100014fe:	781b      	ldrb	r3, [r3, #0]
10001500:	2b00      	cmp	r3, #0
10001502:	d001      	beq.n	10001508 <uart_set_format+0x3a>
10001504:	2302      	movs	r3, #2
10001506:	e000      	b.n	1000150a <uart_set_format+0x3c>
10001508:	2300      	movs	r3, #0
1000150a:	431a      	orrs	r2, r3
1000150c:	1cfb      	adds	r3, r7, #3
1000150e:	781b      	ldrb	r3, [r3, #0]
10001510:	2b01      	cmp	r3, #1
10001512:	d101      	bne.n	10001518 <uart_set_format+0x4a>
10001514:	2304      	movs	r3, #4
10001516:	e000      	b.n	1000151a <uart_set_format+0x4c>
10001518:	2300      	movs	r3, #0
1000151a:	4313      	orrs	r3, r2
1000151c:	226e      	movs	r2, #110	; 0x6e
1000151e:	0019      	movs	r1, r3
10001520:	f7ff ffa0 	bl	10001464 <hw_write_masked>
10001524:	46c0      	nop			; (mov r8, r8)
10001526:	46bd      	mov	sp, r7
10001528:	b004      	add	sp, #16
1000152a:	bd80      	pop	{r7, pc}

1000152c <reset_block>:
1000152c:	b580      	push	{r7, lr}
1000152e:	b082      	sub	sp, #8
10001530:	af00      	add	r7, sp, #0
10001532:	6078      	str	r0, [r7, #4]
10001534:	687b      	ldr	r3, [r7, #4]
10001536:	4a04      	ldr	r2, [pc, #16]	; (10001548 <reset_block+0x1c>)
10001538:	0019      	movs	r1, r3
1000153a:	0010      	movs	r0, r2
1000153c:	f7ff ff65 	bl	1000140a <hw_set_bits>
10001540:	46c0      	nop			; (mov r8, r8)
10001542:	46bd      	mov	sp, r7
10001544:	b002      	add	sp, #8
10001546:	bd80      	pop	{r7, pc}
10001548:	4000c000 	.word	0x4000c000

1000154c <unreset_block_wait>:
1000154c:	b580      	push	{r7, lr}
1000154e:	b082      	sub	sp, #8
10001550:	af00      	add	r7, sp, #0
10001552:	6078      	str	r0, [r7, #4]
10001554:	687b      	ldr	r3, [r7, #4]
10001556:	4a09      	ldr	r2, [pc, #36]	; (1000157c <unreset_block_wait+0x30>)
10001558:	0019      	movs	r1, r3
1000155a:	0010      	movs	r0, r2
1000155c:	f7ff ff64 	bl	10001428 <hw_clear_bits>
10001560:	e001      	b.n	10001566 <unreset_block_wait+0x1a>
10001562:	f7ff ff4d 	bl	10001400 <tight_loop_contents>
10001566:	4b05      	ldr	r3, [pc, #20]	; (1000157c <unreset_block_wait+0x30>)
10001568:	689b      	ldr	r3, [r3, #8]
1000156a:	43db      	mvns	r3, r3
1000156c:	687a      	ldr	r2, [r7, #4]
1000156e:	4013      	ands	r3, r2
10001570:	d1f7      	bne.n	10001562 <unreset_block_wait+0x16>
10001572:	46c0      	nop			; (mov r8, r8)
10001574:	46bd      	mov	sp, r7
10001576:	b002      	add	sp, #8
10001578:	bd80      	pop	{r7, pc}
1000157a:	46c0      	nop			; (mov r8, r8)
1000157c:	4000c000 	.word	0x4000c000

10001580 <uart_reset>:
10001580:	b580      	push	{r7, lr}
10001582:	b082      	sub	sp, #8
10001584:	af00      	add	r7, sp, #0
10001586:	6078      	str	r0, [r7, #4]
10001588:	687b      	ldr	r3, [r7, #4]
1000158a:	0018      	movs	r0, r3
1000158c:	f7ff ff80 	bl	10001490 <uart_get_index>
10001590:	1e03      	subs	r3, r0, #0
10001592:	d002      	beq.n	1000159a <uart_reset+0x1a>
10001594:	2380      	movs	r3, #128	; 0x80
10001596:	041b      	lsls	r3, r3, #16
10001598:	e001      	b.n	1000159e <uart_reset+0x1e>
1000159a:	2380      	movs	r3, #128	; 0x80
1000159c:	03db      	lsls	r3, r3, #15
1000159e:	0018      	movs	r0, r3
100015a0:	f7ff ffc4 	bl	1000152c <reset_block>
100015a4:	46c0      	nop			; (mov r8, r8)
100015a6:	46bd      	mov	sp, r7
100015a8:	b002      	add	sp, #8
100015aa:	bd80      	pop	{r7, pc}

100015ac <uart_unreset>:
100015ac:	b580      	push	{r7, lr}
100015ae:	b082      	sub	sp, #8
100015b0:	af00      	add	r7, sp, #0
100015b2:	6078      	str	r0, [r7, #4]
100015b4:	687b      	ldr	r3, [r7, #4]
100015b6:	0018      	movs	r0, r3
100015b8:	f7ff ff6a 	bl	10001490 <uart_get_index>
100015bc:	1e03      	subs	r3, r0, #0
100015be:	d002      	beq.n	100015c6 <uart_unreset+0x1a>
100015c0:	2380      	movs	r3, #128	; 0x80
100015c2:	041b      	lsls	r3, r3, #16
100015c4:	e001      	b.n	100015ca <uart_unreset+0x1e>
100015c6:	2380      	movs	r3, #128	; 0x80
100015c8:	03db      	lsls	r3, r3, #15
100015ca:	0018      	movs	r0, r3
100015cc:	f7ff ffbe 	bl	1000154c <unreset_block_wait>
100015d0:	46c0      	nop			; (mov r8, r8)
100015d2:	46bd      	mov	sp, r7
100015d4:	b002      	add	sp, #8
100015d6:	bd80      	pop	{r7, pc}

100015d8 <uart_init>:
100015d8:	b580      	push	{r7, lr}
100015da:	b084      	sub	sp, #16
100015dc:	af00      	add	r7, sp, #0
100015de:	6078      	str	r0, [r7, #4]
100015e0:	6039      	str	r1, [r7, #0]
100015e2:	2006      	movs	r0, #6
100015e4:	f002 f836 	bl	10003654 <clock_get_hz>
100015e8:	1e03      	subs	r3, r0, #0
100015ea:	d101      	bne.n	100015f0 <uart_init+0x18>
100015ec:	2300      	movs	r3, #0
100015ee:	e033      	b.n	10001658 <uart_init+0x80>
100015f0:	687b      	ldr	r3, [r7, #4]
100015f2:	0018      	movs	r0, r3
100015f4:	f7ff ffc4 	bl	10001580 <uart_reset>
100015f8:	687b      	ldr	r3, [r7, #4]
100015fa:	0018      	movs	r0, r3
100015fc:	f7ff ffd6 	bl	100015ac <uart_unreset>
10001600:	687b      	ldr	r3, [r7, #4]
10001602:	2100      	movs	r1, #0
10001604:	0018      	movs	r0, r3
10001606:	f000 f883 	bl	10001710 <uart_set_translate_crlf>
1000160a:	683a      	ldr	r2, [r7, #0]
1000160c:	687b      	ldr	r3, [r7, #4]
1000160e:	0011      	movs	r1, r2
10001610:	0018      	movs	r0, r3
10001612:	f000 f827 	bl	10001664 <uart_set_baudrate>
10001616:	0003      	movs	r3, r0
10001618:	60fb      	str	r3, [r7, #12]
1000161a:	6878      	ldr	r0, [r7, #4]
1000161c:	2300      	movs	r3, #0
1000161e:	2201      	movs	r2, #1
10001620:	2108      	movs	r1, #8
10001622:	f7ff ff54 	bl	100014ce <uart_set_format>
10001626:	687b      	ldr	r3, [r7, #4]
10001628:	0018      	movs	r0, r3
1000162a:	f7ff ff43 	bl	100014b4 <uart_get_hw>
1000162e:	0003      	movs	r3, r0
10001630:	4a0b      	ldr	r2, [pc, #44]	; (10001660 <uart_init+0x88>)
10001632:	631a      	str	r2, [r3, #48]	; 0x30
10001634:	687b      	ldr	r3, [r7, #4]
10001636:	0018      	movs	r0, r3
10001638:	f7ff ff3c 	bl	100014b4 <uart_get_hw>
1000163c:	0003      	movs	r3, r0
1000163e:	332c      	adds	r3, #44	; 0x2c
10001640:	2110      	movs	r1, #16
10001642:	0018      	movs	r0, r3
10001644:	f7ff fee1 	bl	1000140a <hw_set_bits>
10001648:	687b      	ldr	r3, [r7, #4]
1000164a:	0018      	movs	r0, r3
1000164c:	f7ff ff32 	bl	100014b4 <uart_get_hw>
10001650:	0003      	movs	r3, r0
10001652:	2203      	movs	r2, #3
10001654:	649a      	str	r2, [r3, #72]	; 0x48
10001656:	68fb      	ldr	r3, [r7, #12]
10001658:	0018      	movs	r0, r3
1000165a:	46bd      	mov	sp, r7
1000165c:	b004      	add	sp, #16
1000165e:	bd80      	pop	{r7, pc}
10001660:	00000301 	.word	0x00000301

10001664 <uart_set_baudrate>:
10001664:	b580      	push	{r7, lr}
10001666:	b086      	sub	sp, #24
10001668:	af00      	add	r7, sp, #0
1000166a:	6078      	str	r0, [r7, #4]
1000166c:	6039      	str	r1, [r7, #0]
1000166e:	2006      	movs	r0, #6
10001670:	f001 fff0 	bl	10003654 <clock_get_hz>
10001674:	0003      	movs	r3, r0
10001676:	00db      	lsls	r3, r3, #3
10001678:	6839      	ldr	r1, [r7, #0]
1000167a:	0018      	movs	r0, r3
1000167c:	f004 f99e 	bl	100059bc <__wrap___aeabi_uidiv>
10001680:	0003      	movs	r3, r0
10001682:	60fb      	str	r3, [r7, #12]
10001684:	68fb      	ldr	r3, [r7, #12]
10001686:	09db      	lsrs	r3, r3, #7
10001688:	617b      	str	r3, [r7, #20]
1000168a:	68fb      	ldr	r3, [r7, #12]
1000168c:	227f      	movs	r2, #127	; 0x7f
1000168e:	4013      	ands	r3, r2
10001690:	3301      	adds	r3, #1
10001692:	085b      	lsrs	r3, r3, #1
10001694:	613b      	str	r3, [r7, #16]
10001696:	697b      	ldr	r3, [r7, #20]
10001698:	2b00      	cmp	r3, #0
1000169a:	d104      	bne.n	100016a6 <uart_set_baudrate+0x42>
1000169c:	2301      	movs	r3, #1
1000169e:	617b      	str	r3, [r7, #20]
100016a0:	2300      	movs	r3, #0
100016a2:	613b      	str	r3, [r7, #16]
100016a4:	e007      	b.n	100016b6 <uart_set_baudrate+0x52>
100016a6:	697b      	ldr	r3, [r7, #20]
100016a8:	4a17      	ldr	r2, [pc, #92]	; (10001708 <uart_set_baudrate+0xa4>)
100016aa:	4293      	cmp	r3, r2
100016ac:	d903      	bls.n	100016b6 <uart_set_baudrate+0x52>
100016ae:	4b17      	ldr	r3, [pc, #92]	; (1000170c <uart_set_baudrate+0xa8>)
100016b0:	617b      	str	r3, [r7, #20]
100016b2:	2300      	movs	r3, #0
100016b4:	613b      	str	r3, [r7, #16]
100016b6:	687b      	ldr	r3, [r7, #4]
100016b8:	0018      	movs	r0, r3
100016ba:	f7ff fefb 	bl	100014b4 <uart_get_hw>
100016be:	0003      	movs	r3, r0
100016c0:	697a      	ldr	r2, [r7, #20]
100016c2:	625a      	str	r2, [r3, #36]	; 0x24
100016c4:	687b      	ldr	r3, [r7, #4]
100016c6:	0018      	movs	r0, r3
100016c8:	f7ff fef4 	bl	100014b4 <uart_get_hw>
100016cc:	0003      	movs	r3, r0
100016ce:	693a      	ldr	r2, [r7, #16]
100016d0:	629a      	str	r2, [r3, #40]	; 0x28
100016d2:	687b      	ldr	r3, [r7, #4]
100016d4:	0018      	movs	r0, r3
100016d6:	f7ff feed 	bl	100014b4 <uart_get_hw>
100016da:	0003      	movs	r3, r0
100016dc:	332c      	adds	r3, #44	; 0x2c
100016de:	2100      	movs	r1, #0
100016e0:	0018      	movs	r0, r3
100016e2:	f7ff fe92 	bl	1000140a <hw_set_bits>
100016e6:	2006      	movs	r0, #6
100016e8:	f001 ffb4 	bl	10003654 <clock_get_hz>
100016ec:	0003      	movs	r3, r0
100016ee:	0098      	lsls	r0, r3, #2
100016f0:	697b      	ldr	r3, [r7, #20]
100016f2:	019a      	lsls	r2, r3, #6
100016f4:	693b      	ldr	r3, [r7, #16]
100016f6:	18d3      	adds	r3, r2, r3
100016f8:	0019      	movs	r1, r3
100016fa:	f004 f95f 	bl	100059bc <__wrap___aeabi_uidiv>
100016fe:	0003      	movs	r3, r0
10001700:	0018      	movs	r0, r3
10001702:	46bd      	mov	sp, r7
10001704:	b006      	add	sp, #24
10001706:	bd80      	pop	{r7, pc}
10001708:	0000fffe 	.word	0x0000fffe
1000170c:	0000ffff 	.word	0x0000ffff

10001710 <uart_set_translate_crlf>:
10001710:	b580      	push	{r7, lr}
10001712:	b082      	sub	sp, #8
10001714:	af00      	add	r7, sp, #0
10001716:	6078      	str	r0, [r7, #4]
10001718:	000a      	movs	r2, r1
1000171a:	1cfb      	adds	r3, r7, #3
1000171c:	701a      	strb	r2, [r3, #0]
1000171e:	687b      	ldr	r3, [r7, #4]
10001720:	0018      	movs	r0, r3
10001722:	f7ff feb5 	bl	10001490 <uart_get_index>
10001726:	0002      	movs	r2, r0
10001728:	1cfb      	adds	r3, r7, #3
1000172a:	781b      	ldrb	r3, [r3, #0]
1000172c:	2b00      	cmp	r3, #0
1000172e:	d001      	beq.n	10001734 <uart_set_translate_crlf+0x24>
10001730:	210a      	movs	r1, #10
10001732:	e001      	b.n	10001738 <uart_set_translate_crlf+0x28>
10001734:	2380      	movs	r3, #128	; 0x80
10001736:	0059      	lsls	r1, r3, #1
10001738:	4b03      	ldr	r3, [pc, #12]	; (10001748 <uart_set_translate_crlf+0x38>)
1000173a:	0052      	lsls	r2, r2, #1
1000173c:	52d1      	strh	r1, [r2, r3]
1000173e:	46c0      	nop			; (mov r8, r8)
10001740:	46bd      	mov	sp, r7
10001742:	b002      	add	sp, #8
10001744:	bd80      	pop	{r7, pc}
10001746:	46c0      	nop			; (mov r8, r8)
10001748:	20001a60 	.word	0x20001a60

1000174c <to_us_since_boot>:
1000174c:	b590      	push	{r4, r7, lr}
1000174e:	b083      	sub	sp, #12
10001750:	af00      	add	r7, sp, #0
10001752:	6038      	str	r0, [r7, #0]
10001754:	6079      	str	r1, [r7, #4]
10001756:	683b      	ldr	r3, [r7, #0]
10001758:	687c      	ldr	r4, [r7, #4]
1000175a:	0018      	movs	r0, r3
1000175c:	0021      	movs	r1, r4
1000175e:	46bd      	mov	sp, r7
10001760:	b003      	add	sp, #12
10001762:	bd90      	pop	{r4, r7, pc}

10001764 <update_us_since_boot>:
10001764:	b590      	push	{r4, r7, lr}
10001766:	b085      	sub	sp, #20
10001768:	af00      	add	r7, sp, #0
1000176a:	60f8      	str	r0, [r7, #12]
1000176c:	603a      	str	r2, [r7, #0]
1000176e:	607b      	str	r3, [r7, #4]
10001770:	68fa      	ldr	r2, [r7, #12]
10001772:	683b      	ldr	r3, [r7, #0]
10001774:	687c      	ldr	r4, [r7, #4]
10001776:	6013      	str	r3, [r2, #0]
10001778:	6054      	str	r4, [r2, #4]
1000177a:	46c0      	nop			; (mov r8, r8)
1000177c:	46bd      	mov	sp, r7
1000177e:	b005      	add	sp, #20
10001780:	bd90      	pop	{r4, r7, pc}

10001782 <get_absolute_time>:
10001782:	b590      	push	{r4, r7, lr}
10001784:	b085      	sub	sp, #20
10001786:	af00      	add	r7, sp, #0
10001788:	6078      	str	r0, [r7, #4]
1000178a:	f000 fe47 	bl	1000241c <time_us_64>
1000178e:	0003      	movs	r3, r0
10001790:	000c      	movs	r4, r1
10001792:	2208      	movs	r2, #8
10001794:	18b9      	adds	r1, r7, r2
10001796:	001a      	movs	r2, r3
10001798:	0023      	movs	r3, r4
1000179a:	0008      	movs	r0, r1
1000179c:	f7ff ffe2 	bl	10001764 <update_us_since_boot>
100017a0:	687a      	ldr	r2, [r7, #4]
100017a2:	68bb      	ldr	r3, [r7, #8]
100017a4:	68fc      	ldr	r4, [r7, #12]
100017a6:	6013      	str	r3, [r2, #0]
100017a8:	6054      	str	r4, [r2, #4]
100017aa:	6878      	ldr	r0, [r7, #4]
100017ac:	46bd      	mov	sp, r7
100017ae:	b005      	add	sp, #20
100017b0:	bd90      	pop	{r4, r7, pc}

100017b2 <delayed_by_us>:
100017b2:	b590      	push	{r4, r7, lr}
100017b4:	b08b      	sub	sp, #44	; 0x2c
100017b6:	af00      	add	r7, sp, #0
100017b8:	60f8      	str	r0, [r7, #12]
100017ba:	603a      	str	r2, [r7, #0]
100017bc:	607b      	str	r3, [r7, #4]
100017be:	683b      	ldr	r3, [r7, #0]
100017c0:	687c      	ldr	r4, [r7, #4]
100017c2:	0018      	movs	r0, r3
100017c4:	0021      	movs	r1, r4
100017c6:	f7ff ffc1 	bl	1000174c <to_us_since_boot>
100017ca:	0003      	movs	r3, r0
100017cc:	000c      	movs	r4, r1
100017ce:	61bb      	str	r3, [r7, #24]
100017d0:	61fc      	str	r4, [r7, #28]
100017d2:	69b9      	ldr	r1, [r7, #24]
100017d4:	69fa      	ldr	r2, [r7, #28]
100017d6:	6bbb      	ldr	r3, [r7, #56]	; 0x38
100017d8:	6bfc      	ldr	r4, [r7, #60]	; 0x3c
100017da:	185b      	adds	r3, r3, r1
100017dc:	4154      	adcs	r4, r2
100017de:	623b      	str	r3, [r7, #32]
100017e0:	627c      	str	r4, [r7, #36]	; 0x24
100017e2:	69fa      	ldr	r2, [r7, #28]
100017e4:	6a7b      	ldr	r3, [r7, #36]	; 0x24
100017e6:	429a      	cmp	r2, r3
100017e8:	d807      	bhi.n	100017fa <delayed_by_us+0x48>
100017ea:	69fa      	ldr	r2, [r7, #28]
100017ec:	6a7b      	ldr	r3, [r7, #36]	; 0x24
100017ee:	429a      	cmp	r2, r3
100017f0:	d108      	bne.n	10001804 <delayed_by_us+0x52>
100017f2:	69ba      	ldr	r2, [r7, #24]
100017f4:	6a3b      	ldr	r3, [r7, #32]
100017f6:	429a      	cmp	r2, r3
100017f8:	d904      	bls.n	10001804 <delayed_by_us+0x52>
100017fa:	2301      	movs	r3, #1
100017fc:	425b      	negs	r3, r3
100017fe:	17dc      	asrs	r4, r3, #31
10001800:	623b      	str	r3, [r7, #32]
10001802:	627c      	str	r4, [r7, #36]	; 0x24
10001804:	6a3b      	ldr	r3, [r7, #32]
10001806:	6a7c      	ldr	r4, [r7, #36]	; 0x24
10001808:	2210      	movs	r2, #16
1000180a:	18b9      	adds	r1, r7, r2
1000180c:	001a      	movs	r2, r3
1000180e:	0023      	movs	r3, r4
10001810:	0008      	movs	r0, r1
10001812:	f7ff ffa7 	bl	10001764 <update_us_since_boot>
10001816:	68fa      	ldr	r2, [r7, #12]
10001818:	693b      	ldr	r3, [r7, #16]
1000181a:	697c      	ldr	r4, [r7, #20]
1000181c:	6013      	str	r3, [r2, #0]
1000181e:	6054      	str	r4, [r2, #4]
10001820:	68f8      	ldr	r0, [r7, #12]
10001822:	46bd      	mov	sp, r7
10001824:	b00b      	add	sp, #44	; 0x2c
10001826:	bd90      	pop	{r4, r7, pc}

10001828 <absolute_time_diff_us>:
10001828:	b5f0      	push	{r4, r5, r6, r7, lr}
1000182a:	b085      	sub	sp, #20
1000182c:	af00      	add	r7, sp, #0
1000182e:	60b8      	str	r0, [r7, #8]
10001830:	60f9      	str	r1, [r7, #12]
10001832:	603a      	str	r2, [r7, #0]
10001834:	607b      	str	r3, [r7, #4]
10001836:	683b      	ldr	r3, [r7, #0]
10001838:	687c      	ldr	r4, [r7, #4]
1000183a:	0018      	movs	r0, r3
1000183c:	0021      	movs	r1, r4
1000183e:	f7ff ff85 	bl	1000174c <to_us_since_boot>
10001842:	0005      	movs	r5, r0
10001844:	000e      	movs	r6, r1
10001846:	68bb      	ldr	r3, [r7, #8]
10001848:	68fc      	ldr	r4, [r7, #12]
1000184a:	0018      	movs	r0, r3
1000184c:	0021      	movs	r1, r4
1000184e:	f7ff ff7d 	bl	1000174c <to_us_since_boot>
10001852:	0003      	movs	r3, r0
10001854:	000c      	movs	r4, r1
10001856:	1aed      	subs	r5, r5, r3
10001858:	41a6      	sbcs	r6, r4
1000185a:	002b      	movs	r3, r5
1000185c:	0034      	movs	r4, r6
1000185e:	0018      	movs	r0, r3
10001860:	0021      	movs	r1, r4
10001862:	46bd      	mov	sp, r7
10001864:	b005      	add	sp, #20
10001866:	bdf0      	pop	{r4, r5, r6, r7, pc}

10001868 <ph_get_node>:
10001868:	b580      	push	{r7, lr}
1000186a:	b082      	sub	sp, #8
1000186c:	af00      	add	r7, sp, #0
1000186e:	6078      	str	r0, [r7, #4]
10001870:	000a      	movs	r2, r1
10001872:	1cfb      	adds	r3, r7, #3
10001874:	701a      	strb	r2, [r3, #0]
10001876:	1cfb      	adds	r3, r7, #3
10001878:	781b      	ldrb	r3, [r3, #0]
1000187a:	2b00      	cmp	r3, #0
1000187c:	d005      	beq.n	1000188a <ph_get_node+0x22>
1000187e:	687b      	ldr	r3, [r7, #4]
10001880:	7b1b      	ldrb	r3, [r3, #12]
10001882:	1cfa      	adds	r2, r7, #3
10001884:	7812      	ldrb	r2, [r2, #0]
10001886:	429a      	cmp	r2, r3
10001888:	d905      	bls.n	10001896 <ph_get_node+0x2e>
1000188a:	4b09      	ldr	r3, [pc, #36]	; (100018b0 <ph_get_node+0x48>)
1000188c:	4a09      	ldr	r2, [pc, #36]	; (100018b4 <ph_get_node+0x4c>)
1000188e:	480a      	ldr	r0, [pc, #40]	; (100018b8 <ph_get_node+0x50>)
10001890:	214d      	movs	r1, #77	; 0x4d
10001892:	f001 fc97 	bl	100031c4 <__assert_func>
10001896:	687b      	ldr	r3, [r7, #4]
10001898:	6819      	ldr	r1, [r3, #0]
1000189a:	1cfb      	adds	r3, r7, #3
1000189c:	781a      	ldrb	r2, [r3, #0]
1000189e:	0013      	movs	r3, r2
100018a0:	005b      	lsls	r3, r3, #1
100018a2:	189b      	adds	r3, r3, r2
100018a4:	3b03      	subs	r3, #3
100018a6:	18cb      	adds	r3, r1, r3
100018a8:	0018      	movs	r0, r3
100018aa:	46bd      	mov	sp, r7
100018ac:	b002      	add	sp, #8
100018ae:	bd80      	pop	{r7, pc}
100018b0:	10007e60 	.word	0x10007e60
100018b4:	10008094 	.word	0x10008094
100018b8:	10007e7c 	.word	0x10007e7c

100018bc <ph_add_child_node>:
100018bc:	b580      	push	{r7, lr}
100018be:	b084      	sub	sp, #16
100018c0:	af00      	add	r7, sp, #0
100018c2:	6078      	str	r0, [r7, #4]
100018c4:	0008      	movs	r0, r1
100018c6:	0011      	movs	r1, r2
100018c8:	1cfb      	adds	r3, r7, #3
100018ca:	1c02      	adds	r2, r0, #0
100018cc:	701a      	strb	r2, [r3, #0]
100018ce:	1cbb      	adds	r3, r7, #2
100018d0:	1c0a      	adds	r2, r1, #0
100018d2:	701a      	strb	r2, [r3, #0]
100018d4:	1cfb      	adds	r3, r7, #3
100018d6:	781a      	ldrb	r2, [r3, #0]
100018d8:	687b      	ldr	r3, [r7, #4]
100018da:	0011      	movs	r1, r2
100018dc:	0018      	movs	r0, r3
100018de:	f7ff ffc3 	bl	10001868 <ph_get_node>
100018e2:	0003      	movs	r3, r0
100018e4:	60fb      	str	r3, [r7, #12]
100018e6:	1cfb      	adds	r3, r7, #3
100018e8:	781b      	ldrb	r3, [r3, #0]
100018ea:	2b00      	cmp	r3, #0
100018ec:	d105      	bne.n	100018fa <ph_add_child_node+0x3e>
100018ee:	4b1f      	ldr	r3, [pc, #124]	; (1000196c <ph_add_child_node+0xb0>)
100018f0:	4a1f      	ldr	r2, [pc, #124]	; (10001970 <ph_add_child_node+0xb4>)
100018f2:	4820      	ldr	r0, [pc, #128]	; (10001974 <ph_add_child_node+0xb8>)
100018f4:	2153      	movs	r1, #83	; 0x53
100018f6:	f001 fc65 	bl	100031c4 <__assert_func>
100018fa:	1cbb      	adds	r3, r7, #2
100018fc:	781b      	ldrb	r3, [r3, #0]
100018fe:	2b00      	cmp	r3, #0
10001900:	d105      	bne.n	1000190e <ph_add_child_node+0x52>
10001902:	4b1d      	ldr	r3, [pc, #116]	; (10001978 <ph_add_child_node+0xbc>)
10001904:	4a1a      	ldr	r2, [pc, #104]	; (10001970 <ph_add_child_node+0xb4>)
10001906:	481b      	ldr	r0, [pc, #108]	; (10001974 <ph_add_child_node+0xb8>)
10001908:	2154      	movs	r1, #84	; 0x54
1000190a:	f001 fc5b 	bl	100031c4 <__assert_func>
1000190e:	1cfa      	adds	r2, r7, #3
10001910:	1cbb      	adds	r3, r7, #2
10001912:	7812      	ldrb	r2, [r2, #0]
10001914:	781b      	ldrb	r3, [r3, #0]
10001916:	429a      	cmp	r2, r3
10001918:	d105      	bne.n	10001926 <ph_add_child_node+0x6a>
1000191a:	4b18      	ldr	r3, [pc, #96]	; (1000197c <ph_add_child_node+0xc0>)
1000191c:	4a14      	ldr	r2, [pc, #80]	; (10001970 <ph_add_child_node+0xb4>)
1000191e:	4815      	ldr	r0, [pc, #84]	; (10001974 <ph_add_child_node+0xb8>)
10001920:	2155      	movs	r1, #85	; 0x55
10001922:	f001 fc4f 	bl	100031c4 <__assert_func>
10001926:	1cbb      	adds	r3, r7, #2
10001928:	781a      	ldrb	r2, [r3, #0]
1000192a:	687b      	ldr	r3, [r7, #4]
1000192c:	0011      	movs	r1, r2
1000192e:	0018      	movs	r0, r3
10001930:	f7ff ff9a 	bl	10001868 <ph_get_node>
10001934:	0003      	movs	r3, r0
10001936:	60bb      	str	r3, [r7, #8]
10001938:	68bb      	ldr	r3, [r7, #8]
1000193a:	1cfa      	adds	r2, r7, #3
1000193c:	7812      	ldrb	r2, [r2, #0]
1000193e:	709a      	strb	r2, [r3, #2]
10001940:	68fb      	ldr	r3, [r7, #12]
10001942:	781b      	ldrb	r3, [r3, #0]
10001944:	2b00      	cmp	r3, #0
10001946:	d104      	bne.n	10001952 <ph_add_child_node+0x96>
10001948:	68fb      	ldr	r3, [r7, #12]
1000194a:	1cba      	adds	r2, r7, #2
1000194c:	7812      	ldrb	r2, [r2, #0]
1000194e:	701a      	strb	r2, [r3, #0]
10001950:	e007      	b.n	10001962 <ph_add_child_node+0xa6>
10001952:	68fb      	ldr	r3, [r7, #12]
10001954:	781a      	ldrb	r2, [r3, #0]
10001956:	68bb      	ldr	r3, [r7, #8]
10001958:	705a      	strb	r2, [r3, #1]
1000195a:	68fb      	ldr	r3, [r7, #12]
1000195c:	1cba      	adds	r2, r7, #2
1000195e:	7812      	ldrb	r2, [r2, #0]
10001960:	701a      	strb	r2, [r3, #0]
10001962:	46c0      	nop			; (mov r8, r8)
10001964:	46bd      	mov	sp, r7
10001966:	b004      	add	sp, #16
10001968:	bd80      	pop	{r7, pc}
1000196a:	46c0      	nop			; (mov r8, r8)
1000196c:	10007ed0 	.word	0x10007ed0
10001970:	10008080 	.word	0x10008080
10001974:	10007e7c 	.word	0x10007e7c
10001978:	10007edc 	.word	0x10007edc
1000197c:	10007ee8 	.word	0x10007ee8

10001980 <ph_merge_nodes>:
10001980:	b590      	push	{r4, r7, lr}
10001982:	b083      	sub	sp, #12
10001984:	af00      	add	r7, sp, #0
10001986:	6078      	str	r0, [r7, #4]
10001988:	0008      	movs	r0, r1
1000198a:	0011      	movs	r1, r2
1000198c:	1cfb      	adds	r3, r7, #3
1000198e:	1c02      	adds	r2, r0, #0
10001990:	701a      	strb	r2, [r3, #0]
10001992:	1cbb      	adds	r3, r7, #2
10001994:	1c0a      	adds	r2, r1, #0
10001996:	701a      	strb	r2, [r3, #0]
10001998:	1cfb      	adds	r3, r7, #3
1000199a:	781b      	ldrb	r3, [r3, #0]
1000199c:	2b00      	cmp	r3, #0
1000199e:	d102      	bne.n	100019a6 <ph_merge_nodes+0x26>
100019a0:	1cbb      	adds	r3, r7, #2
100019a2:	781b      	ldrb	r3, [r3, #0]
100019a4:	e027      	b.n	100019f6 <ph_merge_nodes+0x76>
100019a6:	1cbb      	adds	r3, r7, #2
100019a8:	781b      	ldrb	r3, [r3, #0]
100019aa:	2b00      	cmp	r3, #0
100019ac:	d102      	bne.n	100019b4 <ph_merge_nodes+0x34>
100019ae:	1cfb      	adds	r3, r7, #3
100019b0:	781b      	ldrb	r3, [r3, #0]
100019b2:	e020      	b.n	100019f6 <ph_merge_nodes+0x76>
100019b4:	687b      	ldr	r3, [r7, #4]
100019b6:	685c      	ldr	r4, [r3, #4]
100019b8:	687b      	ldr	r3, [r7, #4]
100019ba:	6898      	ldr	r0, [r3, #8]
100019bc:	1cbb      	adds	r3, r7, #2
100019be:	781a      	ldrb	r2, [r3, #0]
100019c0:	1cfb      	adds	r3, r7, #3
100019c2:	781b      	ldrb	r3, [r3, #0]
100019c4:	0019      	movs	r1, r3
100019c6:	47a0      	blx	r4
100019c8:	1e03      	subs	r3, r0, #0
100019ca:	d00a      	beq.n	100019e2 <ph_merge_nodes+0x62>
100019cc:	1cbb      	adds	r3, r7, #2
100019ce:	781a      	ldrb	r2, [r3, #0]
100019d0:	1cfb      	adds	r3, r7, #3
100019d2:	7819      	ldrb	r1, [r3, #0]
100019d4:	687b      	ldr	r3, [r7, #4]
100019d6:	0018      	movs	r0, r3
100019d8:	f7ff ff70 	bl	100018bc <ph_add_child_node>
100019dc:	1cfb      	adds	r3, r7, #3
100019de:	781b      	ldrb	r3, [r3, #0]
100019e0:	e009      	b.n	100019f6 <ph_merge_nodes+0x76>
100019e2:	1cfb      	adds	r3, r7, #3
100019e4:	781a      	ldrb	r2, [r3, #0]
100019e6:	1cbb      	adds	r3, r7, #2
100019e8:	7819      	ldrb	r1, [r3, #0]
100019ea:	687b      	ldr	r3, [r7, #4]
100019ec:	0018      	movs	r0, r3
100019ee:	f7ff ff65 	bl	100018bc <ph_add_child_node>
100019f2:	1cbb      	adds	r3, r7, #2
100019f4:	781b      	ldrb	r3, [r3, #0]
100019f6:	0018      	movs	r0, r3
100019f8:	46bd      	mov	sp, r7
100019fa:	b003      	add	sp, #12
100019fc:	bd90      	pop	{r4, r7, pc}

100019fe <ph_new_node>:
100019fe:	b580      	push	{r7, lr}
10001a00:	b084      	sub	sp, #16
10001a02:	af00      	add	r7, sp, #0
10001a04:	6078      	str	r0, [r7, #4]
10001a06:	687b      	ldr	r3, [r7, #4]
10001a08:	7b9b      	ldrb	r3, [r3, #14]
10001a0a:	2b00      	cmp	r3, #0
10001a0c:	d101      	bne.n	10001a12 <ph_new_node+0x14>
10001a0e:	2300      	movs	r3, #0
10001a10:	e01a      	b.n	10001a48 <ph_new_node+0x4a>
10001a12:	230f      	movs	r3, #15
10001a14:	18fb      	adds	r3, r7, r3
10001a16:	687a      	ldr	r2, [r7, #4]
10001a18:	7b92      	ldrb	r2, [r2, #14]
10001a1a:	701a      	strb	r2, [r3, #0]
10001a1c:	230f      	movs	r3, #15
10001a1e:	18fb      	adds	r3, r7, r3
10001a20:	781a      	ldrb	r2, [r3, #0]
10001a22:	687b      	ldr	r3, [r7, #4]
10001a24:	0011      	movs	r1, r2
10001a26:	0018      	movs	r0, r3
10001a28:	f7ff ff1e 	bl	10001868 <ph_get_node>
10001a2c:	0003      	movs	r3, r0
10001a2e:	785a      	ldrb	r2, [r3, #1]
10001a30:	687b      	ldr	r3, [r7, #4]
10001a32:	739a      	strb	r2, [r3, #14]
10001a34:	687b      	ldr	r3, [r7, #4]
10001a36:	7b9b      	ldrb	r3, [r3, #14]
10001a38:	2b00      	cmp	r3, #0
10001a3a:	d102      	bne.n	10001a42 <ph_new_node+0x44>
10001a3c:	687b      	ldr	r3, [r7, #4]
10001a3e:	2200      	movs	r2, #0
10001a40:	73da      	strb	r2, [r3, #15]
10001a42:	230f      	movs	r3, #15
10001a44:	18fb      	adds	r3, r7, r3
10001a46:	781b      	ldrb	r3, [r3, #0]
10001a48:	0018      	movs	r0, r3
10001a4a:	46bd      	mov	sp, r7
10001a4c:	b004      	add	sp, #16
10001a4e:	bd80      	pop	{r7, pc}

10001a50 <ph_insert>:
10001a50:	b580      	push	{r7, lr}
10001a52:	b084      	sub	sp, #16
10001a54:	af00      	add	r7, sp, #0
10001a56:	6078      	str	r0, [r7, #4]
10001a58:	000a      	movs	r2, r1
10001a5a:	1cfb      	adds	r3, r7, #3
10001a5c:	701a      	strb	r2, [r3, #0]
10001a5e:	1cfb      	adds	r3, r7, #3
10001a60:	781b      	ldrb	r3, [r3, #0]
10001a62:	2b00      	cmp	r3, #0
10001a64:	d105      	bne.n	10001a72 <ph_insert+0x22>
10001a66:	4b16      	ldr	r3, [pc, #88]	; (10001ac0 <ph_insert+0x70>)
10001a68:	4a16      	ldr	r2, [pc, #88]	; (10001ac4 <ph_insert+0x74>)
10001a6a:	4817      	ldr	r0, [pc, #92]	; (10001ac8 <ph_insert+0x78>)
10001a6c:	2177      	movs	r1, #119	; 0x77
10001a6e:	f001 fba9 	bl	100031c4 <__assert_func>
10001a72:	1cfb      	adds	r3, r7, #3
10001a74:	781a      	ldrb	r2, [r3, #0]
10001a76:	687b      	ldr	r3, [r7, #4]
10001a78:	0011      	movs	r1, r2
10001a7a:	0018      	movs	r0, r3
10001a7c:	f7ff fef4 	bl	10001868 <ph_get_node>
10001a80:	0003      	movs	r3, r0
10001a82:	60fb      	str	r3, [r7, #12]
10001a84:	68fb      	ldr	r3, [r7, #12]
10001a86:	2200      	movs	r2, #0
10001a88:	709a      	strb	r2, [r3, #2]
10001a8a:	68fb      	ldr	r3, [r7, #12]
10001a8c:	789a      	ldrb	r2, [r3, #2]
10001a8e:	68fb      	ldr	r3, [r7, #12]
10001a90:	705a      	strb	r2, [r3, #1]
10001a92:	68fb      	ldr	r3, [r7, #12]
10001a94:	785a      	ldrb	r2, [r3, #1]
10001a96:	68fb      	ldr	r3, [r7, #12]
10001a98:	701a      	strb	r2, [r3, #0]
10001a9a:	687b      	ldr	r3, [r7, #4]
10001a9c:	7b59      	ldrb	r1, [r3, #13]
10001a9e:	1cfb      	adds	r3, r7, #3
10001aa0:	781a      	ldrb	r2, [r3, #0]
10001aa2:	687b      	ldr	r3, [r7, #4]
10001aa4:	0018      	movs	r0, r3
10001aa6:	f7ff ff6b 	bl	10001980 <ph_merge_nodes>
10001aaa:	0003      	movs	r3, r0
10001aac:	001a      	movs	r2, r3
10001aae:	687b      	ldr	r3, [r7, #4]
10001ab0:	735a      	strb	r2, [r3, #13]
10001ab2:	687b      	ldr	r3, [r7, #4]
10001ab4:	7b5b      	ldrb	r3, [r3, #13]
10001ab6:	0018      	movs	r0, r3
10001ab8:	46bd      	mov	sp, r7
10001aba:	b004      	add	sp, #16
10001abc:	bd80      	pop	{r7, pc}
10001abe:	46c0      	nop			; (mov r8, r8)
10001ac0:	10007f00 	.word	0x10007f00
10001ac4:	100080c4 	.word	0x100080c4
10001ac8:	10007e7c 	.word	0x10007e7c

10001acc <ph_peek_head>:
10001acc:	b580      	push	{r7, lr}
10001ace:	b082      	sub	sp, #8
10001ad0:	af00      	add	r7, sp, #0
10001ad2:	6078      	str	r0, [r7, #4]
10001ad4:	687b      	ldr	r3, [r7, #4]
10001ad6:	7b5b      	ldrb	r3, [r3, #13]
10001ad8:	0018      	movs	r0, r3
10001ada:	46bd      	mov	sp, r7
10001adc:	b002      	add	sp, #8
10001ade:	bd80      	pop	{r7, pc}

10001ae0 <ph_contains>:
10001ae0:	b580      	push	{r7, lr}
10001ae2:	b082      	sub	sp, #8
10001ae4:	af00      	add	r7, sp, #0
10001ae6:	6078      	str	r0, [r7, #4]
10001ae8:	000a      	movs	r2, r1
10001aea:	1cfb      	adds	r3, r7, #3
10001aec:	701a      	strb	r2, [r3, #0]
10001aee:	687b      	ldr	r3, [r7, #4]
10001af0:	7b5b      	ldrb	r3, [r3, #13]
10001af2:	1cfa      	adds	r2, r7, #3
10001af4:	7812      	ldrb	r2, [r2, #0]
10001af6:	429a      	cmp	r2, r3
10001af8:	d00a      	beq.n	10001b10 <ph_contains+0x30>
10001afa:	1cfb      	adds	r3, r7, #3
10001afc:	781a      	ldrb	r2, [r3, #0]
10001afe:	687b      	ldr	r3, [r7, #4]
10001b00:	0011      	movs	r1, r2
10001b02:	0018      	movs	r0, r3
10001b04:	f7ff feb0 	bl	10001868 <ph_get_node>
10001b08:	0003      	movs	r3, r0
10001b0a:	789b      	ldrb	r3, [r3, #2]
10001b0c:	2b00      	cmp	r3, #0
10001b0e:	d001      	beq.n	10001b14 <ph_contains+0x34>
10001b10:	2301      	movs	r3, #1
10001b12:	e000      	b.n	10001b16 <ph_contains+0x36>
10001b14:	2300      	movs	r3, #0
10001b16:	1c1a      	adds	r2, r3, #0
10001b18:	2301      	movs	r3, #1
10001b1a:	4013      	ands	r3, r2
10001b1c:	b2db      	uxtb	r3, r3
10001b1e:	0018      	movs	r0, r3
10001b20:	46bd      	mov	sp, r7
10001b22:	b002      	add	sp, #8
10001b24:	bd80      	pop	{r7, pc}
	...

10001b28 <ph_add_to_free_list>:
10001b28:	b580      	push	{r7, lr}
10001b2a:	b082      	sub	sp, #8
10001b2c:	af00      	add	r7, sp, #0
10001b2e:	6078      	str	r0, [r7, #4]
10001b30:	000a      	movs	r2, r1
10001b32:	1cfb      	adds	r3, r7, #3
10001b34:	701a      	strb	r2, [r3, #0]
10001b36:	1cfb      	adds	r3, r7, #3
10001b38:	781b      	ldrb	r3, [r3, #0]
10001b3a:	2b00      	cmp	r3, #0
10001b3c:	d008      	beq.n	10001b50 <ph_add_to_free_list+0x28>
10001b3e:	1cfb      	adds	r3, r7, #3
10001b40:	781a      	ldrb	r2, [r3, #0]
10001b42:	687b      	ldr	r3, [r7, #4]
10001b44:	0011      	movs	r1, r2
10001b46:	0018      	movs	r0, r3
10001b48:	f7ff ffca 	bl	10001ae0 <ph_contains>
10001b4c:	1e03      	subs	r3, r0, #0
10001b4e:	d005      	beq.n	10001b5c <ph_add_to_free_list+0x34>
10001b50:	4b0e      	ldr	r3, [pc, #56]	; (10001b8c <ph_add_to_free_list+0x64>)
10001b52:	4a0f      	ldr	r2, [pc, #60]	; (10001b90 <ph_add_to_free_list+0x68>)
10001b54:	480f      	ldr	r0, [pc, #60]	; (10001b94 <ph_add_to_free_list+0x6c>)
10001b56:	218f      	movs	r1, #143	; 0x8f
10001b58:	f001 fb34 	bl	100031c4 <__assert_func>
10001b5c:	687b      	ldr	r3, [r7, #4]
10001b5e:	7bdb      	ldrb	r3, [r3, #15]
10001b60:	2b00      	cmp	r3, #0
10001b62:	d00a      	beq.n	10001b7a <ph_add_to_free_list+0x52>
10001b64:	687b      	ldr	r3, [r7, #4]
10001b66:	7bda      	ldrb	r2, [r3, #15]
10001b68:	687b      	ldr	r3, [r7, #4]
10001b6a:	0011      	movs	r1, r2
10001b6c:	0018      	movs	r0, r3
10001b6e:	f7ff fe7b 	bl	10001868 <ph_get_node>
10001b72:	0002      	movs	r2, r0
10001b74:	1cfb      	adds	r3, r7, #3
10001b76:	781b      	ldrb	r3, [r3, #0]
10001b78:	7053      	strb	r3, [r2, #1]
10001b7a:	687b      	ldr	r3, [r7, #4]
10001b7c:	1cfa      	adds	r2, r7, #3
10001b7e:	7812      	ldrb	r2, [r2, #0]
10001b80:	73da      	strb	r2, [r3, #15]
10001b82:	46c0      	nop			; (mov r8, r8)
10001b84:	46bd      	mov	sp, r7
10001b86:	b002      	add	sp, #8
10001b88:	bd80      	pop	{r7, pc}
10001b8a:	46c0      	nop			; (mov r8, r8)
10001b8c:	10007f04 	.word	0x10007f04
10001b90:	100080ec 	.word	0x100080ec
10001b94:	10007e7c 	.word	0x10007e7c

10001b98 <__dmb>:
10001b98:	b580      	push	{r7, lr}
10001b9a:	af00      	add	r7, sp, #0
10001b9c:	f3bf 8f5f 	dmb	sy
10001ba0:	46c0      	nop			; (mov r8, r8)
10001ba2:	46bd      	mov	sp, r7
10001ba4:	bd80      	pop	{r7, pc}

10001ba6 <__mem_fence_acquire>:
10001ba6:	b580      	push	{r7, lr}
10001ba8:	af00      	add	r7, sp, #0
10001baa:	f7ff fff5 	bl	10001b98 <__dmb>
10001bae:	46c0      	nop			; (mov r8, r8)
10001bb0:	46bd      	mov	sp, r7
10001bb2:	bd80      	pop	{r7, pc}

10001bb4 <__mem_fence_release>:
10001bb4:	b580      	push	{r7, lr}
10001bb6:	af00      	add	r7, sp, #0
10001bb8:	f7ff ffee 	bl	10001b98 <__dmb>
10001bbc:	46c0      	nop			; (mov r8, r8)
10001bbe:	46bd      	mov	sp, r7
10001bc0:	bd80      	pop	{r7, pc}

10001bc2 <save_and_disable_interrupts>:
10001bc2:	b580      	push	{r7, lr}
10001bc4:	b082      	sub	sp, #8
10001bc6:	af00      	add	r7, sp, #0
10001bc8:	f3ef 8310 	mrs	r3, PRIMASK
10001bcc:	607b      	str	r3, [r7, #4]
10001bce:	b672      	cpsid	i
10001bd0:	687b      	ldr	r3, [r7, #4]
10001bd2:	0018      	movs	r0, r3
10001bd4:	46bd      	mov	sp, r7
10001bd6:	b002      	add	sp, #8
10001bd8:	bd80      	pop	{r7, pc}

10001bda <restore_interrupts>:
10001bda:	b580      	push	{r7, lr}
10001bdc:	b082      	sub	sp, #8
10001bde:	af00      	add	r7, sp, #0
10001be0:	6078      	str	r0, [r7, #4]
10001be2:	687b      	ldr	r3, [r7, #4]
10001be4:	f383 8810 	msr	PRIMASK, r3
10001be8:	46c0      	nop			; (mov r8, r8)
10001bea:	46bd      	mov	sp, r7
10001bec:	b002      	add	sp, #8
10001bee:	bd80      	pop	{r7, pc}

10001bf0 <spin_lock_instance>:
10001bf0:	b580      	push	{r7, lr}
10001bf2:	b082      	sub	sp, #8
10001bf4:	af00      	add	r7, sp, #0
10001bf6:	6078      	str	r0, [r7, #4]
10001bf8:	687b      	ldr	r3, [r7, #4]
10001bfa:	4a04      	ldr	r2, [pc, #16]	; (10001c0c <spin_lock_instance+0x1c>)
10001bfc:	4694      	mov	ip, r2
10001bfe:	4463      	add	r3, ip
10001c00:	009b      	lsls	r3, r3, #2
10001c02:	0018      	movs	r0, r3
10001c04:	46bd      	mov	sp, r7
10001c06:	b002      	add	sp, #8
10001c08:	bd80      	pop	{r7, pc}
10001c0a:	46c0      	nop			; (mov r8, r8)
10001c0c:	34000040 	.word	0x34000040

10001c10 <spin_lock_unsafe_blocking>:
10001c10:	b580      	push	{r7, lr}
10001c12:	b082      	sub	sp, #8
10001c14:	af00      	add	r7, sp, #0
10001c16:	6078      	str	r0, [r7, #4]
10001c18:	46c0      	nop			; (mov r8, r8)
10001c1a:	687b      	ldr	r3, [r7, #4]
10001c1c:	681b      	ldr	r3, [r3, #0]
10001c1e:	425a      	negs	r2, r3
10001c20:	4153      	adcs	r3, r2
10001c22:	b2db      	uxtb	r3, r3
10001c24:	2b00      	cmp	r3, #0
10001c26:	d1f8      	bne.n	10001c1a <spin_lock_unsafe_blocking+0xa>
10001c28:	f7ff ffbd 	bl	10001ba6 <__mem_fence_acquire>
10001c2c:	46c0      	nop			; (mov r8, r8)
10001c2e:	46bd      	mov	sp, r7
10001c30:	b002      	add	sp, #8
10001c32:	bd80      	pop	{r7, pc}

10001c34 <spin_unlock_unsafe>:
10001c34:	b580      	push	{r7, lr}
10001c36:	b082      	sub	sp, #8
10001c38:	af00      	add	r7, sp, #0
10001c3a:	6078      	str	r0, [r7, #4]
10001c3c:	f7ff ffba 	bl	10001bb4 <__mem_fence_release>
10001c40:	687b      	ldr	r3, [r7, #4]
10001c42:	2200      	movs	r2, #0
10001c44:	601a      	str	r2, [r3, #0]
10001c46:	46c0      	nop			; (mov r8, r8)
10001c48:	46bd      	mov	sp, r7
10001c4a:	b002      	add	sp, #8
10001c4c:	bd80      	pop	{r7, pc}

10001c4e <spin_lock_blocking>:
10001c4e:	b580      	push	{r7, lr}
10001c50:	b084      	sub	sp, #16
10001c52:	af00      	add	r7, sp, #0
10001c54:	6078      	str	r0, [r7, #4]
10001c56:	f7ff ffb4 	bl	10001bc2 <save_and_disable_interrupts>
10001c5a:	0003      	movs	r3, r0
10001c5c:	60fb      	str	r3, [r7, #12]
10001c5e:	687b      	ldr	r3, [r7, #4]
10001c60:	0018      	movs	r0, r3
10001c62:	f7ff ffd5 	bl	10001c10 <spin_lock_unsafe_blocking>
10001c66:	68fb      	ldr	r3, [r7, #12]
10001c68:	0018      	movs	r0, r3
10001c6a:	46bd      	mov	sp, r7
10001c6c:	b004      	add	sp, #16
10001c6e:	bd80      	pop	{r7, pc}

10001c70 <spin_unlock>:
10001c70:	b580      	push	{r7, lr}
10001c72:	b082      	sub	sp, #8
10001c74:	af00      	add	r7, sp, #0
10001c76:	6078      	str	r0, [r7, #4]
10001c78:	6039      	str	r1, [r7, #0]
10001c7a:	687b      	ldr	r3, [r7, #4]
10001c7c:	0018      	movs	r0, r3
10001c7e:	f7ff ffd9 	bl	10001c34 <spin_unlock_unsafe>
10001c82:	683b      	ldr	r3, [r7, #0]
10001c84:	0018      	movs	r0, r3
10001c86:	f7ff ffa8 	bl	10001bda <restore_interrupts>
10001c8a:	46c0      	nop			; (mov r8, r8)
10001c8c:	46bd      	mov	sp, r7
10001c8e:	b002      	add	sp, #8
10001c90:	bd80      	pop	{r7, pc}
	...

10001c94 <alarm_pool_init_default>:
10001c94:	b580      	push	{r7, lr}
10001c96:	af00      	add	r7, sp, #0
10001c98:	4b06      	ldr	r3, [pc, #24]	; (10001cb4 <alarm_pool_init_default+0x20>)
10001c9a:	681b      	ldr	r3, [r3, #0]
10001c9c:	2b00      	cmp	r3, #0
10001c9e:	d106      	bne.n	10001cae <alarm_pool_init_default+0x1a>
10001ca0:	2110      	movs	r1, #16
10001ca2:	2003      	movs	r0, #3
10001ca4:	f000 fab2 	bl	1000220c <alarm_pool_create>
10001ca8:	0002      	movs	r2, r0
10001caa:	4b02      	ldr	r3, [pc, #8]	; (10001cb4 <alarm_pool_init_default+0x20>)
10001cac:	601a      	str	r2, [r3, #0]
10001cae:	46c0      	nop			; (mov r8, r8)
10001cb0:	46bd      	mov	sp, r7
10001cb2:	bd80      	pop	{r7, pc}
10001cb4:	20000ff0 	.word	0x20000ff0

10001cb8 <get_entry>:
10001cb8:	b580      	push	{r7, lr}
10001cba:	b082      	sub	sp, #8
10001cbc:	af00      	add	r7, sp, #0
10001cbe:	6078      	str	r0, [r7, #4]
10001cc0:	000a      	movs	r2, r1
10001cc2:	1cfb      	adds	r3, r7, #3
10001cc4:	701a      	strb	r2, [r3, #0]
10001cc6:	1cfb      	adds	r3, r7, #3
10001cc8:	781b      	ldrb	r3, [r3, #0]
10001cca:	2b00      	cmp	r3, #0
10001ccc:	d006      	beq.n	10001cdc <get_entry+0x24>
10001cce:	687b      	ldr	r3, [r7, #4]
10001cd0:	681b      	ldr	r3, [r3, #0]
10001cd2:	7b1b      	ldrb	r3, [r3, #12]
10001cd4:	1cfa      	adds	r2, r7, #3
10001cd6:	7812      	ldrb	r2, [r2, #0]
10001cd8:	429a      	cmp	r2, r3
10001cda:	d905      	bls.n	10001ce8 <get_entry+0x30>
10001cdc:	4b09      	ldr	r3, [pc, #36]	; (10001d04 <get_entry+0x4c>)
10001cde:	4a0a      	ldr	r2, [pc, #40]	; (10001d08 <get_entry+0x50>)
10001ce0:	480a      	ldr	r0, [pc, #40]	; (10001d0c <get_entry+0x54>)
10001ce2:	213b      	movs	r1, #59	; 0x3b
10001ce4:	f001 fa6e 	bl	100031c4 <__assert_func>
10001ce8:	687b      	ldr	r3, [r7, #4]
10001cea:	689a      	ldr	r2, [r3, #8]
10001cec:	1cfb      	adds	r3, r7, #3
10001cee:	781b      	ldrb	r3, [r3, #0]
10001cf0:	4907      	ldr	r1, [pc, #28]	; (10001d10 <get_entry+0x58>)
10001cf2:	468c      	mov	ip, r1
10001cf4:	4463      	add	r3, ip
10001cf6:	011b      	lsls	r3, r3, #4
10001cf8:	18d3      	adds	r3, r2, r3
10001cfa:	0018      	movs	r0, r3
10001cfc:	46bd      	mov	sp, r7
10001cfe:	b002      	add	sp, #8
10001d00:	bd80      	pop	{r7, pc}
10001d02:	46c0      	nop			; (mov r8, r8)
10001d04:	10007f78 	.word	0x10007f78
10001d08:	100080a0 	.word	0x100080a0
10001d0c:	10007f38 	.word	0x10007f38
10001d10:	0fffffff 	.word	0x0fffffff

10001d14 <get_entry_id_high>:
10001d14:	b580      	push	{r7, lr}
10001d16:	b082      	sub	sp, #8
10001d18:	af00      	add	r7, sp, #0
10001d1a:	6078      	str	r0, [r7, #4]
10001d1c:	000a      	movs	r2, r1
10001d1e:	1cfb      	adds	r3, r7, #3
10001d20:	701a      	strb	r2, [r3, #0]
10001d22:	1cfb      	adds	r3, r7, #3
10001d24:	781b      	ldrb	r3, [r3, #0]
10001d26:	2b00      	cmp	r3, #0
10001d28:	d006      	beq.n	10001d38 <get_entry_id_high+0x24>
10001d2a:	687b      	ldr	r3, [r7, #4]
10001d2c:	681b      	ldr	r3, [r3, #0]
10001d2e:	7b1b      	ldrb	r3, [r3, #12]
10001d30:	1cfa      	adds	r2, r7, #3
10001d32:	7812      	ldrb	r2, [r2, #0]
10001d34:	429a      	cmp	r2, r3
10001d36:	d905      	bls.n	10001d44 <get_entry_id_high+0x30>
10001d38:	4b07      	ldr	r3, [pc, #28]	; (10001d58 <get_entry_id_high+0x44>)
10001d3a:	4a08      	ldr	r2, [pc, #32]	; (10001d5c <get_entry_id_high+0x48>)
10001d3c:	4808      	ldr	r0, [pc, #32]	; (10001d60 <get_entry_id_high+0x4c>)
10001d3e:	2140      	movs	r1, #64	; 0x40
10001d40:	f001 fa40 	bl	100031c4 <__assert_func>
10001d44:	687b      	ldr	r3, [r7, #4]
10001d46:	68da      	ldr	r2, [r3, #12]
10001d48:	1cfb      	adds	r3, r7, #3
10001d4a:	781b      	ldrb	r3, [r3, #0]
10001d4c:	3b01      	subs	r3, #1
10001d4e:	18d3      	adds	r3, r2, r3
10001d50:	0018      	movs	r0, r3
10001d52:	46bd      	mov	sp, r7
10001d54:	b002      	add	sp, #8
10001d56:	bd80      	pop	{r7, pc}
10001d58:	10007f78 	.word	0x10007f78
10001d5c:	10008100 	.word	0x10008100
10001d60:	10007f38 	.word	0x10007f38

10001d64 <timer_pool_entry_comparator>:
10001d64:	b5b0      	push	{r4, r5, r7, lr}
10001d66:	b084      	sub	sp, #16
10001d68:	af00      	add	r7, sp, #0
10001d6a:	6078      	str	r0, [r7, #4]
10001d6c:	0008      	movs	r0, r1
10001d6e:	0011      	movs	r1, r2
10001d70:	1cfb      	adds	r3, r7, #3
10001d72:	1c02      	adds	r2, r0, #0
10001d74:	701a      	strb	r2, [r3, #0]
10001d76:	1cbb      	adds	r3, r7, #2
10001d78:	1c0a      	adds	r2, r1, #0
10001d7a:	701a      	strb	r2, [r3, #0]
10001d7c:	687b      	ldr	r3, [r7, #4]
10001d7e:	60fb      	str	r3, [r7, #12]
10001d80:	1cfb      	adds	r3, r7, #3
10001d82:	781a      	ldrb	r2, [r3, #0]
10001d84:	68fb      	ldr	r3, [r7, #12]
10001d86:	0011      	movs	r1, r2
10001d88:	0018      	movs	r0, r3
10001d8a:	f7ff ff95 	bl	10001cb8 <get_entry>
10001d8e:	0003      	movs	r3, r0
10001d90:	685c      	ldr	r4, [r3, #4]
10001d92:	681b      	ldr	r3, [r3, #0]
10001d94:	0018      	movs	r0, r3
10001d96:	0021      	movs	r1, r4
10001d98:	f7ff fcd8 	bl	1000174c <to_us_since_boot>
10001d9c:	0004      	movs	r4, r0
10001d9e:	000d      	movs	r5, r1
10001da0:	1cbb      	adds	r3, r7, #2
10001da2:	781a      	ldrb	r2, [r3, #0]
10001da4:	68fb      	ldr	r3, [r7, #12]
10001da6:	0011      	movs	r1, r2
10001da8:	0018      	movs	r0, r3
10001daa:	f7ff ff85 	bl	10001cb8 <get_entry>
10001dae:	0003      	movs	r3, r0
10001db0:	681a      	ldr	r2, [r3, #0]
10001db2:	685b      	ldr	r3, [r3, #4]
10001db4:	0010      	movs	r0, r2
10001db6:	0019      	movs	r1, r3
10001db8:	f7ff fcc8 	bl	1000174c <to_us_since_boot>
10001dbc:	0002      	movs	r2, r0
10001dbe:	000b      	movs	r3, r1
10001dc0:	2101      	movs	r1, #1
10001dc2:	42ab      	cmp	r3, r5
10001dc4:	d804      	bhi.n	10001dd0 <timer_pool_entry_comparator+0x6c>
10001dc6:	d101      	bne.n	10001dcc <timer_pool_entry_comparator+0x68>
10001dc8:	42a2      	cmp	r2, r4
10001dca:	d801      	bhi.n	10001dd0 <timer_pool_entry_comparator+0x6c>
10001dcc:	2300      	movs	r3, #0
10001dce:	1c19      	adds	r1, r3, #0
10001dd0:	b2cb      	uxtb	r3, r1
10001dd2:	0018      	movs	r0, r3
10001dd4:	46bd      	mov	sp, r7
10001dd6:	b004      	add	sp, #16
10001dd8:	bdb0      	pop	{r4, r5, r7, pc}

10001dda <make_public_id>:
10001dda:	b580      	push	{r7, lr}
10001ddc:	b082      	sub	sp, #8
10001dde:	af00      	add	r7, sp, #0
10001de0:	0002      	movs	r2, r0
10001de2:	1dfb      	adds	r3, r7, #7
10001de4:	701a      	strb	r2, [r3, #0]
10001de6:	1dbb      	adds	r3, r7, #6
10001de8:	1c0a      	adds	r2, r1, #0
10001dea:	701a      	strb	r2, [r3, #0]
10001dec:	1dfb      	adds	r3, r7, #7
10001dee:	781b      	ldrb	r3, [r3, #0]
10001df0:	021a      	lsls	r2, r3, #8
10001df2:	1dbb      	adds	r3, r7, #6
10001df4:	781b      	ldrb	r3, [r3, #0]
10001df6:	4313      	orrs	r3, r2
10001df8:	0018      	movs	r0, r3
10001dfa:	46bd      	mov	sp, r7
10001dfc:	b002      	add	sp, #8
10001dfe:	bd80      	pop	{r7, pc}

10001e00 <add_alarm_under_lock>:
10001e00:	b5b0      	push	{r4, r5, r7, lr}
10001e02:	b088      	sub	sp, #32
10001e04:	af00      	add	r7, sp, #0
10001e06:	60f8      	str	r0, [r7, #12]
10001e08:	603a      	str	r2, [r7, #0]
10001e0a:	607b      	str	r3, [r7, #4]
10001e0c:	6bbb      	ldr	r3, [r7, #56]	; 0x38
10001e0e:	2b00      	cmp	r3, #0
10001e10:	d017      	beq.n	10001e42 <add_alarm_under_lock+0x42>
10001e12:	68fb      	ldr	r3, [r7, #12]
10001e14:	681b      	ldr	r3, [r3, #0]
10001e16:	6bba      	ldr	r2, [r7, #56]	; 0x38
10001e18:	b2d2      	uxtb	r2, r2
10001e1a:	0011      	movs	r1, r2
10001e1c:	0018      	movs	r0, r3
10001e1e:	f7ff fe5f 	bl	10001ae0 <ph_contains>
10001e22:	0003      	movs	r3, r0
10001e24:	001a      	movs	r2, r3
10001e26:	2301      	movs	r3, #1
10001e28:	4053      	eors	r3, r2
10001e2a:	b2db      	uxtb	r3, r3
10001e2c:	2b00      	cmp	r3, #0
10001e2e:	d105      	bne.n	10001e3c <add_alarm_under_lock+0x3c>
10001e30:	4b31      	ldr	r3, [pc, #196]	; (10001ef8 <add_alarm_under_lock+0xf8>)
10001e32:	4a32      	ldr	r2, [pc, #200]	; (10001efc <add_alarm_under_lock+0xfc>)
10001e34:	4832      	ldr	r0, [pc, #200]	; (10001f00 <add_alarm_under_lock+0x100>)
10001e36:	2151      	movs	r1, #81	; 0x51
10001e38:	f001 f9c4 	bl	100031c4 <__assert_func>
10001e3c:	6bbb      	ldr	r3, [r7, #56]	; 0x38
10001e3e:	61fb      	str	r3, [r7, #28]
10001e40:	e006      	b.n	10001e50 <add_alarm_under_lock+0x50>
10001e42:	68fb      	ldr	r3, [r7, #12]
10001e44:	681b      	ldr	r3, [r3, #0]
10001e46:	0018      	movs	r0, r3
10001e48:	f7ff fdd9 	bl	100019fe <ph_new_node>
10001e4c:	0003      	movs	r3, r0
10001e4e:	61fb      	str	r3, [r7, #28]
10001e50:	69fb      	ldr	r3, [r7, #28]
10001e52:	2b00      	cmp	r3, #0
10001e54:	d04b      	beq.n	10001eee <add_alarm_under_lock+0xee>
10001e56:	69fb      	ldr	r3, [r7, #28]
10001e58:	b2da      	uxtb	r2, r3
10001e5a:	68fb      	ldr	r3, [r7, #12]
10001e5c:	0011      	movs	r1, r2
10001e5e:	0018      	movs	r0, r3
10001e60:	f7ff ff2a 	bl	10001cb8 <get_entry>
10001e64:	0003      	movs	r3, r0
10001e66:	61bb      	str	r3, [r7, #24]
10001e68:	69ba      	ldr	r2, [r7, #24]
10001e6a:	683b      	ldr	r3, [r7, #0]
10001e6c:	687c      	ldr	r4, [r7, #4]
10001e6e:	6013      	str	r3, [r2, #0]
10001e70:	6054      	str	r4, [r2, #4]
10001e72:	69bb      	ldr	r3, [r7, #24]
10001e74:	6b3a      	ldr	r2, [r7, #48]	; 0x30
10001e76:	609a      	str	r2, [r3, #8]
10001e78:	69bb      	ldr	r3, [r7, #24]
10001e7a:	6b7a      	ldr	r2, [r7, #52]	; 0x34
10001e7c:	60da      	str	r2, [r3, #12]
10001e7e:	68fb      	ldr	r3, [r7, #12]
10001e80:	681b      	ldr	r3, [r3, #0]
10001e82:	69fa      	ldr	r2, [r7, #28]
10001e84:	b2d2      	uxtb	r2, r2
10001e86:	0011      	movs	r1, r2
10001e88:	0018      	movs	r0, r3
10001e8a:	f7ff fde1 	bl	10001a50 <ph_insert>
10001e8e:	0003      	movs	r3, r0
10001e90:	001a      	movs	r2, r3
10001e92:	69fb      	ldr	r3, [r7, #28]
10001e94:	429a      	cmp	r2, r3
10001e96:	d12a      	bne.n	10001eee <add_alarm_under_lock+0xee>
10001e98:	68fb      	ldr	r3, [r7, #12]
10001e9a:	7d1b      	ldrb	r3, [r3, #20]
10001e9c:	0019      	movs	r1, r3
10001e9e:	2317      	movs	r3, #23
10001ea0:	18fd      	adds	r5, r7, r3
10001ea2:	683b      	ldr	r3, [r7, #0]
10001ea4:	687c      	ldr	r4, [r7, #4]
10001ea6:	001a      	movs	r2, r3
10001ea8:	0023      	movs	r3, r4
10001eaa:	0008      	movs	r0, r1
10001eac:	f000 fbc8 	bl	10002640 <hardware_alarm_set_target>
10001eb0:	0003      	movs	r3, r0
10001eb2:	702b      	strb	r3, [r5, #0]
10001eb4:	2317      	movs	r3, #23
10001eb6:	18fb      	adds	r3, r7, r3
10001eb8:	781b      	ldrb	r3, [r3, #0]
10001eba:	2b00      	cmp	r3, #0
10001ebc:	d00f      	beq.n	10001ede <add_alarm_under_lock+0xde>
10001ebe:	233c      	movs	r3, #60	; 0x3c
10001ec0:	18fb      	adds	r3, r7, r3
10001ec2:	781b      	ldrb	r3, [r3, #0]
10001ec4:	2201      	movs	r2, #1
10001ec6:	4053      	eors	r3, r2
10001ec8:	b2db      	uxtb	r3, r3
10001eca:	2b00      	cmp	r3, #0
10001ecc:	d007      	beq.n	10001ede <add_alarm_under_lock+0xde>
10001ece:	68fb      	ldr	r3, [r7, #12]
10001ed0:	681b      	ldr	r3, [r3, #0]
10001ed2:	69fa      	ldr	r2, [r7, #28]
10001ed4:	b2d2      	uxtb	r2, r2
10001ed6:	0011      	movs	r1, r2
10001ed8:	0018      	movs	r0, r3
10001eda:	f000 ffbd 	bl	10002e58 <ph_delete>
10001ede:	6c3b      	ldr	r3, [r7, #64]	; 0x40
10001ee0:	2b00      	cmp	r3, #0
10001ee2:	d004      	beq.n	10001eee <add_alarm_under_lock+0xee>
10001ee4:	6c3b      	ldr	r3, [r7, #64]	; 0x40
10001ee6:	2217      	movs	r2, #23
10001ee8:	18ba      	adds	r2, r7, r2
10001eea:	7812      	ldrb	r2, [r2, #0]
10001eec:	701a      	strb	r2, [r3, #0]
10001eee:	69fb      	ldr	r3, [r7, #28]
10001ef0:	0018      	movs	r0, r3
10001ef2:	46bd      	mov	sp, r7
10001ef4:	b008      	add	sp, #32
10001ef6:	bdb0      	pop	{r4, r5, r7, pc}
10001ef8:	10007f9c 	.word	0x10007f9c
10001efc:	100080ac 	.word	0x100080ac
10001f00:	10007f38 	.word	0x10007f38

10001f04 <alarm_pool_alarm_callback>:
10001f04:	b590      	push	{r4, r7, lr}
10001f06:	b09f      	sub	sp, #124	; 0x7c
10001f08:	af06      	add	r7, sp, #24
10001f0a:	6078      	str	r0, [r7, #4]
10001f0c:	4bb9      	ldr	r3, [pc, #740]	; (100021f4 <alarm_pool_alarm_callback+0x2f0>)
10001f0e:	687a      	ldr	r2, [r7, #4]
10001f10:	0092      	lsls	r2, r2, #2
10001f12:	58d3      	ldr	r3, [r2, r3]
10001f14:	64fb      	str	r3, [r7, #76]	; 0x4c
10001f16:	2310      	movs	r3, #16
10001f18:	18fb      	adds	r3, r7, r3
10001f1a:	0018      	movs	r0, r3
10001f1c:	f7ff fc31 	bl	10001782 <get_absolute_time>
10001f20:	2300      	movs	r3, #0
10001f22:	65bb      	str	r3, [r7, #88]	; 0x58
10001f24:	2300      	movs	r3, #0
10001f26:	2400      	movs	r4, #0
10001f28:	60bb      	str	r3, [r7, #8]
10001f2a:	60fc      	str	r4, [r7, #12]
10001f2c:	2300      	movs	r3, #0
10001f2e:	657b      	str	r3, [r7, #84]	; 0x54
10001f30:	235f      	movs	r3, #95	; 0x5f
10001f32:	18fb      	adds	r3, r7, r3
10001f34:	2200      	movs	r2, #0
10001f36:	701a      	strb	r2, [r3, #0]
10001f38:	6cfb      	ldr	r3, [r7, #76]	; 0x4c
10001f3a:	685b      	ldr	r3, [r3, #4]
10001f3c:	0018      	movs	r0, r3
10001f3e:	f7ff fe86 	bl	10001c4e <spin_lock_blocking>
10001f42:	0003      	movs	r3, r0
10001f44:	64bb      	str	r3, [r7, #72]	; 0x48
10001f46:	6cfb      	ldr	r3, [r7, #76]	; 0x4c
10001f48:	681b      	ldr	r3, [r3, #0]
10001f4a:	2247      	movs	r2, #71	; 0x47
10001f4c:	18bc      	adds	r4, r7, r2
10001f4e:	0018      	movs	r0, r3
10001f50:	f7ff fdbc 	bl	10001acc <ph_peek_head>
10001f54:	0003      	movs	r3, r0
10001f56:	7023      	strb	r3, [r4, #0]
10001f58:	2347      	movs	r3, #71	; 0x47
10001f5a:	18fb      	adds	r3, r7, r3
10001f5c:	781b      	ldrb	r3, [r3, #0]
10001f5e:	2b00      	cmp	r3, #0
10001f60:	d100      	bne.n	10001f64 <alarm_pool_alarm_callback+0x60>
10001f62:	e06f      	b.n	10002044 <alarm_pool_alarm_callback+0x140>
10001f64:	2347      	movs	r3, #71	; 0x47
10001f66:	18fb      	adds	r3, r7, r3
10001f68:	781a      	ldrb	r2, [r3, #0]
10001f6a:	6cfb      	ldr	r3, [r7, #76]	; 0x4c
10001f6c:	0011      	movs	r1, r2
10001f6e:	0018      	movs	r0, r3
10001f70:	f7ff fea2 	bl	10001cb8 <get_entry>
10001f74:	0003      	movs	r3, r0
10001f76:	643b      	str	r3, [r7, #64]	; 0x40
10001f78:	6c3b      	ldr	r3, [r7, #64]	; 0x40
10001f7a:	685c      	ldr	r4, [r3, #4]
10001f7c:	681b      	ldr	r3, [r3, #0]
10001f7e:	6938      	ldr	r0, [r7, #16]
10001f80:	6979      	ldr	r1, [r7, #20]
10001f82:	001a      	movs	r2, r3
10001f84:	0023      	movs	r3, r4
10001f86:	f7ff fc4f 	bl	10001828 <absolute_time_diff_us>
10001f8a:	0003      	movs	r3, r0
10001f8c:	000c      	movs	r4, r1
10001f8e:	2c00      	cmp	r4, #0
10001f90:	dc49      	bgt.n	10002026 <alarm_pool_alarm_callback+0x122>
10001f92:	d101      	bne.n	10001f98 <alarm_pool_alarm_callback+0x94>
10001f94:	2b00      	cmp	r3, #0
10001f96:	d146      	bne.n	10002026 <alarm_pool_alarm_callback+0x122>
10001f98:	6cfb      	ldr	r3, [r7, #76]	; 0x4c
10001f9a:	681b      	ldr	r3, [r3, #0]
10001f9c:	223f      	movs	r2, #63	; 0x3f
10001f9e:	18bc      	adds	r4, r7, r2
10001fa0:	2101      	movs	r1, #1
10001fa2:	0018      	movs	r0, r3
10001fa4:	f000 ff34 	bl	10002e10 <ph_remove_head_reserve>
10001fa8:	0003      	movs	r3, r0
10001faa:	7023      	strb	r3, [r4, #0]
10001fac:	233f      	movs	r3, #63	; 0x3f
10001fae:	18fa      	adds	r2, r7, r3
10001fb0:	2347      	movs	r3, #71	; 0x47
10001fb2:	18fb      	adds	r3, r7, r3
10001fb4:	7812      	ldrb	r2, [r2, #0]
10001fb6:	781b      	ldrb	r3, [r3, #0]
10001fb8:	429a      	cmp	r2, r3
10001fba:	d005      	beq.n	10001fc8 <alarm_pool_alarm_callback+0xc4>
10001fbc:	4b8e      	ldr	r3, [pc, #568]	; (100021f8 <alarm_pool_alarm_callback+0x2f4>)
10001fbe:	4a8f      	ldr	r2, [pc, #572]	; (100021fc <alarm_pool_alarm_callback+0x2f8>)
10001fc0:	488f      	ldr	r0, [pc, #572]	; (10002200 <alarm_pool_alarm_callback+0x2fc>)
10001fc2:	2178      	movs	r1, #120	; 0x78
10001fc4:	f001 f8fe 	bl	100031c4 <__assert_func>
10001fc8:	6c3b      	ldr	r3, [r7, #64]	; 0x40
10001fca:	685c      	ldr	r4, [r3, #4]
10001fcc:	681b      	ldr	r3, [r3, #0]
10001fce:	60bb      	str	r3, [r7, #8]
10001fd0:	60fc      	str	r4, [r7, #12]
10001fd2:	6c3b      	ldr	r3, [r7, #64]	; 0x40
10001fd4:	689b      	ldr	r3, [r3, #8]
10001fd6:	65bb      	str	r3, [r7, #88]	; 0x58
10001fd8:	6c3b      	ldr	r3, [r7, #64]	; 0x40
10001fda:	68db      	ldr	r3, [r3, #12]
10001fdc:	657b      	str	r3, [r7, #84]	; 0x54
10001fde:	6dbb      	ldr	r3, [r7, #88]	; 0x58
10001fe0:	2b00      	cmp	r3, #0
10001fe2:	d105      	bne.n	10001ff0 <alarm_pool_alarm_callback+0xec>
10001fe4:	4b87      	ldr	r3, [pc, #540]	; (10002204 <alarm_pool_alarm_callback+0x300>)
10001fe6:	4a85      	ldr	r2, [pc, #532]	; (100021fc <alarm_pool_alarm_callback+0x2f8>)
10001fe8:	4885      	ldr	r0, [pc, #532]	; (10002200 <alarm_pool_alarm_callback+0x2fc>)
10001fea:	217c      	movs	r1, #124	; 0x7c
10001fec:	f001 f8ea 	bl	100031c4 <__assert_func>
10001ff0:	2347      	movs	r3, #71	; 0x47
10001ff2:	18fb      	adds	r3, r7, r3
10001ff4:	781a      	ldrb	r2, [r3, #0]
10001ff6:	6cfb      	ldr	r3, [r7, #76]	; 0x4c
10001ff8:	0011      	movs	r1, r2
10001ffa:	0018      	movs	r0, r3
10001ffc:	f7ff fe8a 	bl	10001d14 <get_entry_id_high>
10002000:	0002      	movs	r2, r0
10002002:	2353      	movs	r3, #83	; 0x53
10002004:	18fb      	adds	r3, r7, r3
10002006:	7812      	ldrb	r2, [r2, #0]
10002008:	701a      	strb	r2, [r3, #0]
1000200a:	233f      	movs	r3, #63	; 0x3f
1000200c:	18fb      	adds	r3, r7, r3
1000200e:	781a      	ldrb	r2, [r3, #0]
10002010:	2353      	movs	r3, #83	; 0x53
10002012:	18fb      	adds	r3, r7, r3
10002014:	781b      	ldrb	r3, [r3, #0]
10002016:	0011      	movs	r1, r2
10002018:	0018      	movs	r0, r3
1000201a:	f7ff fede 	bl	10001dda <make_public_id>
1000201e:	0002      	movs	r2, r0
10002020:	6cfb      	ldr	r3, [r7, #76]	; 0x4c
10002022:	611a      	str	r2, [r3, #16]
10002024:	e00e      	b.n	10002044 <alarm_pool_alarm_callback+0x140>
10002026:	6c3b      	ldr	r3, [r7, #64]	; 0x40
10002028:	685c      	ldr	r4, [r3, #4]
1000202a:	681b      	ldr	r3, [r3, #0]
1000202c:	6879      	ldr	r1, [r7, #4]
1000202e:	001a      	movs	r2, r3
10002030:	0023      	movs	r3, r4
10002032:	0008      	movs	r0, r1
10002034:	f000 fb04 	bl	10002640 <hardware_alarm_set_target>
10002038:	1e03      	subs	r3, r0, #0
1000203a:	d003      	beq.n	10002044 <alarm_pool_alarm_callback+0x140>
1000203c:	235f      	movs	r3, #95	; 0x5f
1000203e:	18fb      	adds	r3, r7, r3
10002040:	2201      	movs	r2, #1
10002042:	701a      	strb	r2, [r3, #0]
10002044:	6cfb      	ldr	r3, [r7, #76]	; 0x4c
10002046:	685b      	ldr	r3, [r3, #4]
10002048:	6cba      	ldr	r2, [r7, #72]	; 0x48
1000204a:	0011      	movs	r1, r2
1000204c:	0018      	movs	r0, r3
1000204e:	f7ff fe0f 	bl	10001c70 <spin_unlock>
10002052:	6dbb      	ldr	r3, [r7, #88]	; 0x58
10002054:	2b00      	cmp	r3, #0
10002056:	d100      	bne.n	1000205a <alarm_pool_alarm_callback+0x156>
10002058:	e0c2      	b.n	100021e0 <alarm_pool_alarm_callback+0x2dc>
1000205a:	2347      	movs	r3, #71	; 0x47
1000205c:	18fb      	adds	r3, r7, r3
1000205e:	781a      	ldrb	r2, [r3, #0]
10002060:	2353      	movs	r3, #83	; 0x53
10002062:	18fb      	adds	r3, r7, r3
10002064:	781b      	ldrb	r3, [r3, #0]
10002066:	0011      	movs	r1, r2
10002068:	0018      	movs	r0, r3
1000206a:	f7ff feb6 	bl	10001dda <make_public_id>
1000206e:	6d7a      	ldr	r2, [r7, #84]	; 0x54
10002070:	6dbb      	ldr	r3, [r7, #88]	; 0x58
10002072:	0011      	movs	r1, r2
10002074:	4798      	blx	r3
10002076:	0003      	movs	r3, r0
10002078:	000c      	movs	r4, r1
1000207a:	633b      	str	r3, [r7, #48]	; 0x30
1000207c:	637c      	str	r4, [r7, #52]	; 0x34
1000207e:	6cfb      	ldr	r3, [r7, #76]	; 0x4c
10002080:	685b      	ldr	r3, [r3, #4]
10002082:	0018      	movs	r0, r3
10002084:	f7ff fde3 	bl	10001c4e <spin_lock_blocking>
10002088:	0003      	movs	r3, r0
1000208a:	64bb      	str	r3, [r7, #72]	; 0x48
1000208c:	6b7b      	ldr	r3, [r7, #52]	; 0x34
1000208e:	2b00      	cmp	r3, #0
10002090:	da3b      	bge.n	1000210a <alarm_pool_alarm_callback+0x206>
10002092:	6cfb      	ldr	r3, [r7, #76]	; 0x4c
10002094:	691b      	ldr	r3, [r3, #16]
10002096:	2b00      	cmp	r3, #0
10002098:	d037      	beq.n	1000210a <alarm_pool_alarm_callback+0x206>
1000209a:	6cfb      	ldr	r3, [r7, #76]	; 0x4c
1000209c:	691c      	ldr	r4, [r3, #16]
1000209e:	2347      	movs	r3, #71	; 0x47
100020a0:	18fb      	adds	r3, r7, r3
100020a2:	781a      	ldrb	r2, [r3, #0]
100020a4:	2353      	movs	r3, #83	; 0x53
100020a6:	18fb      	adds	r3, r7, r3
100020a8:	781b      	ldrb	r3, [r3, #0]
100020aa:	0011      	movs	r1, r2
100020ac:	0018      	movs	r0, r3
100020ae:	f7ff fe94 	bl	10001dda <make_public_id>
100020b2:	0003      	movs	r3, r0
100020b4:	429c      	cmp	r4, r3
100020b6:	d005      	beq.n	100020c4 <alarm_pool_alarm_callback+0x1c0>
100020b8:	4b53      	ldr	r3, [pc, #332]	; (10002208 <alarm_pool_alarm_callback+0x304>)
100020ba:	4a50      	ldr	r2, [pc, #320]	; (100021fc <alarm_pool_alarm_callback+0x2f8>)
100020bc:	4850      	ldr	r0, [pc, #320]	; (10002200 <alarm_pool_alarm_callback+0x2fc>)
100020be:	218b      	movs	r1, #139	; 0x8b
100020c0:	f001 f880 	bl	100031c4 <__assert_func>
100020c4:	6b3b      	ldr	r3, [r7, #48]	; 0x30
100020c6:	6b7c      	ldr	r4, [r7, #52]	; 0x34
100020c8:	2200      	movs	r2, #0
100020ca:	4259      	negs	r1, r3
100020cc:	41a2      	sbcs	r2, r4
100020ce:	2318      	movs	r3, #24
100020d0:	18f8      	adds	r0, r7, r3
100020d2:	68bb      	ldr	r3, [r7, #8]
100020d4:	68fc      	ldr	r4, [r7, #12]
100020d6:	9100      	str	r1, [sp, #0]
100020d8:	9201      	str	r2, [sp, #4]
100020da:	001a      	movs	r2, r3
100020dc:	0023      	movs	r3, r4
100020de:	f7ff fb68 	bl	100017b2 <delayed_by_us>
100020e2:	2347      	movs	r3, #71	; 0x47
100020e4:	18fb      	adds	r3, r7, r3
100020e6:	781a      	ldrb	r2, [r3, #0]
100020e8:	69bb      	ldr	r3, [r7, #24]
100020ea:	69fc      	ldr	r4, [r7, #28]
100020ec:	6cf8      	ldr	r0, [r7, #76]	; 0x4c
100020ee:	2100      	movs	r1, #0
100020f0:	9104      	str	r1, [sp, #16]
100020f2:	2101      	movs	r1, #1
100020f4:	9103      	str	r1, [sp, #12]
100020f6:	9202      	str	r2, [sp, #8]
100020f8:	6d7a      	ldr	r2, [r7, #84]	; 0x54
100020fa:	9201      	str	r2, [sp, #4]
100020fc:	6dba      	ldr	r2, [r7, #88]	; 0x58
100020fe:	9200      	str	r2, [sp, #0]
10002100:	001a      	movs	r2, r3
10002102:	0023      	movs	r3, r4
10002104:	f7ff fe7c 	bl	10001e00 <add_alarm_under_lock>
10002108:	e05c      	b.n	100021c4 <alarm_pool_alarm_callback+0x2c0>
1000210a:	6b7b      	ldr	r3, [r7, #52]	; 0x34
1000210c:	2b00      	cmp	r3, #0
1000210e:	dc05      	bgt.n	1000211c <alarm_pool_alarm_callback+0x218>
10002110:	6b7b      	ldr	r3, [r7, #52]	; 0x34
10002112:	2b00      	cmp	r3, #0
10002114:	d140      	bne.n	10002198 <alarm_pool_alarm_callback+0x294>
10002116:	6b3b      	ldr	r3, [r7, #48]	; 0x30
10002118:	2b00      	cmp	r3, #0
1000211a:	d03d      	beq.n	10002198 <alarm_pool_alarm_callback+0x294>
1000211c:	6cfb      	ldr	r3, [r7, #76]	; 0x4c
1000211e:	691b      	ldr	r3, [r3, #16]
10002120:	2b00      	cmp	r3, #0
10002122:	d039      	beq.n	10002198 <alarm_pool_alarm_callback+0x294>
10002124:	6cfb      	ldr	r3, [r7, #76]	; 0x4c
10002126:	691c      	ldr	r4, [r3, #16]
10002128:	2347      	movs	r3, #71	; 0x47
1000212a:	18fb      	adds	r3, r7, r3
1000212c:	781a      	ldrb	r2, [r3, #0]
1000212e:	2353      	movs	r3, #83	; 0x53
10002130:	18fb      	adds	r3, r7, r3
10002132:	781b      	ldrb	r3, [r3, #0]
10002134:	0011      	movs	r1, r2
10002136:	0018      	movs	r0, r3
10002138:	f7ff fe4f 	bl	10001dda <make_public_id>
1000213c:	0003      	movs	r3, r0
1000213e:	429c      	cmp	r4, r3
10002140:	d005      	beq.n	1000214e <alarm_pool_alarm_callback+0x24a>
10002142:	4b31      	ldr	r3, [pc, #196]	; (10002208 <alarm_pool_alarm_callback+0x304>)
10002144:	4a2d      	ldr	r2, [pc, #180]	; (100021fc <alarm_pool_alarm_callback+0x2f8>)
10002146:	482e      	ldr	r0, [pc, #184]	; (10002200 <alarm_pool_alarm_callback+0x2fc>)
10002148:	218e      	movs	r1, #142	; 0x8e
1000214a:	f001 f83b 	bl	100031c4 <__assert_func>
1000214e:	2320      	movs	r3, #32
10002150:	18fb      	adds	r3, r7, r3
10002152:	0018      	movs	r0, r3
10002154:	f7ff fb15 	bl	10001782 <get_absolute_time>
10002158:	6b3b      	ldr	r3, [r7, #48]	; 0x30
1000215a:	6b7c      	ldr	r4, [r7, #52]	; 0x34
1000215c:	2228      	movs	r2, #40	; 0x28
1000215e:	18b8      	adds	r0, r7, r2
10002160:	6a39      	ldr	r1, [r7, #32]
10002162:	6a7a      	ldr	r2, [r7, #36]	; 0x24
10002164:	9300      	str	r3, [sp, #0]
10002166:	9401      	str	r4, [sp, #4]
10002168:	0013      	movs	r3, r2
1000216a:	000a      	movs	r2, r1
1000216c:	f7ff fb21 	bl	100017b2 <delayed_by_us>
10002170:	2347      	movs	r3, #71	; 0x47
10002172:	18fb      	adds	r3, r7, r3
10002174:	781a      	ldrb	r2, [r3, #0]
10002176:	6abb      	ldr	r3, [r7, #40]	; 0x28
10002178:	6afc      	ldr	r4, [r7, #44]	; 0x2c
1000217a:	6cf8      	ldr	r0, [r7, #76]	; 0x4c
1000217c:	2100      	movs	r1, #0
1000217e:	9104      	str	r1, [sp, #16]
10002180:	2101      	movs	r1, #1
10002182:	9103      	str	r1, [sp, #12]
10002184:	9202      	str	r2, [sp, #8]
10002186:	6d7a      	ldr	r2, [r7, #84]	; 0x54
10002188:	9201      	str	r2, [sp, #4]
1000218a:	6dba      	ldr	r2, [r7, #88]	; 0x58
1000218c:	9200      	str	r2, [sp, #0]
1000218e:	001a      	movs	r2, r3
10002190:	0023      	movs	r3, r4
10002192:	f7ff fe35 	bl	10001e00 <add_alarm_under_lock>
10002196:	e015      	b.n	100021c4 <alarm_pool_alarm_callback+0x2c0>
10002198:	6cfb      	ldr	r3, [r7, #76]	; 0x4c
1000219a:	681a      	ldr	r2, [r3, #0]
1000219c:	2347      	movs	r3, #71	; 0x47
1000219e:	18fb      	adds	r3, r7, r3
100021a0:	781b      	ldrb	r3, [r3, #0]
100021a2:	0019      	movs	r1, r3
100021a4:	0010      	movs	r0, r2
100021a6:	f7ff fcbf 	bl	10001b28 <ph_add_to_free_list>
100021aa:	2347      	movs	r3, #71	; 0x47
100021ac:	18fb      	adds	r3, r7, r3
100021ae:	781a      	ldrb	r2, [r3, #0]
100021b0:	6cfb      	ldr	r3, [r7, #76]	; 0x4c
100021b2:	0011      	movs	r1, r2
100021b4:	0018      	movs	r0, r3
100021b6:	f7ff fdad 	bl	10001d14 <get_entry_id_high>
100021ba:	0003      	movs	r3, r0
100021bc:	781a      	ldrb	r2, [r3, #0]
100021be:	3201      	adds	r2, #1
100021c0:	b2d2      	uxtb	r2, r2
100021c2:	701a      	strb	r2, [r3, #0]
100021c4:	6cfb      	ldr	r3, [r7, #76]	; 0x4c
100021c6:	2200      	movs	r2, #0
100021c8:	611a      	str	r2, [r3, #16]
100021ca:	6cfb      	ldr	r3, [r7, #76]	; 0x4c
100021cc:	685b      	ldr	r3, [r3, #4]
100021ce:	6cba      	ldr	r2, [r7, #72]	; 0x48
100021d0:	0011      	movs	r1, r2
100021d2:	0018      	movs	r0, r3
100021d4:	f7ff fd4c 	bl	10001c70 <spin_unlock>
100021d8:	235f      	movs	r3, #95	; 0x5f
100021da:	18fb      	adds	r3, r7, r3
100021dc:	2201      	movs	r2, #1
100021de:	701a      	strb	r2, [r3, #0]
100021e0:	235f      	movs	r3, #95	; 0x5f
100021e2:	18fb      	adds	r3, r7, r3
100021e4:	781b      	ldrb	r3, [r3, #0]
100021e6:	2b00      	cmp	r3, #0
100021e8:	d000      	beq.n	100021ec <alarm_pool_alarm_callback+0x2e8>
100021ea:	e694      	b.n	10001f16 <alarm_pool_alarm_callback+0x12>
100021ec:	46c0      	nop			; (mov r8, r8)
100021ee:	46bd      	mov	sp, r7
100021f0:	b019      	add	sp, #100	; 0x64
100021f2:	bd90      	pop	{r4, r7, pc}
100021f4:	20001320 	.word	0x20001320
100021f8:	10007fc0 	.word	0x10007fc0
100021fc:	100080d0 	.word	0x100080d0
10002200:	10007f38 	.word	0x10007f38
10002204:	10007fd8 	.word	0x10007fd8
10002208:	10007fe4 	.word	0x10007fe4

1000220c <alarm_pool_create>:
1000220c:	b580      	push	{r7, lr}
1000220e:	b084      	sub	sp, #16
10002210:	af00      	add	r7, sp, #0
10002212:	6078      	str	r0, [r7, #4]
10002214:	6039      	str	r1, [r7, #0]
10002216:	687b      	ldr	r3, [r7, #4]
10002218:	0018      	movs	r0, r3
1000221a:	f000 f8e9 	bl	100023f0 <hardware_alarm_claim>
1000221e:	687b      	ldr	r3, [r7, #4]
10002220:	0018      	movs	r0, r3
10002222:	f000 fabd 	bl	100027a0 <hardware_alarm_cancel>
10002226:	4a1e      	ldr	r2, [pc, #120]	; (100022a0 <alarm_pool_create+0x94>)
10002228:	687b      	ldr	r3, [r7, #4]
1000222a:	0011      	movs	r1, r2
1000222c:	0018      	movs	r0, r3
1000222e:	f000 f999 	bl	10002564 <hardware_alarm_set_callback>
10002232:	2018      	movs	r0, #24
10002234:	f004 fbf3 	bl	10006a1e <__wrap_malloc>
10002238:	0003      	movs	r3, r0
1000223a:	60fb      	str	r3, [r7, #12]
1000223c:	f7ff f8ba 	bl	100013b4 <next_striped_spin_lock_num>
10002240:	0003      	movs	r3, r0
10002242:	0018      	movs	r0, r3
10002244:	f7ff fcd4 	bl	10001bf0 <spin_lock_instance>
10002248:	0002      	movs	r2, r0
1000224a:	68fb      	ldr	r3, [r7, #12]
1000224c:	605a      	str	r2, [r3, #4]
1000224e:	68fa      	ldr	r2, [r7, #12]
10002250:	4914      	ldr	r1, [pc, #80]	; (100022a4 <alarm_pool_create+0x98>)
10002252:	683b      	ldr	r3, [r7, #0]
10002254:	0018      	movs	r0, r3
10002256:	f000 fc80 	bl	10002b5a <ph_create>
1000225a:	0002      	movs	r2, r0
1000225c:	68fb      	ldr	r3, [r7, #12]
1000225e:	601a      	str	r2, [r3, #0]
10002260:	683b      	ldr	r3, [r7, #0]
10002262:	2110      	movs	r1, #16
10002264:	0018      	movs	r0, r3
10002266:	f004 fbf0 	bl	10006a4a <__wrap_calloc>
1000226a:	0003      	movs	r3, r0
1000226c:	001a      	movs	r2, r3
1000226e:	68fb      	ldr	r3, [r7, #12]
10002270:	609a      	str	r2, [r3, #8]
10002272:	683b      	ldr	r3, [r7, #0]
10002274:	2101      	movs	r1, #1
10002276:	0018      	movs	r0, r3
10002278:	f004 fbe7 	bl	10006a4a <__wrap_calloc>
1000227c:	0003      	movs	r3, r0
1000227e:	001a      	movs	r2, r3
10002280:	68fb      	ldr	r3, [r7, #12]
10002282:	60da      	str	r2, [r3, #12]
10002284:	687b      	ldr	r3, [r7, #4]
10002286:	b2da      	uxtb	r2, r3
10002288:	68fb      	ldr	r3, [r7, #12]
1000228a:	751a      	strb	r2, [r3, #20]
1000228c:	4b06      	ldr	r3, [pc, #24]	; (100022a8 <alarm_pool_create+0x9c>)
1000228e:	687a      	ldr	r2, [r7, #4]
10002290:	0092      	lsls	r2, r2, #2
10002292:	68f9      	ldr	r1, [r7, #12]
10002294:	50d1      	str	r1, [r2, r3]
10002296:	68fb      	ldr	r3, [r7, #12]
10002298:	0018      	movs	r0, r3
1000229a:	46bd      	mov	sp, r7
1000229c:	b004      	add	sp, #16
1000229e:	bd80      	pop	{r7, pc}
100022a0:	10001f05 	.word	0x10001f05
100022a4:	10001d65 	.word	0x10001d65
100022a8:	20001320 	.word	0x20001320

100022ac <to_us_since_boot>:
100022ac:	b590      	push	{r4, r7, lr}
100022ae:	b083      	sub	sp, #12
100022b0:	af00      	add	r7, sp, #0
100022b2:	6038      	str	r0, [r7, #0]
100022b4:	6079      	str	r1, [r7, #4]
100022b6:	683b      	ldr	r3, [r7, #0]
100022b8:	687c      	ldr	r4, [r7, #4]
100022ba:	0018      	movs	r0, r3
100022bc:	0021      	movs	r1, r4
100022be:	46bd      	mov	sp, r7
100022c0:	b003      	add	sp, #12
100022c2:	bd90      	pop	{r4, r7, pc}

100022c4 <hw_set_bits>:
100022c4:	b580      	push	{r7, lr}
100022c6:	b082      	sub	sp, #8
100022c8:	af00      	add	r7, sp, #0
100022ca:	6078      	str	r0, [r7, #4]
100022cc:	6039      	str	r1, [r7, #0]
100022ce:	687b      	ldr	r3, [r7, #4]
100022d0:	2280      	movs	r2, #128	; 0x80
100022d2:	0192      	lsls	r2, r2, #6
100022d4:	4313      	orrs	r3, r2
100022d6:	683a      	ldr	r2, [r7, #0]
100022d8:	601a      	str	r2, [r3, #0]
100022da:	46c0      	nop			; (mov r8, r8)
100022dc:	46bd      	mov	sp, r7
100022de:	b002      	add	sp, #8
100022e0:	bd80      	pop	{r7, pc}

100022e2 <check_hardware_alarm_num_param>:
100022e2:	b580      	push	{r7, lr}
100022e4:	b082      	sub	sp, #8
100022e6:	af00      	add	r7, sp, #0
100022e8:	6078      	str	r0, [r7, #4]
100022ea:	46c0      	nop			; (mov r8, r8)
100022ec:	46bd      	mov	sp, r7
100022ee:	b002      	add	sp, #8
100022f0:	bd80      	pop	{r7, pc}

100022f2 <__dmb>:
100022f2:	b580      	push	{r7, lr}
100022f4:	af00      	add	r7, sp, #0
100022f6:	f3bf 8f5f 	dmb	sy
100022fa:	46c0      	nop			; (mov r8, r8)
100022fc:	46bd      	mov	sp, r7
100022fe:	bd80      	pop	{r7, pc}

10002300 <__mem_fence_acquire>:
10002300:	b580      	push	{r7, lr}
10002302:	af00      	add	r7, sp, #0
10002304:	f7ff fff5 	bl	100022f2 <__dmb>
10002308:	46c0      	nop			; (mov r8, r8)
1000230a:	46bd      	mov	sp, r7
1000230c:	bd80      	pop	{r7, pc}

1000230e <__mem_fence_release>:
1000230e:	b580      	push	{r7, lr}
10002310:	af00      	add	r7, sp, #0
10002312:	f7ff ffee 	bl	100022f2 <__dmb>
10002316:	46c0      	nop			; (mov r8, r8)
10002318:	46bd      	mov	sp, r7
1000231a:	bd80      	pop	{r7, pc}

1000231c <save_and_disable_interrupts>:
1000231c:	b580      	push	{r7, lr}
1000231e:	b082      	sub	sp, #8
10002320:	af00      	add	r7, sp, #0
10002322:	f3ef 8310 	mrs	r3, PRIMASK
10002326:	607b      	str	r3, [r7, #4]
10002328:	b672      	cpsid	i
1000232a:	687b      	ldr	r3, [r7, #4]
1000232c:	0018      	movs	r0, r3
1000232e:	46bd      	mov	sp, r7
10002330:	b002      	add	sp, #8
10002332:	bd80      	pop	{r7, pc}

10002334 <restore_interrupts>:
10002334:	b580      	push	{r7, lr}
10002336:	b082      	sub	sp, #8
10002338:	af00      	add	r7, sp, #0
1000233a:	6078      	str	r0, [r7, #4]
1000233c:	687b      	ldr	r3, [r7, #4]
1000233e:	f383 8810 	msr	PRIMASK, r3
10002342:	46c0      	nop			; (mov r8, r8)
10002344:	46bd      	mov	sp, r7
10002346:	b002      	add	sp, #8
10002348:	bd80      	pop	{r7, pc}
	...

1000234c <spin_lock_instance>:
1000234c:	b580      	push	{r7, lr}
1000234e:	b082      	sub	sp, #8
10002350:	af00      	add	r7, sp, #0
10002352:	6078      	str	r0, [r7, #4]
10002354:	687b      	ldr	r3, [r7, #4]
10002356:	4a04      	ldr	r2, [pc, #16]	; (10002368 <spin_lock_instance+0x1c>)
10002358:	4694      	mov	ip, r2
1000235a:	4463      	add	r3, ip
1000235c:	009b      	lsls	r3, r3, #2
1000235e:	0018      	movs	r0, r3
10002360:	46bd      	mov	sp, r7
10002362:	b002      	add	sp, #8
10002364:	bd80      	pop	{r7, pc}
10002366:	46c0      	nop			; (mov r8, r8)
10002368:	34000040 	.word	0x34000040

1000236c <spin_lock_unsafe_blocking>:
1000236c:	b580      	push	{r7, lr}
1000236e:	b082      	sub	sp, #8
10002370:	af00      	add	r7, sp, #0
10002372:	6078      	str	r0, [r7, #4]
10002374:	46c0      	nop			; (mov r8, r8)
10002376:	687b      	ldr	r3, [r7, #4]
10002378:	681b      	ldr	r3, [r3, #0]
1000237a:	425a      	negs	r2, r3
1000237c:	4153      	adcs	r3, r2
1000237e:	b2db      	uxtb	r3, r3
10002380:	2b00      	cmp	r3, #0
10002382:	d1f8      	bne.n	10002376 <spin_lock_unsafe_blocking+0xa>
10002384:	f7ff ffbc 	bl	10002300 <__mem_fence_acquire>
10002388:	46c0      	nop			; (mov r8, r8)
1000238a:	46bd      	mov	sp, r7
1000238c:	b002      	add	sp, #8
1000238e:	bd80      	pop	{r7, pc}

10002390 <spin_unlock_unsafe>:
10002390:	b580      	push	{r7, lr}
10002392:	b082      	sub	sp, #8
10002394:	af00      	add	r7, sp, #0
10002396:	6078      	str	r0, [r7, #4]
10002398:	f7ff ffb9 	bl	1000230e <__mem_fence_release>
1000239c:	687b      	ldr	r3, [r7, #4]
1000239e:	2200      	movs	r2, #0
100023a0:	601a      	str	r2, [r3, #0]
100023a2:	46c0      	nop			; (mov r8, r8)
100023a4:	46bd      	mov	sp, r7
100023a6:	b002      	add	sp, #8
100023a8:	bd80      	pop	{r7, pc}

100023aa <spin_lock_blocking>:
100023aa:	b580      	push	{r7, lr}
100023ac:	b084      	sub	sp, #16
100023ae:	af00      	add	r7, sp, #0
100023b0:	6078      	str	r0, [r7, #4]
100023b2:	f7ff ffb3 	bl	1000231c <save_and_disable_interrupts>
100023b6:	0003      	movs	r3, r0
100023b8:	60fb      	str	r3, [r7, #12]
100023ba:	687b      	ldr	r3, [r7, #4]
100023bc:	0018      	movs	r0, r3
100023be:	f7ff ffd5 	bl	1000236c <spin_lock_unsafe_blocking>
100023c2:	68fb      	ldr	r3, [r7, #12]
100023c4:	0018      	movs	r0, r3
100023c6:	46bd      	mov	sp, r7
100023c8:	b004      	add	sp, #16
100023ca:	bd80      	pop	{r7, pc}

100023cc <spin_unlock>:
100023cc:	b580      	push	{r7, lr}
100023ce:	b082      	sub	sp, #8
100023d0:	af00      	add	r7, sp, #0
100023d2:	6078      	str	r0, [r7, #4]
100023d4:	6039      	str	r1, [r7, #0]
100023d6:	687b      	ldr	r3, [r7, #4]
100023d8:	0018      	movs	r0, r3
100023da:	f7ff ffd9 	bl	10002390 <spin_unlock_unsafe>
100023de:	683b      	ldr	r3, [r7, #0]
100023e0:	0018      	movs	r0, r3
100023e2:	f7ff ffa7 	bl	10002334 <restore_interrupts>
100023e6:	46c0      	nop			; (mov r8, r8)
100023e8:	46bd      	mov	sp, r7
100023ea:	b002      	add	sp, #8
100023ec:	bd80      	pop	{r7, pc}
	...

100023f0 <hardware_alarm_claim>:
100023f0:	b580      	push	{r7, lr}
100023f2:	b082      	sub	sp, #8
100023f4:	af00      	add	r7, sp, #0
100023f6:	6078      	str	r0, [r7, #4]
100023f8:	687b      	ldr	r3, [r7, #4]
100023fa:	0018      	movs	r0, r3
100023fc:	f7ff ff71 	bl	100022e2 <check_hardware_alarm_num_param>
10002400:	4a04      	ldr	r2, [pc, #16]	; (10002414 <hardware_alarm_claim+0x24>)
10002402:	6879      	ldr	r1, [r7, #4]
10002404:	4b04      	ldr	r3, [pc, #16]	; (10002418 <hardware_alarm_claim+0x28>)
10002406:	0018      	movs	r0, r3
10002408:	f7fe ff57 	bl	100012ba <hw_claim_or_assert>
1000240c:	46c0      	nop			; (mov r8, r8)
1000240e:	46bd      	mov	sp, r7
10002410:	b002      	add	sp, #8
10002412:	bd80      	pop	{r7, pc}
10002414:	10008114 	.word	0x10008114
10002418:	20001944 	.word	0x20001944

1000241c <time_us_64>:
1000241c:	b5f0      	push	{r4, r5, r6, r7, lr}
1000241e:	b087      	sub	sp, #28
10002420:	af00      	add	r7, sp, #0
10002422:	4815      	ldr	r0, [pc, #84]	; (10002478 <time_us_64+0x5c>)
10002424:	6a40      	ldr	r0, [r0, #36]	; 0x24
10002426:	6178      	str	r0, [r7, #20]
10002428:	4813      	ldr	r0, [pc, #76]	; (10002478 <time_us_64+0x5c>)
1000242a:	6a80      	ldr	r0, [r0, #40]	; 0x28
1000242c:	6138      	str	r0, [r7, #16]
1000242e:	4812      	ldr	r0, [pc, #72]	; (10002478 <time_us_64+0x5c>)
10002430:	6a40      	ldr	r0, [r0, #36]	; 0x24
10002432:	60f8      	str	r0, [r7, #12]
10002434:	6978      	ldr	r0, [r7, #20]
10002436:	4684      	mov	ip, r0
10002438:	68f8      	ldr	r0, [r7, #12]
1000243a:	4584      	cmp	ip, r0
1000243c:	d002      	beq.n	10002444 <time_us_64+0x28>
1000243e:	68f8      	ldr	r0, [r7, #12]
10002440:	6178      	str	r0, [r7, #20]
10002442:	e7f1      	b.n	10002428 <time_us_64+0xc>
10002444:	46c0      	nop			; (mov r8, r8)
10002446:	6978      	ldr	r0, [r7, #20]
10002448:	6038      	str	r0, [r7, #0]
1000244a:	2000      	movs	r0, #0
1000244c:	6078      	str	r0, [r7, #4]
1000244e:	6838      	ldr	r0, [r7, #0]
10002450:	0004      	movs	r4, r0
10002452:	2000      	movs	r0, #0
10002454:	0003      	movs	r3, r0
10002456:	6938      	ldr	r0, [r7, #16]
10002458:	0001      	movs	r1, r0
1000245a:	2000      	movs	r0, #0
1000245c:	0002      	movs	r2, r0
1000245e:	0018      	movs	r0, r3
10002460:	4308      	orrs	r0, r1
10002462:	0005      	movs	r5, r0
10002464:	0023      	movs	r3, r4
10002466:	4313      	orrs	r3, r2
10002468:	001e      	movs	r6, r3
1000246a:	002b      	movs	r3, r5
1000246c:	0034      	movs	r4, r6
1000246e:	0018      	movs	r0, r3
10002470:	0021      	movs	r1, r4
10002472:	46bd      	mov	sp, r7
10002474:	b007      	add	sp, #28
10002476:	bdf0      	pop	{r4, r5, r6, r7, pc}
10002478:	40054000 	.word	0x40054000

1000247c <harware_alarm_irq_number>:
1000247c:	b580      	push	{r7, lr}
1000247e:	b082      	sub	sp, #8
10002480:	af00      	add	r7, sp, #0
10002482:	6078      	str	r0, [r7, #4]
10002484:	687b      	ldr	r3, [r7, #4]
10002486:	0018      	movs	r0, r3
10002488:	46bd      	mov	sp, r7
1000248a:	b002      	add	sp, #8
1000248c:	bd80      	pop	{r7, pc}
	...

10002490 <hardware_alarm_irq_handler>:
10002490:	b580      	push	{r7, lr}
10002492:	b086      	sub	sp, #24
10002494:	af00      	add	r7, sp, #0
10002496:	f3ef 8305 	mrs	r3, IPSR
1000249a:	613b      	str	r3, [r7, #16]
1000249c:	693b      	ldr	r3, [r7, #16]
1000249e:	223f      	movs	r2, #63	; 0x3f
100024a0:	4013      	ands	r3, r2
100024a2:	3b10      	subs	r3, #16
100024a4:	60fb      	str	r3, [r7, #12]
100024a6:	68fb      	ldr	r3, [r7, #12]
100024a8:	0018      	movs	r0, r3
100024aa:	f7ff ff1a 	bl	100022e2 <check_hardware_alarm_num_param>
100024ae:	2300      	movs	r3, #0
100024b0:	617b      	str	r3, [r7, #20]
100024b2:	200a      	movs	r0, #10
100024b4:	f7ff ff4a 	bl	1000234c <spin_lock_instance>
100024b8:	0003      	movs	r3, r0
100024ba:	60bb      	str	r3, [r7, #8]
100024bc:	68bb      	ldr	r3, [r7, #8]
100024be:	0018      	movs	r0, r3
100024c0:	f7ff ff73 	bl	100023aa <spin_lock_blocking>
100024c4:	0003      	movs	r3, r0
100024c6:	607b      	str	r3, [r7, #4]
100024c8:	4b22      	ldr	r3, [pc, #136]	; (10002554 <hardware_alarm_irq_handler+0xc4>)
100024ca:	2101      	movs	r1, #1
100024cc:	68fa      	ldr	r2, [r7, #12]
100024ce:	4091      	lsls	r1, r2
100024d0:	000a      	movs	r2, r1
100024d2:	635a      	str	r2, [r3, #52]	; 0x34
100024d4:	4b20      	ldr	r3, [pc, #128]	; (10002558 <hardware_alarm_irq_handler+0xc8>)
100024d6:	781b      	ldrb	r3, [r3, #0]
100024d8:	001a      	movs	r2, r3
100024da:	68fb      	ldr	r3, [r7, #12]
100024dc:	40da      	lsrs	r2, r3
100024de:	0013      	movs	r3, r2
100024e0:	2201      	movs	r2, #1
100024e2:	4013      	ands	r3, r2
100024e4:	d024      	beq.n	10002530 <hardware_alarm_irq_handler+0xa0>
100024e6:	4b1b      	ldr	r3, [pc, #108]	; (10002554 <hardware_alarm_irq_handler+0xc4>)
100024e8:	6a5a      	ldr	r2, [r3, #36]	; 0x24
100024ea:	4b1c      	ldr	r3, [pc, #112]	; (1000255c <hardware_alarm_irq_handler+0xcc>)
100024ec:	68f9      	ldr	r1, [r7, #12]
100024ee:	0089      	lsls	r1, r1, #2
100024f0:	58cb      	ldr	r3, [r1, r3]
100024f2:	429a      	cmp	r2, r3
100024f4:	d312      	bcc.n	1000251c <hardware_alarm_irq_handler+0x8c>
100024f6:	4b1a      	ldr	r3, [pc, #104]	; (10002560 <hardware_alarm_irq_handler+0xd0>)
100024f8:	68fa      	ldr	r2, [r7, #12]
100024fa:	0092      	lsls	r2, r2, #2
100024fc:	58d3      	ldr	r3, [r2, r3]
100024fe:	617b      	str	r3, [r7, #20]
10002500:	2201      	movs	r2, #1
10002502:	68fb      	ldr	r3, [r7, #12]
10002504:	409a      	lsls	r2, r3
10002506:	0013      	movs	r3, r2
10002508:	b2db      	uxtb	r3, r3
1000250a:	43db      	mvns	r3, r3
1000250c:	b2db      	uxtb	r3, r3
1000250e:	4a12      	ldr	r2, [pc, #72]	; (10002558 <hardware_alarm_irq_handler+0xc8>)
10002510:	7812      	ldrb	r2, [r2, #0]
10002512:	4013      	ands	r3, r2
10002514:	b2da      	uxtb	r2, r3
10002516:	4b10      	ldr	r3, [pc, #64]	; (10002558 <hardware_alarm_irq_handler+0xc8>)
10002518:	701a      	strb	r2, [r3, #0]
1000251a:	e009      	b.n	10002530 <hardware_alarm_irq_handler+0xa0>
1000251c:	490d      	ldr	r1, [pc, #52]	; (10002554 <hardware_alarm_irq_handler+0xc4>)
1000251e:	4a0d      	ldr	r2, [pc, #52]	; (10002554 <hardware_alarm_irq_handler+0xc4>)
10002520:	68fb      	ldr	r3, [r7, #12]
10002522:	3304      	adds	r3, #4
10002524:	009b      	lsls	r3, r3, #2
10002526:	589a      	ldr	r2, [r3, r2]
10002528:	68fb      	ldr	r3, [r7, #12]
1000252a:	3304      	adds	r3, #4
1000252c:	009b      	lsls	r3, r3, #2
1000252e:	505a      	str	r2, [r3, r1]
10002530:	687a      	ldr	r2, [r7, #4]
10002532:	68bb      	ldr	r3, [r7, #8]
10002534:	0011      	movs	r1, r2
10002536:	0018      	movs	r0, r3
10002538:	f7ff ff48 	bl	100023cc <spin_unlock>
1000253c:	697b      	ldr	r3, [r7, #20]
1000253e:	2b00      	cmp	r3, #0
10002540:	d003      	beq.n	1000254a <hardware_alarm_irq_handler+0xba>
10002542:	68fa      	ldr	r2, [r7, #12]
10002544:	697b      	ldr	r3, [r7, #20]
10002546:	0010      	movs	r0, r2
10002548:	4798      	blx	r3
1000254a:	46c0      	nop			; (mov r8, r8)
1000254c:	46bd      	mov	sp, r7
1000254e:	b006      	add	sp, #24
10002550:	bd80      	pop	{r7, pc}
10002552:	46c0      	nop			; (mov r8, r8)
10002554:	40054000 	.word	0x40054000
10002558:	20001947 	.word	0x20001947
1000255c:	20001930 	.word	0x20001930
10002560:	20000bb8 	.word	0x20000bb8

10002564 <hardware_alarm_set_callback>:
10002564:	b580      	push	{r7, lr}
10002566:	b086      	sub	sp, #24
10002568:	af00      	add	r7, sp, #0
1000256a:	6078      	str	r0, [r7, #4]
1000256c:	6039      	str	r1, [r7, #0]
1000256e:	687b      	ldr	r3, [r7, #4]
10002570:	0018      	movs	r0, r3
10002572:	f7ff feb6 	bl	100022e2 <check_hardware_alarm_num_param>
10002576:	687b      	ldr	r3, [r7, #4]
10002578:	0018      	movs	r0, r3
1000257a:	f7ff ff7f 	bl	1000247c <harware_alarm_irq_number>
1000257e:	0003      	movs	r3, r0
10002580:	617b      	str	r3, [r7, #20]
10002582:	200a      	movs	r0, #10
10002584:	f7ff fee2 	bl	1000234c <spin_lock_instance>
10002588:	0003      	movs	r3, r0
1000258a:	613b      	str	r3, [r7, #16]
1000258c:	693b      	ldr	r3, [r7, #16]
1000258e:	0018      	movs	r0, r3
10002590:	f7ff ff0b 	bl	100023aa <spin_lock_blocking>
10002594:	0003      	movs	r3, r0
10002596:	60fb      	str	r3, [r7, #12]
10002598:	683b      	ldr	r3, [r7, #0]
1000259a:	2b00      	cmp	r3, #0
1000259c:	d021      	beq.n	100025e2 <hardware_alarm_set_callback+0x7e>
1000259e:	697b      	ldr	r3, [r7, #20]
100025a0:	0018      	movs	r0, r3
100025a2:	f001 fa75 	bl	10003a90 <irq_get_vtable_handler>
100025a6:	0002      	movs	r2, r0
100025a8:	4b21      	ldr	r3, [pc, #132]	; (10002630 <hardware_alarm_set_callback+0xcc>)
100025aa:	429a      	cmp	r2, r3
100025ac:	d013      	beq.n	100025d6 <hardware_alarm_set_callback+0x72>
100025ae:	4a20      	ldr	r2, [pc, #128]	; (10002630 <hardware_alarm_set_callback+0xcc>)
100025b0:	697b      	ldr	r3, [r7, #20]
100025b2:	0011      	movs	r1, r2
100025b4:	0018      	movs	r0, r3
100025b6:	f001 fa7f 	bl	10003ab8 <irq_set_exclusive_handler>
100025ba:	697b      	ldr	r3, [r7, #20]
100025bc:	2101      	movs	r1, #1
100025be:	0018      	movs	r0, r3
100025c0:	f001 fa04 	bl	100039cc <irq_set_enabled>
100025c4:	2201      	movs	r2, #1
100025c6:	687b      	ldr	r3, [r7, #4]
100025c8:	409a      	lsls	r2, r3
100025ca:	0013      	movs	r3, r2
100025cc:	4a19      	ldr	r2, [pc, #100]	; (10002634 <hardware_alarm_set_callback+0xd0>)
100025ce:	0019      	movs	r1, r3
100025d0:	0010      	movs	r0, r2
100025d2:	f7ff fe77 	bl	100022c4 <hw_set_bits>
100025d6:	4b18      	ldr	r3, [pc, #96]	; (10002638 <hardware_alarm_set_callback+0xd4>)
100025d8:	687a      	ldr	r2, [r7, #4]
100025da:	0092      	lsls	r2, r2, #2
100025dc:	6839      	ldr	r1, [r7, #0]
100025de:	50d1      	str	r1, [r2, r3]
100025e0:	e01c      	b.n	1000261c <hardware_alarm_set_callback+0xb8>
100025e2:	4b15      	ldr	r3, [pc, #84]	; (10002638 <hardware_alarm_set_callback+0xd4>)
100025e4:	687a      	ldr	r2, [r7, #4]
100025e6:	0092      	lsls	r2, r2, #2
100025e8:	2100      	movs	r1, #0
100025ea:	50d1      	str	r1, [r2, r3]
100025ec:	2201      	movs	r2, #1
100025ee:	687b      	ldr	r3, [r7, #4]
100025f0:	409a      	lsls	r2, r3
100025f2:	0013      	movs	r3, r2
100025f4:	b2db      	uxtb	r3, r3
100025f6:	43db      	mvns	r3, r3
100025f8:	b2db      	uxtb	r3, r3
100025fa:	4a10      	ldr	r2, [pc, #64]	; (1000263c <hardware_alarm_set_callback+0xd8>)
100025fc:	7812      	ldrb	r2, [r2, #0]
100025fe:	4013      	ands	r3, r2
10002600:	b2da      	uxtb	r2, r3
10002602:	4b0e      	ldr	r3, [pc, #56]	; (1000263c <hardware_alarm_set_callback+0xd8>)
10002604:	701a      	strb	r2, [r3, #0]
10002606:	4a0a      	ldr	r2, [pc, #40]	; (10002630 <hardware_alarm_set_callback+0xcc>)
10002608:	697b      	ldr	r3, [r7, #20]
1000260a:	0011      	movs	r1, r2
1000260c:	0018      	movs	r0, r3
1000260e:	f001 fb21 	bl	10003c54 <irq_remove_handler>
10002612:	697b      	ldr	r3, [r7, #20]
10002614:	2100      	movs	r1, #0
10002616:	0018      	movs	r0, r3
10002618:	f001 f9d8 	bl	100039cc <irq_set_enabled>
1000261c:	68fa      	ldr	r2, [r7, #12]
1000261e:	693b      	ldr	r3, [r7, #16]
10002620:	0011      	movs	r1, r2
10002622:	0018      	movs	r0, r3
10002624:	f7ff fed2 	bl	100023cc <spin_unlock>
10002628:	46c0      	nop			; (mov r8, r8)
1000262a:	46bd      	mov	sp, r7
1000262c:	b006      	add	sp, #24
1000262e:	bd80      	pop	{r7, pc}
10002630:	10002491 	.word	0x10002491
10002634:	40054038 	.word	0x40054038
10002638:	20000bb8 	.word	0x20000bb8
1000263c:	20001947 	.word	0x20001947

10002640 <hardware_alarm_set_target>:
10002640:	b5f0      	push	{r4, r5, r6, r7, lr}
10002642:	b08d      	sub	sp, #52	; 0x34
10002644:	af00      	add	r7, sp, #0
10002646:	60f8      	str	r0, [r7, #12]
10002648:	603a      	str	r2, [r7, #0]
1000264a:	607b      	str	r3, [r7, #4]
1000264c:	f7ff fee6 	bl	1000241c <time_us_64>
10002650:	0003      	movs	r3, r0
10002652:	000c      	movs	r4, r1
10002654:	623b      	str	r3, [r7, #32]
10002656:	627c      	str	r4, [r7, #36]	; 0x24
10002658:	683b      	ldr	r3, [r7, #0]
1000265a:	687c      	ldr	r4, [r7, #4]
1000265c:	0018      	movs	r0, r3
1000265e:	0021      	movs	r1, r4
10002660:	f7ff fe24 	bl	100022ac <to_us_since_boot>
10002664:	0003      	movs	r3, r0
10002666:	000c      	movs	r4, r1
10002668:	61bb      	str	r3, [r7, #24]
1000266a:	61fc      	str	r4, [r7, #28]
1000266c:	69fa      	ldr	r2, [r7, #28]
1000266e:	6a7b      	ldr	r3, [r7, #36]	; 0x24
10002670:	429a      	cmp	r2, r3
10002672:	d80c      	bhi.n	1000268e <hardware_alarm_set_target+0x4e>
10002674:	69fa      	ldr	r2, [r7, #28]
10002676:	6a7b      	ldr	r3, [r7, #36]	; 0x24
10002678:	429a      	cmp	r2, r3
1000267a:	d103      	bne.n	10002684 <hardware_alarm_set_target+0x44>
1000267c:	69ba      	ldr	r2, [r7, #24]
1000267e:	6a3b      	ldr	r3, [r7, #32]
10002680:	429a      	cmp	r2, r3
10002682:	d804      	bhi.n	1000268e <hardware_alarm_set_target+0x4e>
10002684:	232f      	movs	r3, #47	; 0x2f
10002686:	18fb      	adds	r3, r7, r3
10002688:	2201      	movs	r2, #1
1000268a:	701a      	strb	r2, [r3, #0]
1000268c:	e074      	b.n	10002778 <hardware_alarm_set_target+0x138>
1000268e:	232f      	movs	r3, #47	; 0x2f
10002690:	18fb      	adds	r3, r7, r3
10002692:	2200      	movs	r2, #0
10002694:	701a      	strb	r2, [r3, #0]
10002696:	200a      	movs	r0, #10
10002698:	f7ff fe58 	bl	1000234c <spin_lock_instance>
1000269c:	0003      	movs	r3, r0
1000269e:	617b      	str	r3, [r7, #20]
100026a0:	697b      	ldr	r3, [r7, #20]
100026a2:	0018      	movs	r0, r3
100026a4:	f7ff fe81 	bl	100023aa <spin_lock_blocking>
100026a8:	0003      	movs	r3, r0
100026aa:	613b      	str	r3, [r7, #16]
100026ac:	4b36      	ldr	r3, [pc, #216]	; (10002788 <hardware_alarm_set_target+0x148>)
100026ae:	2101      	movs	r1, #1
100026b0:	68fa      	ldr	r2, [r7, #12]
100026b2:	4091      	lsls	r1, r2
100026b4:	000a      	movs	r2, r1
100026b6:	635a      	str	r2, [r3, #52]	; 0x34
100026b8:	2201      	movs	r2, #1
100026ba:	68fb      	ldr	r3, [r7, #12]
100026bc:	409a      	lsls	r2, r3
100026be:	0013      	movs	r3, r2
100026c0:	b2da      	uxtb	r2, r3
100026c2:	4b32      	ldr	r3, [pc, #200]	; (1000278c <hardware_alarm_set_target+0x14c>)
100026c4:	781b      	ldrb	r3, [r3, #0]
100026c6:	4313      	orrs	r3, r2
100026c8:	b2da      	uxtb	r2, r3
100026ca:	4b30      	ldr	r3, [pc, #192]	; (1000278c <hardware_alarm_set_target+0x14c>)
100026cc:	701a      	strb	r2, [r3, #0]
100026ce:	492e      	ldr	r1, [pc, #184]	; (10002788 <hardware_alarm_set_target+0x148>)
100026d0:	69ba      	ldr	r2, [r7, #24]
100026d2:	68fb      	ldr	r3, [r7, #12]
100026d4:	3304      	adds	r3, #4
100026d6:	009b      	lsls	r3, r3, #2
100026d8:	505a      	str	r2, [r3, r1]
100026da:	69fb      	ldr	r3, [r7, #28]
100026dc:	001d      	movs	r5, r3
100026de:	2300      	movs	r3, #0
100026e0:	001e      	movs	r6, r3
100026e2:	0029      	movs	r1, r5
100026e4:	4b2a      	ldr	r3, [pc, #168]	; (10002790 <hardware_alarm_set_target+0x150>)
100026e6:	68fa      	ldr	r2, [r7, #12]
100026e8:	0092      	lsls	r2, r2, #2
100026ea:	50d1      	str	r1, [r2, r3]
100026ec:	4b26      	ldr	r3, [pc, #152]	; (10002788 <hardware_alarm_set_target+0x148>)
100026ee:	6a1b      	ldr	r3, [r3, #32]
100026f0:	2101      	movs	r1, #1
100026f2:	68fa      	ldr	r2, [r7, #12]
100026f4:	4091      	lsls	r1, r2
100026f6:	000a      	movs	r2, r1
100026f8:	4013      	ands	r3, r2
100026fa:	d10d      	bne.n	10002718 <hardware_alarm_set_target+0xd8>
100026fc:	4b22      	ldr	r3, [pc, #136]	; (10002788 <hardware_alarm_set_target+0x148>)
100026fe:	6c1b      	ldr	r3, [r3, #64]	; 0x40
10002700:	2101      	movs	r1, #1
10002702:	68fa      	ldr	r2, [r7, #12]
10002704:	4091      	lsls	r1, r2
10002706:	000a      	movs	r2, r1
10002708:	4013      	ands	r3, r2
1000270a:	d12f      	bne.n	1000276c <hardware_alarm_set_target+0x12c>
1000270c:	4b21      	ldr	r3, [pc, #132]	; (10002794 <hardware_alarm_set_target+0x154>)
1000270e:	4a22      	ldr	r2, [pc, #136]	; (10002798 <hardware_alarm_set_target+0x158>)
10002710:	4822      	ldr	r0, [pc, #136]	; (1000279c <hardware_alarm_set_target+0x15c>)
10002712:	21b2      	movs	r1, #178	; 0xb2
10002714:	f000 fd56 	bl	100031c4 <__assert_func>
10002718:	f7ff fe80 	bl	1000241c <time_us_64>
1000271c:	0003      	movs	r3, r0
1000271e:	000c      	movs	r4, r1
10002720:	69fa      	ldr	r2, [r7, #28]
10002722:	42a2      	cmp	r2, r4
10002724:	d822      	bhi.n	1000276c <hardware_alarm_set_target+0x12c>
10002726:	69fa      	ldr	r2, [r7, #28]
10002728:	42a2      	cmp	r2, r4
1000272a:	d102      	bne.n	10002732 <hardware_alarm_set_target+0xf2>
1000272c:	69ba      	ldr	r2, [r7, #24]
1000272e:	429a      	cmp	r2, r3
10002730:	d81c      	bhi.n	1000276c <hardware_alarm_set_target+0x12c>
10002732:	232f      	movs	r3, #47	; 0x2f
10002734:	18fb      	adds	r3, r7, r3
10002736:	2201      	movs	r2, #1
10002738:	701a      	strb	r2, [r3, #0]
1000273a:	4b13      	ldr	r3, [pc, #76]	; (10002788 <hardware_alarm_set_target+0x148>)
1000273c:	2101      	movs	r1, #1
1000273e:	68fa      	ldr	r2, [r7, #12]
10002740:	4091      	lsls	r1, r2
10002742:	000a      	movs	r2, r1
10002744:	621a      	str	r2, [r3, #32]
10002746:	4b10      	ldr	r3, [pc, #64]	; (10002788 <hardware_alarm_set_target+0x148>)
10002748:	2101      	movs	r1, #1
1000274a:	68fa      	ldr	r2, [r7, #12]
1000274c:	4091      	lsls	r1, r2
1000274e:	000a      	movs	r2, r1
10002750:	635a      	str	r2, [r3, #52]	; 0x34
10002752:	2201      	movs	r2, #1
10002754:	68fb      	ldr	r3, [r7, #12]
10002756:	409a      	lsls	r2, r3
10002758:	0013      	movs	r3, r2
1000275a:	b2db      	uxtb	r3, r3
1000275c:	43db      	mvns	r3, r3
1000275e:	b2db      	uxtb	r3, r3
10002760:	4a0a      	ldr	r2, [pc, #40]	; (1000278c <hardware_alarm_set_target+0x14c>)
10002762:	7812      	ldrb	r2, [r2, #0]
10002764:	4013      	ands	r3, r2
10002766:	b2da      	uxtb	r2, r3
10002768:	4b08      	ldr	r3, [pc, #32]	; (1000278c <hardware_alarm_set_target+0x14c>)
1000276a:	701a      	strb	r2, [r3, #0]
1000276c:	693a      	ldr	r2, [r7, #16]
1000276e:	697b      	ldr	r3, [r7, #20]
10002770:	0011      	movs	r1, r2
10002772:	0018      	movs	r0, r3
10002774:	f7ff fe2a 	bl	100023cc <spin_unlock>
10002778:	232f      	movs	r3, #47	; 0x2f
1000277a:	18fb      	adds	r3, r7, r3
1000277c:	781b      	ldrb	r3, [r3, #0]
1000277e:	0018      	movs	r0, r3
10002780:	46bd      	mov	sp, r7
10002782:	b00d      	add	sp, #52	; 0x34
10002784:	bdf0      	pop	{r4, r5, r6, r7, pc}
10002786:	46c0      	nop			; (mov r8, r8)
10002788:	40054000 	.word	0x40054000
1000278c:	20001947 	.word	0x20001947
10002790:	20001930 	.word	0x20001930
10002794:	10008138 	.word	0x10008138
10002798:	100081a8 	.word	0x100081a8
1000279c:	1000815c 	.word	0x1000815c

100027a0 <hardware_alarm_cancel>:
100027a0:	b580      	push	{r7, lr}
100027a2:	b084      	sub	sp, #16
100027a4:	af00      	add	r7, sp, #0
100027a6:	6078      	str	r0, [r7, #4]
100027a8:	687b      	ldr	r3, [r7, #4]
100027aa:	0018      	movs	r0, r3
100027ac:	f7ff fd99 	bl	100022e2 <check_hardware_alarm_num_param>
100027b0:	200a      	movs	r0, #10
100027b2:	f7ff fdcb 	bl	1000234c <spin_lock_instance>
100027b6:	0003      	movs	r3, r0
100027b8:	60fb      	str	r3, [r7, #12]
100027ba:	68fb      	ldr	r3, [r7, #12]
100027bc:	0018      	movs	r0, r3
100027be:	f7ff fdf4 	bl	100023aa <spin_lock_blocking>
100027c2:	0003      	movs	r3, r0
100027c4:	60bb      	str	r3, [r7, #8]
100027c6:	4b0e      	ldr	r3, [pc, #56]	; (10002800 <hardware_alarm_cancel+0x60>)
100027c8:	2101      	movs	r1, #1
100027ca:	687a      	ldr	r2, [r7, #4]
100027cc:	4091      	lsls	r1, r2
100027ce:	000a      	movs	r2, r1
100027d0:	621a      	str	r2, [r3, #32]
100027d2:	2201      	movs	r2, #1
100027d4:	687b      	ldr	r3, [r7, #4]
100027d6:	409a      	lsls	r2, r3
100027d8:	0013      	movs	r3, r2
100027da:	b2db      	uxtb	r3, r3
100027dc:	43db      	mvns	r3, r3
100027de:	b2db      	uxtb	r3, r3
100027e0:	4a08      	ldr	r2, [pc, #32]	; (10002804 <hardware_alarm_cancel+0x64>)
100027e2:	7812      	ldrb	r2, [r2, #0]
100027e4:	4013      	ands	r3, r2
100027e6:	b2da      	uxtb	r2, r3
100027e8:	4b06      	ldr	r3, [pc, #24]	; (10002804 <hardware_alarm_cancel+0x64>)
100027ea:	701a      	strb	r2, [r3, #0]
100027ec:	68ba      	ldr	r2, [r7, #8]
100027ee:	68fb      	ldr	r3, [r7, #12]
100027f0:	0011      	movs	r1, r2
100027f2:	0018      	movs	r0, r3
100027f4:	f7ff fdea 	bl	100023cc <spin_unlock>
100027f8:	46c0      	nop			; (mov r8, r8)
100027fa:	46bd      	mov	sp, r7
100027fc:	b004      	add	sp, #16
100027fe:	bd80      	pop	{r7, pc}
10002800:	40054000 	.word	0x40054000
10002804:	20001947 	.word	0x20001947

10002808 <spin_lock_instance>:
10002808:	b580      	push	{r7, lr}
1000280a:	b082      	sub	sp, #8
1000280c:	af00      	add	r7, sp, #0
1000280e:	6078      	str	r0, [r7, #4]
10002810:	687b      	ldr	r3, [r7, #4]
10002812:	4a04      	ldr	r2, [pc, #16]	; (10002824 <spin_lock_instance+0x1c>)
10002814:	4694      	mov	ip, r2
10002816:	4463      	add	r3, ip
10002818:	009b      	lsls	r3, r3, #2
1000281a:	0018      	movs	r0, r3
1000281c:	46bd      	mov	sp, r7
1000281e:	b002      	add	sp, #8
10002820:	bd80      	pop	{r7, pc}
10002822:	46c0      	nop			; (mov r8, r8)
10002824:	34000040 	.word	0x34000040

10002828 <lock_init>:
10002828:	b580      	push	{r7, lr}
1000282a:	b082      	sub	sp, #8
1000282c:	af00      	add	r7, sp, #0
1000282e:	6078      	str	r0, [r7, #4]
10002830:	6039      	str	r1, [r7, #0]
10002832:	683b      	ldr	r3, [r7, #0]
10002834:	2b1f      	cmp	r3, #31
10002836:	d905      	bls.n	10002844 <lock_init+0x1c>
10002838:	4b08      	ldr	r3, [pc, #32]	; (1000285c <lock_init+0x34>)
1000283a:	4a09      	ldr	r2, [pc, #36]	; (10002860 <lock_init+0x38>)
1000283c:	4809      	ldr	r0, [pc, #36]	; (10002864 <lock_init+0x3c>)
1000283e:	210a      	movs	r1, #10
10002840:	f000 fcc0 	bl	100031c4 <__assert_func>
10002844:	683b      	ldr	r3, [r7, #0]
10002846:	0018      	movs	r0, r3
10002848:	f7ff ffde 	bl	10002808 <spin_lock_instance>
1000284c:	0002      	movs	r2, r0
1000284e:	687b      	ldr	r3, [r7, #4]
10002850:	601a      	str	r2, [r3, #0]
10002852:	46c0      	nop			; (mov r8, r8)
10002854:	46bd      	mov	sp, r7
10002856:	b002      	add	sp, #8
10002858:	bd80      	pop	{r7, pc}
1000285a:	46c0      	nop			; (mov r8, r8)
1000285c:	100081c4 	.word	0x100081c4
10002860:	10008234 	.word	0x10008234
10002864:	100081f0 	.word	0x100081f0

10002868 <__sev>:
10002868:	b580      	push	{r7, lr}
1000286a:	af00      	add	r7, sp, #0
1000286c:	bf40      	sev
1000286e:	46c0      	nop			; (mov r8, r8)
10002870:	46bd      	mov	sp, r7
10002872:	bd80      	pop	{r7, pc}

10002874 <__wfe>:
10002874:	b580      	push	{r7, lr}
10002876:	af00      	add	r7, sp, #0
10002878:	bf20      	wfe
1000287a:	46c0      	nop			; (mov r8, r8)
1000287c:	46bd      	mov	sp, r7
1000287e:	bd80      	pop	{r7, pc}

10002880 <__dmb>:
10002880:	b580      	push	{r7, lr}
10002882:	af00      	add	r7, sp, #0
10002884:	f3bf 8f5f 	dmb	sy
10002888:	46c0      	nop			; (mov r8, r8)
1000288a:	46bd      	mov	sp, r7
1000288c:	bd80      	pop	{r7, pc}

1000288e <__mem_fence_acquire>:
1000288e:	b580      	push	{r7, lr}
10002890:	af00      	add	r7, sp, #0
10002892:	f7ff fff5 	bl	10002880 <__dmb>
10002896:	46c0      	nop			; (mov r8, r8)
10002898:	46bd      	mov	sp, r7
1000289a:	bd80      	pop	{r7, pc}

1000289c <__mem_fence_release>:
1000289c:	b580      	push	{r7, lr}
1000289e:	af00      	add	r7, sp, #0
100028a0:	f7ff ffee 	bl	10002880 <__dmb>
100028a4:	46c0      	nop			; (mov r8, r8)
100028a6:	46bd      	mov	sp, r7
100028a8:	bd80      	pop	{r7, pc}

100028aa <save_and_disable_interrupts>:
100028aa:	b580      	push	{r7, lr}
100028ac:	b082      	sub	sp, #8
100028ae:	af00      	add	r7, sp, #0
100028b0:	f3ef 8310 	mrs	r3, PRIMASK
100028b4:	607b      	str	r3, [r7, #4]
100028b6:	b672      	cpsid	i
100028b8:	687b      	ldr	r3, [r7, #4]
100028ba:	0018      	movs	r0, r3
100028bc:	46bd      	mov	sp, r7
100028be:	b002      	add	sp, #8
100028c0:	bd80      	pop	{r7, pc}

100028c2 <restore_interrupts>:
100028c2:	b580      	push	{r7, lr}
100028c4:	b082      	sub	sp, #8
100028c6:	af00      	add	r7, sp, #0
100028c8:	6078      	str	r0, [r7, #4]
100028ca:	687b      	ldr	r3, [r7, #4]
100028cc:	f383 8810 	msr	PRIMASK, r3
100028d0:	46c0      	nop			; (mov r8, r8)
100028d2:	46bd      	mov	sp, r7
100028d4:	b002      	add	sp, #8
100028d6:	bd80      	pop	{r7, pc}

100028d8 <spin_lock_unsafe_blocking>:
100028d8:	b580      	push	{r7, lr}
100028da:	b082      	sub	sp, #8
100028dc:	af00      	add	r7, sp, #0
100028de:	6078      	str	r0, [r7, #4]
100028e0:	46c0      	nop			; (mov r8, r8)
100028e2:	687b      	ldr	r3, [r7, #4]
100028e4:	681b      	ldr	r3, [r3, #0]
100028e6:	425a      	negs	r2, r3
100028e8:	4153      	adcs	r3, r2
100028ea:	b2db      	uxtb	r3, r3
100028ec:	2b00      	cmp	r3, #0
100028ee:	d1f8      	bne.n	100028e2 <spin_lock_unsafe_blocking+0xa>
100028f0:	f7ff ffcd 	bl	1000288e <__mem_fence_acquire>
100028f4:	46c0      	nop			; (mov r8, r8)
100028f6:	46bd      	mov	sp, r7
100028f8:	b002      	add	sp, #8
100028fa:	bd80      	pop	{r7, pc}

100028fc <spin_unlock_unsafe>:
100028fc:	b580      	push	{r7, lr}
100028fe:	b082      	sub	sp, #8
10002900:	af00      	add	r7, sp, #0
10002902:	6078      	str	r0, [r7, #4]
10002904:	f7ff ffca 	bl	1000289c <__mem_fence_release>
10002908:	687b      	ldr	r3, [r7, #4]
1000290a:	2200      	movs	r2, #0
1000290c:	601a      	str	r2, [r3, #0]
1000290e:	46c0      	nop			; (mov r8, r8)
10002910:	46bd      	mov	sp, r7
10002912:	b002      	add	sp, #8
10002914:	bd80      	pop	{r7, pc}

10002916 <spin_lock_blocking>:
10002916:	b580      	push	{r7, lr}
10002918:	b084      	sub	sp, #16
1000291a:	af00      	add	r7, sp, #0
1000291c:	6078      	str	r0, [r7, #4]
1000291e:	f7ff ffc4 	bl	100028aa <save_and_disable_interrupts>
10002922:	0003      	movs	r3, r0
10002924:	60fb      	str	r3, [r7, #12]
10002926:	687b      	ldr	r3, [r7, #4]
10002928:	0018      	movs	r0, r3
1000292a:	f7ff ffd5 	bl	100028d8 <spin_lock_unsafe_blocking>
1000292e:	68fb      	ldr	r3, [r7, #12]
10002930:	0018      	movs	r0, r3
10002932:	46bd      	mov	sp, r7
10002934:	b004      	add	sp, #16
10002936:	bd80      	pop	{r7, pc}

10002938 <spin_unlock>:
10002938:	b580      	push	{r7, lr}
1000293a:	b082      	sub	sp, #8
1000293c:	af00      	add	r7, sp, #0
1000293e:	6078      	str	r0, [r7, #4]
10002940:	6039      	str	r1, [r7, #0]
10002942:	687b      	ldr	r3, [r7, #4]
10002944:	0018      	movs	r0, r3
10002946:	f7ff ffd9 	bl	100028fc <spin_unlock_unsafe>
1000294a:	683b      	ldr	r3, [r7, #0]
1000294c:	0018      	movs	r0, r3
1000294e:	f7ff ffb8 	bl	100028c2 <restore_interrupts>
10002952:	46c0      	nop			; (mov r8, r8)
10002954:	46bd      	mov	sp, r7
10002956:	b002      	add	sp, #8
10002958:	bd80      	pop	{r7, pc}

1000295a <get_core_num>:
1000295a:	b580      	push	{r7, lr}
1000295c:	af00      	add	r7, sp, #0
1000295e:	23d0      	movs	r3, #208	; 0xd0
10002960:	061b      	lsls	r3, r3, #24
10002962:	681b      	ldr	r3, [r3, #0]
10002964:	0018      	movs	r0, r3
10002966:	46bd      	mov	sp, r7
10002968:	bd80      	pop	{r7, pc}

1000296a <mutex_init>:
1000296a:	b590      	push	{r4, r7, lr}
1000296c:	b083      	sub	sp, #12
1000296e:	af00      	add	r7, sp, #0
10002970:	6078      	str	r0, [r7, #4]
10002972:	687c      	ldr	r4, [r7, #4]
10002974:	f7fe fd1e 	bl	100013b4 <next_striped_spin_lock_num>
10002978:	0003      	movs	r3, r0
1000297a:	0019      	movs	r1, r3
1000297c:	0020      	movs	r0, r4
1000297e:	f7ff ff53 	bl	10002828 <lock_init>
10002982:	687b      	ldr	r3, [r7, #4]
10002984:	22ff      	movs	r2, #255	; 0xff
10002986:	711a      	strb	r2, [r3, #4]
10002988:	f7ff ff88 	bl	1000289c <__mem_fence_release>
1000298c:	46c0      	nop			; (mov r8, r8)
1000298e:	46bd      	mov	sp, r7
10002990:	b003      	add	sp, #12
10002992:	bd90      	pop	{r4, r7, pc}

10002994 <ph_get_node>:
10002994:	b580      	push	{r7, lr}
10002996:	b082      	sub	sp, #8
10002998:	af00      	add	r7, sp, #0
1000299a:	6078      	str	r0, [r7, #4]
1000299c:	000a      	movs	r2, r1
1000299e:	1cfb      	adds	r3, r7, #3
100029a0:	701a      	strb	r2, [r3, #0]
100029a2:	1cfb      	adds	r3, r7, #3
100029a4:	781b      	ldrb	r3, [r3, #0]
100029a6:	2b00      	cmp	r3, #0
100029a8:	d005      	beq.n	100029b6 <ph_get_node+0x22>
100029aa:	687b      	ldr	r3, [r7, #4]
100029ac:	7b1b      	ldrb	r3, [r3, #12]
100029ae:	1cfa      	adds	r2, r7, #3
100029b0:	7812      	ldrb	r2, [r2, #0]
100029b2:	429a      	cmp	r2, r3
100029b4:	d905      	bls.n	100029c2 <ph_get_node+0x2e>
100029b6:	4b09      	ldr	r3, [pc, #36]	; (100029dc <ph_get_node+0x48>)
100029b8:	4a09      	ldr	r2, [pc, #36]	; (100029e0 <ph_get_node+0x4c>)
100029ba:	480a      	ldr	r0, [pc, #40]	; (100029e4 <ph_get_node+0x50>)
100029bc:	214d      	movs	r1, #77	; 0x4d
100029be:	f000 fc01 	bl	100031c4 <__assert_func>
100029c2:	687b      	ldr	r3, [r7, #4]
100029c4:	6819      	ldr	r1, [r3, #0]
100029c6:	1cfb      	adds	r3, r7, #3
100029c8:	781a      	ldrb	r2, [r3, #0]
100029ca:	0013      	movs	r3, r2
100029cc:	005b      	lsls	r3, r3, #1
100029ce:	189b      	adds	r3, r3, r2
100029d0:	3b03      	subs	r3, #3
100029d2:	18cb      	adds	r3, r1, r3
100029d4:	0018      	movs	r0, r3
100029d6:	46bd      	mov	sp, r7
100029d8:	b002      	add	sp, #8
100029da:	bd80      	pop	{r7, pc}
100029dc:	100082c8 	.word	0x100082c8
100029e0:	10008460 	.word	0x10008460
100029e4:	100082e4 	.word	0x100082e4

100029e8 <ph_add_child_node>:
100029e8:	b580      	push	{r7, lr}
100029ea:	b084      	sub	sp, #16
100029ec:	af00      	add	r7, sp, #0
100029ee:	6078      	str	r0, [r7, #4]
100029f0:	0008      	movs	r0, r1
100029f2:	0011      	movs	r1, r2
100029f4:	1cfb      	adds	r3, r7, #3
100029f6:	1c02      	adds	r2, r0, #0
100029f8:	701a      	strb	r2, [r3, #0]
100029fa:	1cbb      	adds	r3, r7, #2
100029fc:	1c0a      	adds	r2, r1, #0
100029fe:	701a      	strb	r2, [r3, #0]
10002a00:	1cfb      	adds	r3, r7, #3
10002a02:	781a      	ldrb	r2, [r3, #0]
10002a04:	687b      	ldr	r3, [r7, #4]
10002a06:	0011      	movs	r1, r2
10002a08:	0018      	movs	r0, r3
10002a0a:	f7ff ffc3 	bl	10002994 <ph_get_node>
10002a0e:	0003      	movs	r3, r0
10002a10:	60fb      	str	r3, [r7, #12]
10002a12:	1cfb      	adds	r3, r7, #3
10002a14:	781b      	ldrb	r3, [r3, #0]
10002a16:	2b00      	cmp	r3, #0
10002a18:	d105      	bne.n	10002a26 <ph_add_child_node+0x3e>
10002a1a:	4b1f      	ldr	r3, [pc, #124]	; (10002a98 <ph_add_child_node+0xb0>)
10002a1c:	4a1f      	ldr	r2, [pc, #124]	; (10002a9c <ph_add_child_node+0xb4>)
10002a1e:	4820      	ldr	r0, [pc, #128]	; (10002aa0 <ph_add_child_node+0xb8>)
10002a20:	2153      	movs	r1, #83	; 0x53
10002a22:	f000 fbcf 	bl	100031c4 <__assert_func>
10002a26:	1cbb      	adds	r3, r7, #2
10002a28:	781b      	ldrb	r3, [r3, #0]
10002a2a:	2b00      	cmp	r3, #0
10002a2c:	d105      	bne.n	10002a3a <ph_add_child_node+0x52>
10002a2e:	4b1d      	ldr	r3, [pc, #116]	; (10002aa4 <ph_add_child_node+0xbc>)
10002a30:	4a1a      	ldr	r2, [pc, #104]	; (10002a9c <ph_add_child_node+0xb4>)
10002a32:	481b      	ldr	r0, [pc, #108]	; (10002aa0 <ph_add_child_node+0xb8>)
10002a34:	2154      	movs	r1, #84	; 0x54
10002a36:	f000 fbc5 	bl	100031c4 <__assert_func>
10002a3a:	1cfa      	adds	r2, r7, #3
10002a3c:	1cbb      	adds	r3, r7, #2
10002a3e:	7812      	ldrb	r2, [r2, #0]
10002a40:	781b      	ldrb	r3, [r3, #0]
10002a42:	429a      	cmp	r2, r3
10002a44:	d105      	bne.n	10002a52 <ph_add_child_node+0x6a>
10002a46:	4b18      	ldr	r3, [pc, #96]	; (10002aa8 <ph_add_child_node+0xc0>)
10002a48:	4a14      	ldr	r2, [pc, #80]	; (10002a9c <ph_add_child_node+0xb4>)
10002a4a:	4815      	ldr	r0, [pc, #84]	; (10002aa0 <ph_add_child_node+0xb8>)
10002a4c:	2155      	movs	r1, #85	; 0x55
10002a4e:	f000 fbb9 	bl	100031c4 <__assert_func>
10002a52:	1cbb      	adds	r3, r7, #2
10002a54:	781a      	ldrb	r2, [r3, #0]
10002a56:	687b      	ldr	r3, [r7, #4]
10002a58:	0011      	movs	r1, r2
10002a5a:	0018      	movs	r0, r3
10002a5c:	f7ff ff9a 	bl	10002994 <ph_get_node>
10002a60:	0003      	movs	r3, r0
10002a62:	60bb      	str	r3, [r7, #8]
10002a64:	68bb      	ldr	r3, [r7, #8]
10002a66:	1cfa      	adds	r2, r7, #3
10002a68:	7812      	ldrb	r2, [r2, #0]
10002a6a:	709a      	strb	r2, [r3, #2]
10002a6c:	68fb      	ldr	r3, [r7, #12]
10002a6e:	781b      	ldrb	r3, [r3, #0]
10002a70:	2b00      	cmp	r3, #0
10002a72:	d104      	bne.n	10002a7e <ph_add_child_node+0x96>
10002a74:	68fb      	ldr	r3, [r7, #12]
10002a76:	1cba      	adds	r2, r7, #2
10002a78:	7812      	ldrb	r2, [r2, #0]
10002a7a:	701a      	strb	r2, [r3, #0]
10002a7c:	e007      	b.n	10002a8e <ph_add_child_node+0xa6>
10002a7e:	68fb      	ldr	r3, [r7, #12]
10002a80:	781a      	ldrb	r2, [r3, #0]
10002a82:	68bb      	ldr	r3, [r7, #8]
10002a84:	705a      	strb	r2, [r3, #1]
10002a86:	68fb      	ldr	r3, [r7, #12]
10002a88:	1cba      	adds	r2, r7, #2
10002a8a:	7812      	ldrb	r2, [r2, #0]
10002a8c:	701a      	strb	r2, [r3, #0]
10002a8e:	46c0      	nop			; (mov r8, r8)
10002a90:	46bd      	mov	sp, r7
10002a92:	b004      	add	sp, #16
10002a94:	bd80      	pop	{r7, pc}
10002a96:	46c0      	nop			; (mov r8, r8)
10002a98:	10008338 	.word	0x10008338
10002a9c:	1000844c 	.word	0x1000844c
10002aa0:	100082e4 	.word	0x100082e4
10002aa4:	10008344 	.word	0x10008344
10002aa8:	10008350 	.word	0x10008350

10002aac <ph_merge_nodes>:
10002aac:	b590      	push	{r4, r7, lr}
10002aae:	b083      	sub	sp, #12
10002ab0:	af00      	add	r7, sp, #0
10002ab2:	6078      	str	r0, [r7, #4]
10002ab4:	0008      	movs	r0, r1
10002ab6:	0011      	movs	r1, r2
10002ab8:	1cfb      	adds	r3, r7, #3
10002aba:	1c02      	adds	r2, r0, #0
10002abc:	701a      	strb	r2, [r3, #0]
10002abe:	1cbb      	adds	r3, r7, #2
10002ac0:	1c0a      	adds	r2, r1, #0
10002ac2:	701a      	strb	r2, [r3, #0]
10002ac4:	1cfb      	adds	r3, r7, #3
10002ac6:	781b      	ldrb	r3, [r3, #0]
10002ac8:	2b00      	cmp	r3, #0
10002aca:	d102      	bne.n	10002ad2 <ph_merge_nodes+0x26>
10002acc:	1cbb      	adds	r3, r7, #2
10002ace:	781b      	ldrb	r3, [r3, #0]
10002ad0:	e027      	b.n	10002b22 <ph_merge_nodes+0x76>
10002ad2:	1cbb      	adds	r3, r7, #2
10002ad4:	781b      	ldrb	r3, [r3, #0]
10002ad6:	2b00      	cmp	r3, #0
10002ad8:	d102      	bne.n	10002ae0 <ph_merge_nodes+0x34>
10002ada:	1cfb      	adds	r3, r7, #3
10002adc:	781b      	ldrb	r3, [r3, #0]
10002ade:	e020      	b.n	10002b22 <ph_merge_nodes+0x76>
10002ae0:	687b      	ldr	r3, [r7, #4]
10002ae2:	685c      	ldr	r4, [r3, #4]
10002ae4:	687b      	ldr	r3, [r7, #4]
10002ae6:	6898      	ldr	r0, [r3, #8]
10002ae8:	1cbb      	adds	r3, r7, #2
10002aea:	781a      	ldrb	r2, [r3, #0]
10002aec:	1cfb      	adds	r3, r7, #3
10002aee:	781b      	ldrb	r3, [r3, #0]
10002af0:	0019      	movs	r1, r3
10002af2:	47a0      	blx	r4
10002af4:	1e03      	subs	r3, r0, #0
10002af6:	d00a      	beq.n	10002b0e <ph_merge_nodes+0x62>
10002af8:	1cbb      	adds	r3, r7, #2
10002afa:	781a      	ldrb	r2, [r3, #0]
10002afc:	1cfb      	adds	r3, r7, #3
10002afe:	7819      	ldrb	r1, [r3, #0]
10002b00:	687b      	ldr	r3, [r7, #4]
10002b02:	0018      	movs	r0, r3
10002b04:	f7ff ff70 	bl	100029e8 <ph_add_child_node>
10002b08:	1cfb      	adds	r3, r7, #3
10002b0a:	781b      	ldrb	r3, [r3, #0]
10002b0c:	e009      	b.n	10002b22 <ph_merge_nodes+0x76>
10002b0e:	1cfb      	adds	r3, r7, #3
10002b10:	781a      	ldrb	r2, [r3, #0]
10002b12:	1cbb      	adds	r3, r7, #2
10002b14:	7819      	ldrb	r1, [r3, #0]
10002b16:	687b      	ldr	r3, [r7, #4]
10002b18:	0018      	movs	r0, r3
10002b1a:	f7ff ff65 	bl	100029e8 <ph_add_child_node>
10002b1e:	1cbb      	adds	r3, r7, #2
10002b20:	781b      	ldrb	r3, [r3, #0]
10002b22:	0018      	movs	r0, r3
10002b24:	46bd      	mov	sp, r7
10002b26:	b003      	add	sp, #12
10002b28:	bd90      	pop	{r4, r7, pc}

10002b2a <ph_peek_head>:
10002b2a:	b580      	push	{r7, lr}
10002b2c:	b082      	sub	sp, #8
10002b2e:	af00      	add	r7, sp, #0
10002b30:	6078      	str	r0, [r7, #4]
10002b32:	687b      	ldr	r3, [r7, #4]
10002b34:	7b5b      	ldrb	r3, [r3, #13]
10002b36:	0018      	movs	r0, r3
10002b38:	46bd      	mov	sp, r7
10002b3a:	b002      	add	sp, #8
10002b3c:	bd80      	pop	{r7, pc}

10002b3e <ph_remove_head>:
10002b3e:	b580      	push	{r7, lr}
10002b40:	b082      	sub	sp, #8
10002b42:	af00      	add	r7, sp, #0
10002b44:	6078      	str	r0, [r7, #4]
10002b46:	687b      	ldr	r3, [r7, #4]
10002b48:	2100      	movs	r1, #0
10002b4a:	0018      	movs	r0, r3
10002b4c:	f000 f960 	bl	10002e10 <ph_remove_head_reserve>
10002b50:	0003      	movs	r3, r0
10002b52:	0018      	movs	r0, r3
10002b54:	46bd      	mov	sp, r7
10002b56:	b002      	add	sp, #8
10002b58:	bd80      	pop	{r7, pc}

10002b5a <ph_create>:
10002b5a:	b580      	push	{r7, lr}
10002b5c:	b086      	sub	sp, #24
10002b5e:	af00      	add	r7, sp, #0
10002b60:	60f8      	str	r0, [r7, #12]
10002b62:	60b9      	str	r1, [r7, #8]
10002b64:	607a      	str	r2, [r7, #4]
10002b66:	2110      	movs	r1, #16
10002b68:	2001      	movs	r0, #1
10002b6a:	f003 ff6e 	bl	10006a4a <__wrap_calloc>
10002b6e:	0003      	movs	r3, r0
10002b70:	617b      	str	r3, [r7, #20]
10002b72:	68fb      	ldr	r3, [r7, #12]
10002b74:	b2da      	uxtb	r2, r3
10002b76:	697b      	ldr	r3, [r7, #20]
10002b78:	731a      	strb	r2, [r3, #12]
10002b7a:	697b      	ldr	r3, [r7, #20]
10002b7c:	68ba      	ldr	r2, [r7, #8]
10002b7e:	605a      	str	r2, [r3, #4]
10002b80:	68fb      	ldr	r3, [r7, #12]
10002b82:	2103      	movs	r1, #3
10002b84:	0018      	movs	r0, r3
10002b86:	f003 ff60 	bl	10006a4a <__wrap_calloc>
10002b8a:	0003      	movs	r3, r0
10002b8c:	001a      	movs	r2, r3
10002b8e:	697b      	ldr	r3, [r7, #20]
10002b90:	601a      	str	r2, [r3, #0]
10002b92:	697b      	ldr	r3, [r7, #20]
10002b94:	687a      	ldr	r2, [r7, #4]
10002b96:	609a      	str	r2, [r3, #8]
10002b98:	697b      	ldr	r3, [r7, #20]
10002b9a:	0018      	movs	r0, r3
10002b9c:	f000 f805 	bl	10002baa <ph_clear>
10002ba0:	697b      	ldr	r3, [r7, #20]
10002ba2:	0018      	movs	r0, r3
10002ba4:	46bd      	mov	sp, r7
10002ba6:	b006      	add	sp, #24
10002ba8:	bd80      	pop	{r7, pc}

10002baa <ph_clear>:
10002baa:	b580      	push	{r7, lr}
10002bac:	b084      	sub	sp, #16
10002bae:	af00      	add	r7, sp, #0
10002bb0:	6078      	str	r0, [r7, #4]
10002bb2:	687b      	ldr	r3, [r7, #4]
10002bb4:	2200      	movs	r2, #0
10002bb6:	735a      	strb	r2, [r3, #13]
10002bb8:	687b      	ldr	r3, [r7, #4]
10002bba:	2201      	movs	r2, #1
10002bbc:	739a      	strb	r2, [r3, #14]
10002bbe:	687b      	ldr	r3, [r7, #4]
10002bc0:	7b1a      	ldrb	r2, [r3, #12]
10002bc2:	687b      	ldr	r3, [r7, #4]
10002bc4:	73da      	strb	r2, [r3, #15]
10002bc6:	2301      	movs	r3, #1
10002bc8:	60fb      	str	r3, [r7, #12]
10002bca:	e00f      	b.n	10002bec <ph_clear+0x42>
10002bcc:	68fb      	ldr	r3, [r7, #12]
10002bce:	b2da      	uxtb	r2, r3
10002bd0:	687b      	ldr	r3, [r7, #4]
10002bd2:	0011      	movs	r1, r2
10002bd4:	0018      	movs	r0, r3
10002bd6:	f7ff fedd 	bl	10002994 <ph_get_node>
10002bda:	0002      	movs	r2, r0
10002bdc:	68fb      	ldr	r3, [r7, #12]
10002bde:	b2db      	uxtb	r3, r3
10002be0:	3301      	adds	r3, #1
10002be2:	b2db      	uxtb	r3, r3
10002be4:	7053      	strb	r3, [r2, #1]
10002be6:	68fb      	ldr	r3, [r7, #12]
10002be8:	3301      	adds	r3, #1
10002bea:	60fb      	str	r3, [r7, #12]
10002bec:	687b      	ldr	r3, [r7, #4]
10002bee:	7b1b      	ldrb	r3, [r3, #12]
10002bf0:	001a      	movs	r2, r3
10002bf2:	68fb      	ldr	r3, [r7, #12]
10002bf4:	429a      	cmp	r2, r3
10002bf6:	d8e9      	bhi.n	10002bcc <ph_clear+0x22>
10002bf8:	687b      	ldr	r3, [r7, #4]
10002bfa:	7b1a      	ldrb	r2, [r3, #12]
10002bfc:	687b      	ldr	r3, [r7, #4]
10002bfe:	0011      	movs	r1, r2
10002c00:	0018      	movs	r0, r3
10002c02:	f7ff fec7 	bl	10002994 <ph_get_node>
10002c06:	0003      	movs	r3, r0
10002c08:	2200      	movs	r2, #0
10002c0a:	705a      	strb	r2, [r3, #1]
10002c0c:	46c0      	nop			; (mov r8, r8)
10002c0e:	46bd      	mov	sp, r7
10002c10:	b004      	add	sp, #16
10002c12:	bd80      	pop	{r7, pc}

10002c14 <ph_merge_two_pass>:
10002c14:	b590      	push	{r4, r7, lr}
10002c16:	b085      	sub	sp, #20
10002c18:	af00      	add	r7, sp, #0
10002c1a:	6078      	str	r0, [r7, #4]
10002c1c:	000a      	movs	r2, r1
10002c1e:	1cfb      	adds	r3, r7, #3
10002c20:	701a      	strb	r2, [r3, #0]
10002c22:	1cfb      	adds	r3, r7, #3
10002c24:	781b      	ldrb	r3, [r3, #0]
10002c26:	2b00      	cmp	r3, #0
10002c28:	d00a      	beq.n	10002c40 <ph_merge_two_pass+0x2c>
10002c2a:	1cfb      	adds	r3, r7, #3
10002c2c:	781a      	ldrb	r2, [r3, #0]
10002c2e:	687b      	ldr	r3, [r7, #4]
10002c30:	0011      	movs	r1, r2
10002c32:	0018      	movs	r0, r3
10002c34:	f7ff feae 	bl	10002994 <ph_get_node>
10002c38:	0003      	movs	r3, r0
10002c3a:	785b      	ldrb	r3, [r3, #1]
10002c3c:	2b00      	cmp	r3, #0
10002c3e:	d102      	bne.n	10002c46 <ph_merge_two_pass+0x32>
10002c40:	1cfb      	adds	r3, r7, #3
10002c42:	781b      	ldrb	r3, [r3, #0]
10002c44:	e04f      	b.n	10002ce6 <ph_merge_two_pass+0xd2>
10002c46:	230f      	movs	r3, #15
10002c48:	18fb      	adds	r3, r7, r3
10002c4a:	1cfa      	adds	r2, r7, #3
10002c4c:	7812      	ldrb	r2, [r2, #0]
10002c4e:	701a      	strb	r2, [r3, #0]
10002c50:	1cfb      	adds	r3, r7, #3
10002c52:	781a      	ldrb	r2, [r3, #0]
10002c54:	687b      	ldr	r3, [r7, #4]
10002c56:	0011      	movs	r1, r2
10002c58:	0018      	movs	r0, r3
10002c5a:	f7ff fe9b 	bl	10002994 <ph_get_node>
10002c5e:	0002      	movs	r2, r0
10002c60:	230e      	movs	r3, #14
10002c62:	18fb      	adds	r3, r7, r3
10002c64:	7852      	ldrb	r2, [r2, #1]
10002c66:	701a      	strb	r2, [r3, #0]
10002c68:	230e      	movs	r3, #14
10002c6a:	18fb      	adds	r3, r7, r3
10002c6c:	781a      	ldrb	r2, [r3, #0]
10002c6e:	687b      	ldr	r3, [r7, #4]
10002c70:	0011      	movs	r1, r2
10002c72:	0018      	movs	r0, r3
10002c74:	f7ff fe8e 	bl	10002994 <ph_get_node>
10002c78:	0002      	movs	r2, r0
10002c7a:	230d      	movs	r3, #13
10002c7c:	18fb      	adds	r3, r7, r3
10002c7e:	7852      	ldrb	r2, [r2, #1]
10002c80:	701a      	strb	r2, [r3, #0]
10002c82:	230f      	movs	r3, #15
10002c84:	18fb      	adds	r3, r7, r3
10002c86:	781a      	ldrb	r2, [r3, #0]
10002c88:	687b      	ldr	r3, [r7, #4]
10002c8a:	0011      	movs	r1, r2
10002c8c:	0018      	movs	r0, r3
10002c8e:	f7ff fe81 	bl	10002994 <ph_get_node>
10002c92:	0004      	movs	r4, r0
10002c94:	230e      	movs	r3, #14
10002c96:	18fb      	adds	r3, r7, r3
10002c98:	781a      	ldrb	r2, [r3, #0]
10002c9a:	687b      	ldr	r3, [r7, #4]
10002c9c:	0011      	movs	r1, r2
10002c9e:	0018      	movs	r0, r3
10002ca0:	f7ff fe78 	bl	10002994 <ph_get_node>
10002ca4:	0003      	movs	r3, r0
10002ca6:	2200      	movs	r2, #0
10002ca8:	705a      	strb	r2, [r3, #1]
10002caa:	785b      	ldrb	r3, [r3, #1]
10002cac:	7063      	strb	r3, [r4, #1]
10002cae:	230e      	movs	r3, #14
10002cb0:	18fb      	adds	r3, r7, r3
10002cb2:	781a      	ldrb	r2, [r3, #0]
10002cb4:	230f      	movs	r3, #15
10002cb6:	18fb      	adds	r3, r7, r3
10002cb8:	7819      	ldrb	r1, [r3, #0]
10002cba:	687b      	ldr	r3, [r7, #4]
10002cbc:	0018      	movs	r0, r3
10002cbe:	f7ff fef5 	bl	10002aac <ph_merge_nodes>
10002cc2:	0003      	movs	r3, r0
10002cc4:	001c      	movs	r4, r3
10002cc6:	230d      	movs	r3, #13
10002cc8:	18fb      	adds	r3, r7, r3
10002cca:	781a      	ldrb	r2, [r3, #0]
10002ccc:	687b      	ldr	r3, [r7, #4]
10002cce:	0011      	movs	r1, r2
10002cd0:	0018      	movs	r0, r3
10002cd2:	f7ff ff9f 	bl	10002c14 <ph_merge_two_pass>
10002cd6:	0003      	movs	r3, r0
10002cd8:	001a      	movs	r2, r3
10002cda:	687b      	ldr	r3, [r7, #4]
10002cdc:	0021      	movs	r1, r4
10002cde:	0018      	movs	r0, r3
10002ce0:	f7ff fee4 	bl	10002aac <ph_merge_nodes>
10002ce4:	0003      	movs	r3, r0
10002ce6:	0018      	movs	r0, r3
10002ce8:	46bd      	mov	sp, r7
10002cea:	b005      	add	sp, #20
10002cec:	bd90      	pop	{r4, r7, pc}
	...

10002cf0 <ph_remove_any_head>:
10002cf0:	b590      	push	{r4, r7, lr}
10002cf2:	b085      	sub	sp, #20
10002cf4:	af00      	add	r7, sp, #0
10002cf6:	6078      	str	r0, [r7, #4]
10002cf8:	0008      	movs	r0, r1
10002cfa:	0011      	movs	r1, r2
10002cfc:	1cfb      	adds	r3, r7, #3
10002cfe:	1c02      	adds	r2, r0, #0
10002d00:	701a      	strb	r2, [r3, #0]
10002d02:	1cbb      	adds	r3, r7, #2
10002d04:	1c0a      	adds	r2, r1, #0
10002d06:	701a      	strb	r2, [r3, #0]
10002d08:	1cfb      	adds	r3, r7, #3
10002d0a:	781b      	ldrb	r3, [r3, #0]
10002d0c:	2b00      	cmp	r3, #0
10002d0e:	d105      	bne.n	10002d1c <ph_remove_any_head+0x2c>
10002d10:	4b3a      	ldr	r3, [pc, #232]	; (10002dfc <ph_remove_any_head+0x10c>)
10002d12:	4a3b      	ldr	r2, [pc, #236]	; (10002e00 <ph_remove_any_head+0x110>)
10002d14:	483b      	ldr	r0, [pc, #236]	; (10002e04 <ph_remove_any_head+0x114>)
10002d16:	2133      	movs	r1, #51	; 0x33
10002d18:	f000 fa54 	bl	100031c4 <__assert_func>
10002d1c:	1cfb      	adds	r3, r7, #3
10002d1e:	781a      	ldrb	r2, [r3, #0]
10002d20:	687b      	ldr	r3, [r7, #4]
10002d22:	0011      	movs	r1, r2
10002d24:	0018      	movs	r0, r3
10002d26:	f7ff fe35 	bl	10002994 <ph_get_node>
10002d2a:	0003      	movs	r3, r0
10002d2c:	785b      	ldrb	r3, [r3, #1]
10002d2e:	2b00      	cmp	r3, #0
10002d30:	d005      	beq.n	10002d3e <ph_remove_any_head+0x4e>
10002d32:	4b35      	ldr	r3, [pc, #212]	; (10002e08 <ph_remove_any_head+0x118>)
10002d34:	4a32      	ldr	r2, [pc, #200]	; (10002e00 <ph_remove_any_head+0x110>)
10002d36:	4833      	ldr	r0, [pc, #204]	; (10002e04 <ph_remove_any_head+0x114>)
10002d38:	2135      	movs	r1, #53	; 0x35
10002d3a:	f000 fa43 	bl	100031c4 <__assert_func>
10002d3e:	1cfb      	adds	r3, r7, #3
10002d40:	781a      	ldrb	r2, [r3, #0]
10002d42:	687b      	ldr	r3, [r7, #4]
10002d44:	0011      	movs	r1, r2
10002d46:	0018      	movs	r0, r3
10002d48:	f7ff fe24 	bl	10002994 <ph_get_node>
10002d4c:	0003      	movs	r3, r0
10002d4e:	789b      	ldrb	r3, [r3, #2]
10002d50:	2b00      	cmp	r3, #0
10002d52:	d005      	beq.n	10002d60 <ph_remove_any_head+0x70>
10002d54:	4b2d      	ldr	r3, [pc, #180]	; (10002e0c <ph_remove_any_head+0x11c>)
10002d56:	4a2a      	ldr	r2, [pc, #168]	; (10002e00 <ph_remove_any_head+0x110>)
10002d58:	482a      	ldr	r0, [pc, #168]	; (10002e04 <ph_remove_any_head+0x114>)
10002d5a:	2136      	movs	r1, #54	; 0x36
10002d5c:	f000 fa32 	bl	100031c4 <__assert_func>
10002d60:	1cfb      	adds	r3, r7, #3
10002d62:	781a      	ldrb	r2, [r3, #0]
10002d64:	687b      	ldr	r3, [r7, #4]
10002d66:	0011      	movs	r1, r2
10002d68:	0018      	movs	r0, r3
10002d6a:	f7ff fe13 	bl	10002994 <ph_get_node>
10002d6e:	0003      	movs	r3, r0
10002d70:	781a      	ldrb	r2, [r3, #0]
10002d72:	230f      	movs	r3, #15
10002d74:	18fc      	adds	r4, r7, r3
10002d76:	687b      	ldr	r3, [r7, #4]
10002d78:	0011      	movs	r1, r2
10002d7a:	0018      	movs	r0, r3
10002d7c:	f7ff ff4a 	bl	10002c14 <ph_merge_two_pass>
10002d80:	0003      	movs	r3, r0
10002d82:	7023      	strb	r3, [r4, #0]
10002d84:	1cbb      	adds	r3, r7, #2
10002d86:	781b      	ldrb	r3, [r3, #0]
10002d88:	2201      	movs	r2, #1
10002d8a:	4053      	eors	r3, r2
10002d8c:	b2db      	uxtb	r3, r3
10002d8e:	2b00      	cmp	r3, #0
10002d90:	d012      	beq.n	10002db8 <ph_remove_any_head+0xc8>
10002d92:	687b      	ldr	r3, [r7, #4]
10002d94:	7bdb      	ldrb	r3, [r3, #15]
10002d96:	2b00      	cmp	r3, #0
10002d98:	d00a      	beq.n	10002db0 <ph_remove_any_head+0xc0>
10002d9a:	687b      	ldr	r3, [r7, #4]
10002d9c:	7bda      	ldrb	r2, [r3, #15]
10002d9e:	687b      	ldr	r3, [r7, #4]
10002da0:	0011      	movs	r1, r2
10002da2:	0018      	movs	r0, r3
10002da4:	f7ff fdf6 	bl	10002994 <ph_get_node>
10002da8:	0002      	movs	r2, r0
10002daa:	1cfb      	adds	r3, r7, #3
10002dac:	781b      	ldrb	r3, [r3, #0]
10002dae:	7053      	strb	r3, [r2, #1]
10002db0:	687b      	ldr	r3, [r7, #4]
10002db2:	1cfa      	adds	r2, r7, #3
10002db4:	7812      	ldrb	r2, [r2, #0]
10002db6:	73da      	strb	r2, [r3, #15]
10002db8:	230f      	movs	r3, #15
10002dba:	18fb      	adds	r3, r7, r3
10002dbc:	781b      	ldrb	r3, [r3, #0]
10002dbe:	2b00      	cmp	r3, #0
10002dc0:	d00a      	beq.n	10002dd8 <ph_remove_any_head+0xe8>
10002dc2:	230f      	movs	r3, #15
10002dc4:	18fb      	adds	r3, r7, r3
10002dc6:	781a      	ldrb	r2, [r3, #0]
10002dc8:	687b      	ldr	r3, [r7, #4]
10002dca:	0011      	movs	r1, r2
10002dcc:	0018      	movs	r0, r3
10002dce:	f7ff fde1 	bl	10002994 <ph_get_node>
10002dd2:	0003      	movs	r3, r0
10002dd4:	2200      	movs	r2, #0
10002dd6:	709a      	strb	r2, [r3, #2]
10002dd8:	1cfb      	adds	r3, r7, #3
10002dda:	781a      	ldrb	r2, [r3, #0]
10002ddc:	687b      	ldr	r3, [r7, #4]
10002dde:	0011      	movs	r1, r2
10002de0:	0018      	movs	r0, r3
10002de2:	f7ff fdd7 	bl	10002994 <ph_get_node>
10002de6:	0003      	movs	r3, r0
10002de8:	2200      	movs	r2, #0
10002dea:	705a      	strb	r2, [r3, #1]
10002dec:	230f      	movs	r3, #15
10002dee:	18fb      	adds	r3, r7, r3
10002df0:	781b      	ldrb	r3, [r3, #0]
10002df2:	0018      	movs	r0, r3
10002df4:	46bd      	mov	sp, r7
10002df6:	b005      	add	sp, #20
10002df8:	bd90      	pop	{r4, r7, pc}
10002dfa:	46c0      	nop			; (mov r8, r8)
10002dfc:	10008368 	.word	0x10008368
10002e00:	1000846c 	.word	0x1000846c
10002e04:	10008370 	.word	0x10008370
10002e08:	100083b0 	.word	0x100083b0
10002e0c:	100083d8 	.word	0x100083d8

10002e10 <ph_remove_head_reserve>:
10002e10:	b590      	push	{r4, r7, lr}
10002e12:	b085      	sub	sp, #20
10002e14:	af00      	add	r7, sp, #0
10002e16:	6078      	str	r0, [r7, #4]
10002e18:	000a      	movs	r2, r1
10002e1a:	1cfb      	adds	r3, r7, #3
10002e1c:	701a      	strb	r2, [r3, #0]
10002e1e:	230f      	movs	r3, #15
10002e20:	18fc      	adds	r4, r7, r3
10002e22:	687b      	ldr	r3, [r7, #4]
10002e24:	0018      	movs	r0, r3
10002e26:	f7ff fe80 	bl	10002b2a <ph_peek_head>
10002e2a:	0003      	movs	r3, r0
10002e2c:	7023      	strb	r3, [r4, #0]
10002e2e:	1cfb      	adds	r3, r7, #3
10002e30:	781a      	ldrb	r2, [r3, #0]
10002e32:	230f      	movs	r3, #15
10002e34:	18fb      	adds	r3, r7, r3
10002e36:	7819      	ldrb	r1, [r3, #0]
10002e38:	687b      	ldr	r3, [r7, #4]
10002e3a:	0018      	movs	r0, r3
10002e3c:	f7ff ff58 	bl	10002cf0 <ph_remove_any_head>
10002e40:	0003      	movs	r3, r0
10002e42:	001a      	movs	r2, r3
10002e44:	687b      	ldr	r3, [r7, #4]
10002e46:	735a      	strb	r2, [r3, #13]
10002e48:	230f      	movs	r3, #15
10002e4a:	18fb      	adds	r3, r7, r3
10002e4c:	781b      	ldrb	r3, [r3, #0]
10002e4e:	0018      	movs	r0, r3
10002e50:	46bd      	mov	sp, r7
10002e52:	b005      	add	sp, #20
10002e54:	bd90      	pop	{r4, r7, pc}
	...

10002e58 <ph_delete>:
10002e58:	b590      	push	{r4, r7, lr}
10002e5a:	b089      	sub	sp, #36	; 0x24
10002e5c:	af00      	add	r7, sp, #0
10002e5e:	6078      	str	r0, [r7, #4]
10002e60:	000a      	movs	r2, r1
10002e62:	1cfb      	adds	r3, r7, #3
10002e64:	701a      	strb	r2, [r3, #0]
10002e66:	1cfb      	adds	r3, r7, #3
10002e68:	781b      	ldrb	r3, [r3, #0]
10002e6a:	2b00      	cmp	r3, #0
10002e6c:	d101      	bne.n	10002e72 <ph_delete+0x1a>
10002e6e:	2300      	movs	r3, #0
10002e70:	e092      	b.n	10002f98 <ph_delete+0x140>
10002e72:	687b      	ldr	r3, [r7, #4]
10002e74:	7b5b      	ldrb	r3, [r3, #13]
10002e76:	1cfa      	adds	r2, r7, #3
10002e78:	7812      	ldrb	r2, [r2, #0]
10002e7a:	429a      	cmp	r2, r3
10002e7c:	d105      	bne.n	10002e8a <ph_delete+0x32>
10002e7e:	687b      	ldr	r3, [r7, #4]
10002e80:	0018      	movs	r0, r3
10002e82:	f7ff fe5c 	bl	10002b3e <ph_remove_head>
10002e86:	2301      	movs	r3, #1
10002e88:	e086      	b.n	10002f98 <ph_delete+0x140>
10002e8a:	1cfb      	adds	r3, r7, #3
10002e8c:	781a      	ldrb	r2, [r3, #0]
10002e8e:	687b      	ldr	r3, [r7, #4]
10002e90:	0011      	movs	r1, r2
10002e92:	0018      	movs	r0, r3
10002e94:	f7ff fd7e 	bl	10002994 <ph_get_node>
10002e98:	0003      	movs	r3, r0
10002e9a:	61bb      	str	r3, [r7, #24]
10002e9c:	69bb      	ldr	r3, [r7, #24]
10002e9e:	789b      	ldrb	r3, [r3, #2]
10002ea0:	2b00      	cmp	r3, #0
10002ea2:	d101      	bne.n	10002ea8 <ph_delete+0x50>
10002ea4:	2300      	movs	r3, #0
10002ea6:	e077      	b.n	10002f98 <ph_delete+0x140>
10002ea8:	69bb      	ldr	r3, [r7, #24]
10002eaa:	789a      	ldrb	r2, [r3, #2]
10002eac:	687b      	ldr	r3, [r7, #4]
10002eae:	0011      	movs	r1, r2
10002eb0:	0018      	movs	r0, r3
10002eb2:	f7ff fd6f 	bl	10002994 <ph_get_node>
10002eb6:	0003      	movs	r3, r0
10002eb8:	617b      	str	r3, [r7, #20]
10002eba:	697b      	ldr	r3, [r7, #20]
10002ebc:	781b      	ldrb	r3, [r3, #0]
10002ebe:	1cfa      	adds	r2, r7, #3
10002ec0:	7812      	ldrb	r2, [r2, #0]
10002ec2:	429a      	cmp	r2, r3
10002ec4:	d104      	bne.n	10002ed0 <ph_delete+0x78>
10002ec6:	69bb      	ldr	r3, [r7, #24]
10002ec8:	785a      	ldrb	r2, [r3, #1]
10002eca:	697b      	ldr	r3, [r7, #20]
10002ecc:	701a      	strb	r2, [r3, #0]
10002ece:	e036      	b.n	10002f3e <ph_delete+0xe6>
10002ed0:	231f      	movs	r3, #31
10002ed2:	18fb      	adds	r3, r7, r3
10002ed4:	697a      	ldr	r2, [r7, #20]
10002ed6:	7812      	ldrb	r2, [r2, #0]
10002ed8:	701a      	strb	r2, [r3, #0]
10002eda:	231e      	movs	r3, #30
10002edc:	18fb      	adds	r3, r7, r3
10002ede:	2200      	movs	r2, #0
10002ee0:	701a      	strb	r2, [r3, #0]
10002ee2:	231f      	movs	r3, #31
10002ee4:	18fb      	adds	r3, r7, r3
10002ee6:	781a      	ldrb	r2, [r3, #0]
10002ee8:	687b      	ldr	r3, [r7, #4]
10002eea:	0011      	movs	r1, r2
10002eec:	0018      	movs	r0, r3
10002eee:	f7ff fd51 	bl	10002994 <ph_get_node>
10002ef2:	0003      	movs	r3, r0
10002ef4:	613b      	str	r3, [r7, #16]
10002ef6:	693b      	ldr	r3, [r7, #16]
10002ef8:	785b      	ldrb	r3, [r3, #1]
10002efa:	1cfa      	adds	r2, r7, #3
10002efc:	7812      	ldrb	r2, [r2, #0]
10002efe:	429a      	cmp	r2, r3
10002f00:	d108      	bne.n	10002f14 <ph_delete+0xbc>
10002f02:	69bb      	ldr	r3, [r7, #24]
10002f04:	785a      	ldrb	r2, [r3, #1]
10002f06:	693b      	ldr	r3, [r7, #16]
10002f08:	705a      	strb	r2, [r3, #1]
10002f0a:	231e      	movs	r3, #30
10002f0c:	18fb      	adds	r3, r7, r3
10002f0e:	2201      	movs	r2, #1
10002f10:	701a      	strb	r2, [r3, #0]
10002f12:	e009      	b.n	10002f28 <ph_delete+0xd0>
10002f14:	231f      	movs	r3, #31
10002f16:	18fb      	adds	r3, r7, r3
10002f18:	693a      	ldr	r2, [r7, #16]
10002f1a:	7852      	ldrb	r2, [r2, #1]
10002f1c:	701a      	strb	r2, [r3, #0]
10002f1e:	231f      	movs	r3, #31
10002f20:	18fb      	adds	r3, r7, r3
10002f22:	781b      	ldrb	r3, [r3, #0]
10002f24:	2b00      	cmp	r3, #0
10002f26:	d1dc      	bne.n	10002ee2 <ph_delete+0x8a>
10002f28:	231e      	movs	r3, #30
10002f2a:	18fb      	adds	r3, r7, r3
10002f2c:	781b      	ldrb	r3, [r3, #0]
10002f2e:	2b00      	cmp	r3, #0
10002f30:	d105      	bne.n	10002f3e <ph_delete+0xe6>
10002f32:	4b1b      	ldr	r3, [pc, #108]	; (10002fa0 <ph_delete+0x148>)
10002f34:	4a1b      	ldr	r2, [pc, #108]	; (10002fa4 <ph_delete+0x14c>)
10002f36:	481c      	ldr	r0, [pc, #112]	; (10002fa8 <ph_delete+0x150>)
10002f38:	2163      	movs	r1, #99	; 0x63
10002f3a:	f000 f943 	bl	100031c4 <__assert_func>
10002f3e:	69bb      	ldr	r3, [r7, #24]
10002f40:	2200      	movs	r2, #0
10002f42:	709a      	strb	r2, [r3, #2]
10002f44:	69bb      	ldr	r3, [r7, #24]
10002f46:	789a      	ldrb	r2, [r3, #2]
10002f48:	69bb      	ldr	r3, [r7, #24]
10002f4a:	705a      	strb	r2, [r3, #1]
10002f4c:	230f      	movs	r3, #15
10002f4e:	18fc      	adds	r4, r7, r3
10002f50:	1cfb      	adds	r3, r7, #3
10002f52:	7819      	ldrb	r1, [r3, #0]
10002f54:	687b      	ldr	r3, [r7, #4]
10002f56:	2200      	movs	r2, #0
10002f58:	0018      	movs	r0, r3
10002f5a:	f7ff fec9 	bl	10002cf0 <ph_remove_any_head>
10002f5e:	0003      	movs	r3, r0
10002f60:	7023      	strb	r3, [r4, #0]
10002f62:	687b      	ldr	r3, [r7, #4]
10002f64:	7b5b      	ldrb	r3, [r3, #13]
10002f66:	220f      	movs	r2, #15
10002f68:	18ba      	adds	r2, r7, r2
10002f6a:	7812      	ldrb	r2, [r2, #0]
10002f6c:	429a      	cmp	r2, r3
10002f6e:	d105      	bne.n	10002f7c <ph_delete+0x124>
10002f70:	4b0e      	ldr	r3, [pc, #56]	; (10002fac <ph_delete+0x154>)
10002f72:	4a0c      	ldr	r2, [pc, #48]	; (10002fa4 <ph_delete+0x14c>)
10002f74:	480c      	ldr	r0, [pc, #48]	; (10002fa8 <ph_delete+0x150>)
10002f76:	2169      	movs	r1, #105	; 0x69
10002f78:	f000 f924 	bl	100031c4 <__assert_func>
10002f7c:	687b      	ldr	r3, [r7, #4]
10002f7e:	7b59      	ldrb	r1, [r3, #13]
10002f80:	230f      	movs	r3, #15
10002f82:	18fb      	adds	r3, r7, r3
10002f84:	781a      	ldrb	r2, [r3, #0]
10002f86:	687b      	ldr	r3, [r7, #4]
10002f88:	0018      	movs	r0, r3
10002f8a:	f7ff fd8f 	bl	10002aac <ph_merge_nodes>
10002f8e:	0003      	movs	r3, r0
10002f90:	001a      	movs	r2, r3
10002f92:	687b      	ldr	r3, [r7, #4]
10002f94:	735a      	strb	r2, [r3, #13]
10002f96:	2301      	movs	r3, #1
10002f98:	0018      	movs	r0, r3
10002f9a:	46bd      	mov	sp, r7
10002f9c:	b009      	add	sp, #36	; 0x24
10002f9e:	bd90      	pop	{r4, r7, pc}
10002fa0:	100083fc 	.word	0x100083fc
10002fa4:	10008480 	.word	0x10008480
10002fa8:	10008370 	.word	0x10008370
10002fac:	10008404 	.word	0x10008404

10002fb0 <__breakpoint>:
10002fb0:	b580      	push	{r7, lr}
10002fb2:	af00      	add	r7, sp, #0
10002fb4:	be00      	bkpt	0x0000
10002fb6:	46c0      	nop			; (mov r8, r8)
10002fb8:	46bd      	mov	sp, r7
10002fba:	bd80      	pop	{r7, pc}

10002fbc <tight_loop_contents>:
10002fbc:	b580      	push	{r7, lr}
10002fbe:	af00      	add	r7, sp, #0
10002fc0:	46c0      	nop			; (mov r8, r8)
10002fc2:	46bd      	mov	sp, r7
10002fc4:	bd80      	pop	{r7, pc}

10002fc6 <hw_set_bits>:
10002fc6:	b580      	push	{r7, lr}
10002fc8:	b082      	sub	sp, #8
10002fca:	af00      	add	r7, sp, #0
10002fcc:	6078      	str	r0, [r7, #4]
10002fce:	6039      	str	r1, [r7, #0]
10002fd0:	687b      	ldr	r3, [r7, #4]
10002fd2:	2280      	movs	r2, #128	; 0x80
10002fd4:	0192      	lsls	r2, r2, #6
10002fd6:	4313      	orrs	r3, r2
10002fd8:	683a      	ldr	r2, [r7, #0]
10002fda:	601a      	str	r2, [r3, #0]
10002fdc:	46c0      	nop			; (mov r8, r8)
10002fde:	46bd      	mov	sp, r7
10002fe0:	b002      	add	sp, #8
10002fe2:	bd80      	pop	{r7, pc}

10002fe4 <hw_clear_bits>:
10002fe4:	b580      	push	{r7, lr}
10002fe6:	b082      	sub	sp, #8
10002fe8:	af00      	add	r7, sp, #0
10002fea:	6078      	str	r0, [r7, #4]
10002fec:	6039      	str	r1, [r7, #0]
10002fee:	687b      	ldr	r3, [r7, #4]
10002ff0:	22c0      	movs	r2, #192	; 0xc0
10002ff2:	0192      	lsls	r2, r2, #6
10002ff4:	4313      	orrs	r3, r2
10002ff6:	683a      	ldr	r2, [r7, #0]
10002ff8:	601a      	str	r2, [r3, #0]
10002ffa:	46c0      	nop			; (mov r8, r8)
10002ffc:	46bd      	mov	sp, r7
10002ffe:	b002      	add	sp, #8
10003000:	bd80      	pop	{r7, pc}
	...

10003004 <reset_block>:
10003004:	b580      	push	{r7, lr}
10003006:	b082      	sub	sp, #8
10003008:	af00      	add	r7, sp, #0
1000300a:	6078      	str	r0, [r7, #4]
1000300c:	687b      	ldr	r3, [r7, #4]
1000300e:	4a04      	ldr	r2, [pc, #16]	; (10003020 <reset_block+0x1c>)
10003010:	0019      	movs	r1, r3
10003012:	0010      	movs	r0, r2
10003014:	f7ff ffd7 	bl	10002fc6 <hw_set_bits>
10003018:	46c0      	nop			; (mov r8, r8)
1000301a:	46bd      	mov	sp, r7
1000301c:	b002      	add	sp, #8
1000301e:	bd80      	pop	{r7, pc}
10003020:	4000c000 	.word	0x4000c000

10003024 <unreset_block_wait>:
10003024:	b580      	push	{r7, lr}
10003026:	b082      	sub	sp, #8
10003028:	af00      	add	r7, sp, #0
1000302a:	6078      	str	r0, [r7, #4]
1000302c:	687b      	ldr	r3, [r7, #4]
1000302e:	4a09      	ldr	r2, [pc, #36]	; (10003054 <unreset_block_wait+0x30>)
10003030:	0019      	movs	r1, r3
10003032:	0010      	movs	r0, r2
10003034:	f7ff ffd6 	bl	10002fe4 <hw_clear_bits>
10003038:	e001      	b.n	1000303e <unreset_block_wait+0x1a>
1000303a:	f7ff ffbf 	bl	10002fbc <tight_loop_contents>
1000303e:	4b05      	ldr	r3, [pc, #20]	; (10003054 <unreset_block_wait+0x30>)
10003040:	689b      	ldr	r3, [r3, #8]
10003042:	43db      	mvns	r3, r3
10003044:	687a      	ldr	r2, [r7, #4]
10003046:	4013      	ands	r3, r2
10003048:	d1f7      	bne.n	1000303a <unreset_block_wait+0x16>
1000304a:	46c0      	nop			; (mov r8, r8)
1000304c:	46bd      	mov	sp, r7
1000304e:	b002      	add	sp, #8
10003050:	bd80      	pop	{r7, pc}
10003052:	46c0      	nop			; (mov r8, r8)
10003054:	4000c000 	.word	0x4000c000

10003058 <runtime_init>:
10003058:	b590      	push	{r4, r7, lr}
1000305a:	b085      	sub	sp, #20
1000305c:	af00      	add	r7, sp, #0
1000305e:	4b2f      	ldr	r3, [pc, #188]	; (1000311c <runtime_init+0xc4>)
10003060:	0018      	movs	r0, r3
10003062:	f7ff ffcf 	bl	10003004 <reset_block>
10003066:	4b2e      	ldr	r3, [pc, #184]	; (10003120 <runtime_init+0xc8>)
10003068:	0018      	movs	r0, r3
1000306a:	f7ff ffdb 	bl	10003024 <unreset_block_wait>
1000306e:	4b2d      	ldr	r3, [pc, #180]	; (10003124 <runtime_init+0xcc>)
10003070:	60fb      	str	r3, [r7, #12]
10003072:	e005      	b.n	10003080 <runtime_init+0x28>
10003074:	68fb      	ldr	r3, [r7, #12]
10003076:	681b      	ldr	r3, [r3, #0]
10003078:	4798      	blx	r3
1000307a:	68fb      	ldr	r3, [r7, #12]
1000307c:	3304      	adds	r3, #4
1000307e:	60fb      	str	r3, [r7, #12]
10003080:	68fa      	ldr	r2, [r7, #12]
10003082:	4b29      	ldr	r3, [pc, #164]	; (10003128 <runtime_init+0xd0>)
10003084:	429a      	cmp	r2, r3
10003086:	d3f5      	bcc.n	10003074 <runtime_init+0x1c>
10003088:	f000 fa40 	bl	1000350c <clocks_init>
1000308c:	4b27      	ldr	r3, [pc, #156]	; (1000312c <runtime_init+0xd4>)
1000308e:	0018      	movs	r0, r3
10003090:	f7ff ffc8 	bl	10003024 <unreset_block_wait>
10003094:	4a26      	ldr	r2, [pc, #152]	; (10003130 <runtime_init+0xd8>)
10003096:	4926      	ldr	r1, [pc, #152]	; (10003130 <runtime_init+0xd8>)
10003098:	4825      	ldr	r0, [pc, #148]	; (10003130 <runtime_init+0xd8>)
1000309a:	4c25      	ldr	r4, [pc, #148]	; (10003130 <runtime_init+0xd8>)
1000309c:	2340      	movs	r3, #64	; 0x40
1000309e:	67a3      	str	r3, [r4, #120]	; 0x78
100030a0:	6743      	str	r3, [r0, #116]	; 0x74
100030a2:	670b      	str	r3, [r1, #112]	; 0x70
100030a4:	66d3      	str	r3, [r2, #108]	; 0x6c
100030a6:	4b23      	ldr	r3, [pc, #140]	; (10003134 <runtime_init+0xdc>)
100030a8:	60bb      	str	r3, [r7, #8]
100030aa:	e006      	b.n	100030ba <runtime_init+0x62>
100030ac:	68bb      	ldr	r3, [r7, #8]
100030ae:	0018      	movs	r0, r3
100030b0:	f7ff fc5b 	bl	1000296a <mutex_init>
100030b4:	68bb      	ldr	r3, [r7, #8]
100030b6:	3308      	adds	r3, #8
100030b8:	60bb      	str	r3, [r7, #8]
100030ba:	68ba      	ldr	r2, [r7, #8]
100030bc:	4b1e      	ldr	r3, [pc, #120]	; (10003138 <runtime_init+0xe0>)
100030be:	429a      	cmp	r2, r3
100030c0:	d3f4      	bcc.n	100030ac <runtime_init+0x54>
100030c2:	4b1e      	ldr	r3, [pc, #120]	; (1000313c <runtime_init+0xe4>)
100030c4:	689b      	ldr	r3, [r3, #8]
100030c6:	001a      	movs	r2, r3
100030c8:	4b1d      	ldr	r3, [pc, #116]	; (10003140 <runtime_init+0xe8>)
100030ca:	0018      	movs	r0, r3
100030cc:	0011      	movs	r1, r2
100030ce:	23c0      	movs	r3, #192	; 0xc0
100030d0:	001a      	movs	r2, r3
100030d2:	f003 fce1 	bl	10006a98 <__wrap___aeabi_memcpy>
100030d6:	4b19      	ldr	r3, [pc, #100]	; (1000313c <runtime_init+0xe4>)
100030d8:	4a19      	ldr	r2, [pc, #100]	; (10003140 <runtime_init+0xe8>)
100030da:	609a      	str	r2, [r3, #8]
100030dc:	f3ef 8303 	mrs	r3, PSR
100030e0:	603b      	str	r3, [r7, #0]
100030e2:	683b      	ldr	r3, [r7, #0]
100030e4:	22ff      	movs	r2, #255	; 0xff
100030e6:	4013      	ands	r3, r2
100030e8:	d000      	beq.n	100030ec <runtime_init+0x94>
100030ea:	be00      	bkpt	0x0000
100030ec:	f7fe f949 	bl	10001382 <spin_locks_reset>
100030f0:	f000 ffa4 	bl	1000403c <irq_init_priorities>
100030f4:	f7fe fdce 	bl	10001c94 <alarm_pool_init_default>
100030f8:	4b12      	ldr	r3, [pc, #72]	; (10003144 <runtime_init+0xec>)
100030fa:	607b      	str	r3, [r7, #4]
100030fc:	e005      	b.n	1000310a <runtime_init+0xb2>
100030fe:	687b      	ldr	r3, [r7, #4]
10003100:	681b      	ldr	r3, [r3, #0]
10003102:	4798      	blx	r3
10003104:	687b      	ldr	r3, [r7, #4]
10003106:	3304      	adds	r3, #4
10003108:	607b      	str	r3, [r7, #4]
1000310a:	687a      	ldr	r2, [r7, #4]
1000310c:	4b0e      	ldr	r3, [pc, #56]	; (10003148 <runtime_init+0xf0>)
1000310e:	429a      	cmp	r2, r3
10003110:	d3f5      	bcc.n	100030fe <runtime_init+0xa6>
10003112:	46c0      	nop			; (mov r8, r8)
10003114:	46bd      	mov	sp, r7
10003116:	b005      	add	sp, #20
10003118:	bd90      	pop	{r4, r7, pc}
1000311a:	46c0      	nop			; (mov r8, r8)
1000311c:	ffffcdbf 	.word	0xffffcdbf
10003120:	003c7ffe 	.word	0x003c7ffe
10003124:	20000b50 	.word	0x20000b50
10003128:	20000b60 	.word	0x20000b60
1000312c:	01ffffff 	.word	0x01ffffff
10003130:	4001f000 	.word	0x4001f000
10003134:	20000b48 	.word	0x20000b48
10003138:	20000b50 	.word	0x20000b50
1000313c:	e000ed00 	.word	0xe000ed00
10003140:	20000000 	.word	0x20000000
10003144:	20000b60 	.word	0x20000b60
10003148:	20000b64 	.word	0x20000b64

1000314c <_exit>:
1000314c:	b580      	push	{r7, lr}
1000314e:	b082      	sub	sp, #8
10003150:	af00      	add	r7, sp, #0
10003152:	6078      	str	r0, [r7, #4]
10003154:	f7ff ff2c 	bl	10002fb0 <__breakpoint>
10003158:	e7fc      	b.n	10003154 <_exit+0x8>
	...

1000315c <_sbrk>:
1000315c:	b580      	push	{r7, lr}
1000315e:	b084      	sub	sp, #16
10003160:	af00      	add	r7, sp, #0
10003162:	6078      	str	r0, [r7, #4]
10003164:	4b10      	ldr	r3, [pc, #64]	; (100031a8 <_sbrk+0x4c>)
10003166:	681b      	ldr	r3, [r3, #0]
10003168:	2b00      	cmp	r3, #0
1000316a:	d102      	bne.n	10003172 <_sbrk+0x16>
1000316c:	4b0e      	ldr	r3, [pc, #56]	; (100031a8 <_sbrk+0x4c>)
1000316e:	4a0f      	ldr	r2, [pc, #60]	; (100031ac <_sbrk+0x50>)
10003170:	601a      	str	r2, [r3, #0]
10003172:	4b0d      	ldr	r3, [pc, #52]	; (100031a8 <_sbrk+0x4c>)
10003174:	681b      	ldr	r3, [r3, #0]
10003176:	60fb      	str	r3, [r7, #12]
10003178:	4b0b      	ldr	r3, [pc, #44]	; (100031a8 <_sbrk+0x4c>)
1000317a:	681a      	ldr	r2, [r3, #0]
1000317c:	687b      	ldr	r3, [r7, #4]
1000317e:	18d3      	adds	r3, r2, r3
10003180:	60bb      	str	r3, [r7, #8]
10003182:	68b9      	ldr	r1, [r7, #8]
10003184:	4a0a      	ldr	r2, [pc, #40]	; (100031b0 <_sbrk+0x54>)
10003186:	2300      	movs	r3, #0
10003188:	4291      	cmp	r1, r2
1000318a:	415b      	adcs	r3, r3
1000318c:	b2db      	uxtb	r3, r3
1000318e:	2b00      	cmp	r3, #0
10003190:	d002      	beq.n	10003198 <_sbrk+0x3c>
10003192:	2301      	movs	r3, #1
10003194:	425b      	negs	r3, r3
10003196:	e003      	b.n	100031a0 <_sbrk+0x44>
10003198:	4b03      	ldr	r3, [pc, #12]	; (100031a8 <_sbrk+0x4c>)
1000319a:	68ba      	ldr	r2, [r7, #8]
1000319c:	601a      	str	r2, [r3, #0]
1000319e:	68fb      	ldr	r3, [r7, #12]
100031a0:	0018      	movs	r0, r3
100031a2:	46bd      	mov	sp, r7
100031a4:	b004      	add	sp, #16
100031a6:	bd80      	pop	{r7, pc}
100031a8:	20000ffc 	.word	0x20000ffc
100031ac:	20001c6c 	.word	0x20001c6c
100031b0:	20040000 	.word	0x20040000

100031b4 <exit>:
100031b4:	b580      	push	{r7, lr}
100031b6:	b082      	sub	sp, #8
100031b8:	af00      	add	r7, sp, #0
100031ba:	6078      	str	r0, [r7, #4]
100031bc:	687b      	ldr	r3, [r7, #4]
100031be:	0018      	movs	r0, r3
100031c0:	f7ff ffc4 	bl	1000314c <_exit>

100031c4 <__assert_func>:
100031c4:	b5b0      	push	{r4, r5, r7, lr}
100031c6:	b086      	sub	sp, #24
100031c8:	af02      	add	r7, sp, #8
100031ca:	60f8      	str	r0, [r7, #12]
100031cc:	60b9      	str	r1, [r7, #8]
100031ce:	607a      	str	r2, [r7, #4]
100031d0:	603b      	str	r3, [r7, #0]
100031d2:	687b      	ldr	r3, [r7, #4]
100031d4:	2b00      	cmp	r3, #0
100031d6:	d001      	beq.n	100031dc <__assert_func+0x18>
100031d8:	4b0a      	ldr	r3, [pc, #40]	; (10003204 <__assert_func+0x40>)
100031da:	e000      	b.n	100031de <__assert_func+0x1a>
100031dc:	4b0a      	ldr	r3, [pc, #40]	; (10003208 <__assert_func+0x44>)
100031de:	687a      	ldr	r2, [r7, #4]
100031e0:	2a00      	cmp	r2, #0
100031e2:	d001      	beq.n	100031e8 <__assert_func+0x24>
100031e4:	687a      	ldr	r2, [r7, #4]
100031e6:	e000      	b.n	100031ea <__assert_func+0x26>
100031e8:	4a07      	ldr	r2, [pc, #28]	; (10003208 <__assert_func+0x44>)
100031ea:	68bd      	ldr	r5, [r7, #8]
100031ec:	68fc      	ldr	r4, [r7, #12]
100031ee:	6839      	ldr	r1, [r7, #0]
100031f0:	4806      	ldr	r0, [pc, #24]	; (1000320c <__assert_func+0x48>)
100031f2:	9201      	str	r2, [sp, #4]
100031f4:	9300      	str	r3, [sp, #0]
100031f6:	002b      	movs	r3, r5
100031f8:	0022      	movs	r2, r4
100031fa:	f003 fe61 	bl	10006ec0 <__wrap_printf>
100031fe:	2001      	movs	r0, #1
10003200:	f7ff ffa4 	bl	1000314c <_exit>
10003204:	1000848c 	.word	0x1000848c
10003208:	1000849c 	.word	0x1000849c
1000320c:	100084a0 	.word	0x100084a0

10003210 <panic>:
10003210:	b40f      	push	{r0, r1, r2, r3}
10003212:	b580      	push	{r7, lr}
10003214:	b082      	sub	sp, #8
10003216:	af00      	add	r7, sp, #0
10003218:	4b0b      	ldr	r3, [pc, #44]	; (10003248 <panic+0x38>)
1000321a:	0018      	movs	r0, r3
1000321c:	f003 fd52 	bl	10006cc4 <__wrap_puts>
10003220:	693b      	ldr	r3, [r7, #16]
10003222:	2b00      	cmp	r3, #0
10003224:	d00c      	beq.n	10003240 <panic+0x30>
10003226:	2314      	movs	r3, #20
10003228:	18fb      	adds	r3, r7, r3
1000322a:	607b      	str	r3, [r7, #4]
1000322c:	687a      	ldr	r2, [r7, #4]
1000322e:	693b      	ldr	r3, [r7, #16]
10003230:	0011      	movs	r1, r2
10003232:	0018      	movs	r0, r3
10003234:	f003 fe0e 	bl	10006e54 <__wrap_vprintf>
10003238:	4b04      	ldr	r3, [pc, #16]	; (1000324c <panic+0x3c>)
1000323a:	0018      	movs	r0, r3
1000323c:	f003 fd42 	bl	10006cc4 <__wrap_puts>
10003240:	2001      	movs	r0, #1
10003242:	f7ff ff83 	bl	1000314c <_exit>
10003246:	46c0      	nop			; (mov r8, r8)
10003248:	100084e0 	.word	0x100084e0
1000324c:	100084f0 	.word	0x100084f0

10003250 <tight_loop_contents>:
10003250:	b580      	push	{r7, lr}
10003252:	af00      	add	r7, sp, #0
10003254:	46c0      	nop			; (mov r8, r8)
10003256:	46bd      	mov	sp, r7
10003258:	bd80      	pop	{r7, pc}

1000325a <hw_set_bits>:
1000325a:	b580      	push	{r7, lr}
1000325c:	b082      	sub	sp, #8
1000325e:	af00      	add	r7, sp, #0
10003260:	6078      	str	r0, [r7, #4]
10003262:	6039      	str	r1, [r7, #0]
10003264:	687b      	ldr	r3, [r7, #4]
10003266:	2280      	movs	r2, #128	; 0x80
10003268:	0192      	lsls	r2, r2, #6
1000326a:	4313      	orrs	r3, r2
1000326c:	683a      	ldr	r2, [r7, #0]
1000326e:	601a      	str	r2, [r3, #0]
10003270:	46c0      	nop			; (mov r8, r8)
10003272:	46bd      	mov	sp, r7
10003274:	b002      	add	sp, #8
10003276:	bd80      	pop	{r7, pc}

10003278 <hw_clear_bits>:
10003278:	b580      	push	{r7, lr}
1000327a:	b082      	sub	sp, #8
1000327c:	af00      	add	r7, sp, #0
1000327e:	6078      	str	r0, [r7, #4]
10003280:	6039      	str	r1, [r7, #0]
10003282:	687b      	ldr	r3, [r7, #4]
10003284:	22c0      	movs	r2, #192	; 0xc0
10003286:	0192      	lsls	r2, r2, #6
10003288:	4313      	orrs	r3, r2
1000328a:	683a      	ldr	r2, [r7, #0]
1000328c:	601a      	str	r2, [r3, #0]
1000328e:	46c0      	nop			; (mov r8, r8)
10003290:	46bd      	mov	sp, r7
10003292:	b002      	add	sp, #8
10003294:	bd80      	pop	{r7, pc}

10003296 <hw_xor_bits>:
10003296:	b580      	push	{r7, lr}
10003298:	b082      	sub	sp, #8
1000329a:	af00      	add	r7, sp, #0
1000329c:	6078      	str	r0, [r7, #4]
1000329e:	6039      	str	r1, [r7, #0]
100032a0:	687b      	ldr	r3, [r7, #4]
100032a2:	2280      	movs	r2, #128	; 0x80
100032a4:	0152      	lsls	r2, r2, #5
100032a6:	4313      	orrs	r3, r2
100032a8:	683a      	ldr	r2, [r7, #0]
100032aa:	601a      	str	r2, [r3, #0]
100032ac:	46c0      	nop			; (mov r8, r8)
100032ae:	46bd      	mov	sp, r7
100032b0:	b002      	add	sp, #8
100032b2:	bd80      	pop	{r7, pc}

100032b4 <hw_write_masked>:
100032b4:	b580      	push	{r7, lr}
100032b6:	b084      	sub	sp, #16
100032b8:	af00      	add	r7, sp, #0
100032ba:	60f8      	str	r0, [r7, #12]
100032bc:	60b9      	str	r1, [r7, #8]
100032be:	607a      	str	r2, [r7, #4]
100032c0:	68fb      	ldr	r3, [r7, #12]
100032c2:	681a      	ldr	r2, [r3, #0]
100032c4:	68bb      	ldr	r3, [r7, #8]
100032c6:	4053      	eors	r3, r2
100032c8:	687a      	ldr	r2, [r7, #4]
100032ca:	401a      	ands	r2, r3
100032cc:	68fb      	ldr	r3, [r7, #12]
100032ce:	0011      	movs	r1, r2
100032d0:	0018      	movs	r0, r3
100032d2:	f7ff ffe0 	bl	10003296 <hw_xor_bits>
100032d6:	46c0      	nop			; (mov r8, r8)
100032d8:	46bd      	mov	sp, r7
100032da:	b004      	add	sp, #16
100032dc:	bd80      	pop	{r7, pc}
	...

100032e0 <reset_block>:
100032e0:	b580      	push	{r7, lr}
100032e2:	b082      	sub	sp, #8
100032e4:	af00      	add	r7, sp, #0
100032e6:	6078      	str	r0, [r7, #4]
100032e8:	687b      	ldr	r3, [r7, #4]
100032ea:	4a04      	ldr	r2, [pc, #16]	; (100032fc <reset_block+0x1c>)
100032ec:	0019      	movs	r1, r3
100032ee:	0010      	movs	r0, r2
100032f0:	f7ff ffb3 	bl	1000325a <hw_set_bits>
100032f4:	46c0      	nop			; (mov r8, r8)
100032f6:	46bd      	mov	sp, r7
100032f8:	b002      	add	sp, #8
100032fa:	bd80      	pop	{r7, pc}
100032fc:	4000c000 	.word	0x4000c000

10003300 <unreset_block_wait>:
10003300:	b580      	push	{r7, lr}
10003302:	b082      	sub	sp, #8
10003304:	af00      	add	r7, sp, #0
10003306:	6078      	str	r0, [r7, #4]
10003308:	687b      	ldr	r3, [r7, #4]
1000330a:	4a09      	ldr	r2, [pc, #36]	; (10003330 <unreset_block_wait+0x30>)
1000330c:	0019      	movs	r1, r3
1000330e:	0010      	movs	r0, r2
10003310:	f7ff ffb2 	bl	10003278 <hw_clear_bits>
10003314:	e001      	b.n	1000331a <unreset_block_wait+0x1a>
10003316:	f7ff ff9b 	bl	10003250 <tight_loop_contents>
1000331a:	4b05      	ldr	r3, [pc, #20]	; (10003330 <unreset_block_wait+0x30>)
1000331c:	689b      	ldr	r3, [r3, #8]
1000331e:	43db      	mvns	r3, r3
10003320:	687a      	ldr	r2, [r7, #4]
10003322:	4013      	ands	r3, r2
10003324:	d1f7      	bne.n	10003316 <unreset_block_wait+0x16>
10003326:	46c0      	nop			; (mov r8, r8)
10003328:	46bd      	mov	sp, r7
1000332a:	b002      	add	sp, #8
1000332c:	bd80      	pop	{r7, pc}
1000332e:	46c0      	nop			; (mov r8, r8)
10003330:	4000c000 	.word	0x4000c000

10003334 <has_glitchless_mux>:
10003334:	b580      	push	{r7, lr}
10003336:	b082      	sub	sp, #8
10003338:	af00      	add	r7, sp, #0
1000333a:	0002      	movs	r2, r0
1000333c:	1dfb      	adds	r3, r7, #7
1000333e:	701a      	strb	r2, [r3, #0]
10003340:	1dfb      	adds	r3, r7, #7
10003342:	781b      	ldrb	r3, [r3, #0]
10003344:	2b05      	cmp	r3, #5
10003346:	d003      	beq.n	10003350 <has_glitchless_mux+0x1c>
10003348:	1dfb      	adds	r3, r7, #7
1000334a:	781b      	ldrb	r3, [r3, #0]
1000334c:	2b04      	cmp	r3, #4
1000334e:	d101      	bne.n	10003354 <has_glitchless_mux+0x20>
10003350:	2301      	movs	r3, #1
10003352:	e000      	b.n	10003356 <has_glitchless_mux+0x22>
10003354:	2300      	movs	r3, #0
10003356:	1c1a      	adds	r2, r3, #0
10003358:	2301      	movs	r3, #1
1000335a:	4013      	ands	r3, r2
1000335c:	b2db      	uxtb	r3, r3
1000335e:	0018      	movs	r0, r3
10003360:	46bd      	mov	sp, r7
10003362:	b002      	add	sp, #8
10003364:	bd80      	pop	{r7, pc}
	...

10003368 <clock_configure>:
10003368:	b5b0      	push	{r4, r5, r7, lr}
1000336a:	b08c      	sub	sp, #48	; 0x30
1000336c:	af00      	add	r7, sp, #0
1000336e:	61b9      	str	r1, [r7, #24]
10003370:	617a      	str	r2, [r7, #20]
10003372:	613b      	str	r3, [r7, #16]
10003374:	230f      	movs	r3, #15
10003376:	2210      	movs	r2, #16
10003378:	4694      	mov	ip, r2
1000337a:	44bc      	add	ip, r7
1000337c:	4463      	add	r3, ip
1000337e:	1c02      	adds	r2, r0, #0
10003380:	701a      	strb	r2, [r3, #0]
10003382:	693a      	ldr	r2, [r7, #16]
10003384:	6c3b      	ldr	r3, [r7, #64]	; 0x40
10003386:	429a      	cmp	r2, r3
10003388:	d205      	bcs.n	10003396 <clock_configure+0x2e>
1000338a:	4b5b      	ldr	r3, [pc, #364]	; (100034f8 <clock_configure+0x190>)
1000338c:	4a5b      	ldr	r2, [pc, #364]	; (100034fc <clock_configure+0x194>)
1000338e:	485c      	ldr	r0, [pc, #368]	; (10003500 <clock_configure+0x198>)
10003390:	212e      	movs	r1, #46	; 0x2e
10003392:	f7ff ff17 	bl	100031c4 <__assert_func>
10003396:	6c3a      	ldr	r2, [r7, #64]	; 0x40
10003398:	693b      	ldr	r3, [r7, #16]
1000339a:	429a      	cmp	r2, r3
1000339c:	d901      	bls.n	100033a2 <clock_configure+0x3a>
1000339e:	2300      	movs	r3, #0
100033a0:	e0a5      	b.n	100034ee <clock_configure+0x186>
100033a2:	693b      	ldr	r3, [r7, #16]
100033a4:	001c      	movs	r4, r3
100033a6:	2300      	movs	r3, #0
100033a8:	001d      	movs	r5, r3
100033aa:	0e23      	lsrs	r3, r4, #24
100033ac:	60fb      	str	r3, [r7, #12]
100033ae:	0223      	lsls	r3, r4, #8
100033b0:	60bb      	str	r3, [r7, #8]
100033b2:	6c3b      	ldr	r3, [r7, #64]	; 0x40
100033b4:	603b      	str	r3, [r7, #0]
100033b6:	2300      	movs	r3, #0
100033b8:	607b      	str	r3, [r7, #4]
100033ba:	683a      	ldr	r2, [r7, #0]
100033bc:	687b      	ldr	r3, [r7, #4]
100033be:	68b8      	ldr	r0, [r7, #8]
100033c0:	68f9      	ldr	r1, [r7, #12]
100033c2:	f002 fb41 	bl	10005a48 <__wrap___aeabi_uldivmod>
100033c6:	0003      	movs	r3, r0
100033c8:	000c      	movs	r4, r1
100033ca:	62fb      	str	r3, [r7, #44]	; 0x2c
100033cc:	230f      	movs	r3, #15
100033ce:	2210      	movs	r2, #16
100033d0:	4694      	mov	ip, r2
100033d2:	44bc      	add	ip, r7
100033d4:	4463      	add	r3, ip
100033d6:	781a      	ldrb	r2, [r3, #0]
100033d8:	0013      	movs	r3, r2
100033da:	005b      	lsls	r3, r3, #1
100033dc:	189b      	adds	r3, r3, r2
100033de:	009b      	lsls	r3, r3, #2
100033e0:	4a48      	ldr	r2, [pc, #288]	; (10003504 <clock_configure+0x19c>)
100033e2:	4694      	mov	ip, r2
100033e4:	4463      	add	r3, ip
100033e6:	62bb      	str	r3, [r7, #40]	; 0x28
100033e8:	6abb      	ldr	r3, [r7, #40]	; 0x28
100033ea:	685a      	ldr	r2, [r3, #4]
100033ec:	6afb      	ldr	r3, [r7, #44]	; 0x2c
100033ee:	429a      	cmp	r2, r3
100033f0:	d202      	bcs.n	100033f8 <clock_configure+0x90>
100033f2:	6abb      	ldr	r3, [r7, #40]	; 0x28
100033f4:	6afa      	ldr	r2, [r7, #44]	; 0x2c
100033f6:	605a      	str	r2, [r3, #4]
100033f8:	230f      	movs	r3, #15
100033fa:	2210      	movs	r2, #16
100033fc:	4694      	mov	ip, r2
100033fe:	44bc      	add	ip, r7
10003400:	4463      	add	r3, ip
10003402:	781b      	ldrb	r3, [r3, #0]
10003404:	0018      	movs	r0, r3
10003406:	f7ff ff95 	bl	10003334 <has_glitchless_mux>
1000340a:	1e03      	subs	r3, r0, #0
1000340c:	d010      	beq.n	10003430 <clock_configure+0xc8>
1000340e:	69bb      	ldr	r3, [r7, #24]
10003410:	2b01      	cmp	r3, #1
10003412:	d10d      	bne.n	10003430 <clock_configure+0xc8>
10003414:	6abb      	ldr	r3, [r7, #40]	; 0x28
10003416:	2103      	movs	r1, #3
10003418:	0018      	movs	r0, r3
1000341a:	f7ff ff2d 	bl	10003278 <hw_clear_bits>
1000341e:	e001      	b.n	10003424 <clock_configure+0xbc>
10003420:	f7ff ff16 	bl	10003250 <tight_loop_contents>
10003424:	6abb      	ldr	r3, [r7, #40]	; 0x28
10003426:	689b      	ldr	r3, [r3, #8]
10003428:	2201      	movs	r2, #1
1000342a:	4013      	ands	r3, r2
1000342c:	d0f8      	beq.n	10003420 <clock_configure+0xb8>
1000342e:	e026      	b.n	1000347e <clock_configure+0x116>
10003430:	6aba      	ldr	r2, [r7, #40]	; 0x28
10003432:	2380      	movs	r3, #128	; 0x80
10003434:	011b      	lsls	r3, r3, #4
10003436:	0019      	movs	r1, r3
10003438:	0010      	movs	r0, r2
1000343a:	f7ff ff1d 	bl	10003278 <hw_clear_bits>
1000343e:	230f      	movs	r3, #15
10003440:	2210      	movs	r2, #16
10003442:	4694      	mov	ip, r2
10003444:	44bc      	add	ip, r7
10003446:	4463      	add	r3, ip
10003448:	781a      	ldrb	r2, [r3, #0]
1000344a:	4b2f      	ldr	r3, [pc, #188]	; (10003508 <clock_configure+0x1a0>)
1000344c:	0092      	lsls	r2, r2, #2
1000344e:	58d3      	ldr	r3, [r2, r3]
10003450:	2b00      	cmp	r3, #0
10003452:	d014      	beq.n	1000347e <clock_configure+0x116>
10003454:	4b2c      	ldr	r3, [pc, #176]	; (10003508 <clock_configure+0x1a0>)
10003456:	6958      	ldr	r0, [r3, #20]
10003458:	230f      	movs	r3, #15
1000345a:	2210      	movs	r2, #16
1000345c:	4694      	mov	ip, r2
1000345e:	44bc      	add	ip, r7
10003460:	4463      	add	r3, ip
10003462:	781a      	ldrb	r2, [r3, #0]
10003464:	4b28      	ldr	r3, [pc, #160]	; (10003508 <clock_configure+0x1a0>)
10003466:	0092      	lsls	r2, r2, #2
10003468:	58d3      	ldr	r3, [r2, r3]
1000346a:	0019      	movs	r1, r3
1000346c:	f002 faa6 	bl	100059bc <__wrap___aeabi_uidiv>
10003470:	0003      	movs	r3, r0
10003472:	3301      	adds	r3, #1
10003474:	627b      	str	r3, [r7, #36]	; 0x24
10003476:	6a7b      	ldr	r3, [r7, #36]	; 0x24
10003478:	3b01      	subs	r3, #1
1000347a:	d1fd      	bne.n	10003478 <clock_configure+0x110>
1000347c:	627b      	str	r3, [r7, #36]	; 0x24
1000347e:	6ab8      	ldr	r0, [r7, #40]	; 0x28
10003480:	697b      	ldr	r3, [r7, #20]
10003482:	015b      	lsls	r3, r3, #5
10003484:	22e0      	movs	r2, #224	; 0xe0
10003486:	0019      	movs	r1, r3
10003488:	f7ff ff14 	bl	100032b4 <hw_write_masked>
1000348c:	230f      	movs	r3, #15
1000348e:	2210      	movs	r2, #16
10003490:	4694      	mov	ip, r2
10003492:	44bc      	add	ip, r7
10003494:	4463      	add	r3, ip
10003496:	781b      	ldrb	r3, [r3, #0]
10003498:	0018      	movs	r0, r3
1000349a:	f7ff ff4b 	bl	10003334 <has_glitchless_mux>
1000349e:	1e03      	subs	r3, r0, #0
100034a0:	d010      	beq.n	100034c4 <clock_configure+0x15c>
100034a2:	6abb      	ldr	r3, [r7, #40]	; 0x28
100034a4:	69b9      	ldr	r1, [r7, #24]
100034a6:	2203      	movs	r2, #3
100034a8:	0018      	movs	r0, r3
100034aa:	f7ff ff03 	bl	100032b4 <hw_write_masked>
100034ae:	e001      	b.n	100034b4 <clock_configure+0x14c>
100034b0:	f7ff fece 	bl	10003250 <tight_loop_contents>
100034b4:	6abb      	ldr	r3, [r7, #40]	; 0x28
100034b6:	689b      	ldr	r3, [r3, #8]
100034b8:	2101      	movs	r1, #1
100034ba:	69ba      	ldr	r2, [r7, #24]
100034bc:	4091      	lsls	r1, r2
100034be:	000a      	movs	r2, r1
100034c0:	4013      	ands	r3, r2
100034c2:	d0f5      	beq.n	100034b0 <clock_configure+0x148>
100034c4:	6aba      	ldr	r2, [r7, #40]	; 0x28
100034c6:	2380      	movs	r3, #128	; 0x80
100034c8:	011b      	lsls	r3, r3, #4
100034ca:	0019      	movs	r1, r3
100034cc:	0010      	movs	r0, r2
100034ce:	f7ff fec4 	bl	1000325a <hw_set_bits>
100034d2:	6abb      	ldr	r3, [r7, #40]	; 0x28
100034d4:	6afa      	ldr	r2, [r7, #44]	; 0x2c
100034d6:	605a      	str	r2, [r3, #4]
100034d8:	230f      	movs	r3, #15
100034da:	2210      	movs	r2, #16
100034dc:	4694      	mov	ip, r2
100034de:	44bc      	add	ip, r7
100034e0:	4463      	add	r3, ip
100034e2:	781a      	ldrb	r2, [r3, #0]
100034e4:	4b08      	ldr	r3, [pc, #32]	; (10003508 <clock_configure+0x1a0>)
100034e6:	0092      	lsls	r2, r2, #2
100034e8:	6c39      	ldr	r1, [r7, #64]	; 0x40
100034ea:	50d1      	str	r1, [r2, r3]
100034ec:	2301      	movs	r3, #1
100034ee:	0018      	movs	r0, r3
100034f0:	46bd      	mov	sp, r7
100034f2:	b00c      	add	sp, #48	; 0x30
100034f4:	bdb0      	pop	{r4, r5, r7, pc}
100034f6:	46c0      	nop			; (mov r8, r8)
100034f8:	10008500 	.word	0x10008500
100034fc:	10008604 	.word	0x10008604
10003500:	10008514 	.word	0x10008514
10003504:	40008000 	.word	0x40008000
10003508:	20000fc8 	.word	0x20000fc8

1000350c <clocks_init>:
1000350c:	b580      	push	{r7, lr}
1000350e:	b084      	sub	sp, #16
10003510:	af02      	add	r7, sp, #8
10003512:	200c      	movs	r0, #12
10003514:	f000 f8b0 	bl	10003678 <watchdog_start_tick>
10003518:	f7fd ff64 	bl	100013e4 <running_on_fpga>
1000351c:	1e03      	subs	r3, r0, #0
1000351e:	d011      	beq.n	10003544 <clocks_init+0x38>
10003520:	2300      	movs	r3, #0
10003522:	607b      	str	r3, [r7, #4]
10003524:	e007      	b.n	10003536 <clocks_init+0x2a>
10003526:	4b3f      	ldr	r3, [pc, #252]	; (10003624 <clocks_init+0x118>)
10003528:	687a      	ldr	r2, [r7, #4]
1000352a:	0092      	lsls	r2, r2, #2
1000352c:	493e      	ldr	r1, [pc, #248]	; (10003628 <clocks_init+0x11c>)
1000352e:	50d1      	str	r1, [r2, r3]
10003530:	687b      	ldr	r3, [r7, #4]
10003532:	3301      	adds	r3, #1
10003534:	607b      	str	r3, [r7, #4]
10003536:	687b      	ldr	r3, [r7, #4]
10003538:	2b09      	cmp	r3, #9
1000353a:	d9f4      	bls.n	10003526 <clocks_init+0x1a>
1000353c:	4b39      	ldr	r3, [pc, #228]	; (10003624 <clocks_init+0x118>)
1000353e:	4a3b      	ldr	r2, [pc, #236]	; (1000362c <clocks_init+0x120>)
10003540:	625a      	str	r2, [r3, #36]	; 0x24
10003542:	e06c      	b.n	1000361e <clocks_init+0x112>
10003544:	4b3a      	ldr	r3, [pc, #232]	; (10003630 <clocks_init+0x124>)
10003546:	2200      	movs	r2, #0
10003548:	679a      	str	r2, [r3, #120]	; 0x78
1000354a:	f000 f8b5 	bl	100036b8 <xosc_init>
1000354e:	4b39      	ldr	r3, [pc, #228]	; (10003634 <clocks_init+0x128>)
10003550:	2101      	movs	r1, #1
10003552:	0018      	movs	r0, r3
10003554:	f7ff fe90 	bl	10003278 <hw_clear_bits>
10003558:	e001      	b.n	1000355e <clocks_init+0x52>
1000355a:	f7ff fe79 	bl	10003250 <tight_loop_contents>
1000355e:	4b34      	ldr	r3, [pc, #208]	; (10003630 <clocks_init+0x124>)
10003560:	6c5b      	ldr	r3, [r3, #68]	; 0x44
10003562:	2b01      	cmp	r3, #1
10003564:	d1f9      	bne.n	1000355a <clocks_init+0x4e>
10003566:	4b34      	ldr	r3, [pc, #208]	; (10003638 <clocks_init+0x12c>)
10003568:	2103      	movs	r1, #3
1000356a:	0018      	movs	r0, r3
1000356c:	f7ff fe84 	bl	10003278 <hw_clear_bits>
10003570:	e001      	b.n	10003576 <clocks_init+0x6a>
10003572:	f7ff fe6d 	bl	10003250 <tight_loop_contents>
10003576:	4b2e      	ldr	r3, [pc, #184]	; (10003630 <clocks_init+0x124>)
10003578:	6b9b      	ldr	r3, [r3, #56]	; 0x38
1000357a:	2b01      	cmp	r3, #1
1000357c:	d1f9      	bne.n	10003572 <clocks_init+0x66>
1000357e:	23c0      	movs	r3, #192	; 0xc0
10003580:	019b      	lsls	r3, r3, #6
10003582:	0018      	movs	r0, r3
10003584:	f7ff feac 	bl	100032e0 <reset_block>
10003588:	23c0      	movs	r3, #192	; 0xc0
1000358a:	019b      	lsls	r3, r3, #6
1000358c:	0018      	movs	r0, r3
1000358e:	f7ff feb7 	bl	10003300 <unreset_block_wait>
10003592:	4a2a      	ldr	r2, [pc, #168]	; (1000363c <clocks_init+0x130>)
10003594:	482a      	ldr	r0, [pc, #168]	; (10003640 <clocks_init+0x134>)
10003596:	2302      	movs	r3, #2
10003598:	9300      	str	r3, [sp, #0]
1000359a:	2306      	movs	r3, #6
1000359c:	2101      	movs	r1, #1
1000359e:	f000 f8bf 	bl	10003720 <pll_init>
100035a2:	4a28      	ldr	r2, [pc, #160]	; (10003644 <clocks_init+0x138>)
100035a4:	4828      	ldr	r0, [pc, #160]	; (10003648 <clocks_init+0x13c>)
100035a6:	2302      	movs	r3, #2
100035a8:	9300      	str	r3, [sp, #0]
100035aa:	2305      	movs	r3, #5
100035ac:	2101      	movs	r1, #1
100035ae:	f000 f8b7 	bl	10003720 <pll_init>
100035b2:	4a26      	ldr	r2, [pc, #152]	; (1000364c <clocks_init+0x140>)
100035b4:	4b25      	ldr	r3, [pc, #148]	; (1000364c <clocks_init+0x140>)
100035b6:	9300      	str	r3, [sp, #0]
100035b8:	0013      	movs	r3, r2
100035ba:	2200      	movs	r2, #0
100035bc:	2102      	movs	r1, #2
100035be:	2004      	movs	r0, #4
100035c0:	f7ff fed2 	bl	10003368 <clock_configure>
100035c4:	4a22      	ldr	r2, [pc, #136]	; (10003650 <clocks_init+0x144>)
100035c6:	4b22      	ldr	r3, [pc, #136]	; (10003650 <clocks_init+0x144>)
100035c8:	9300      	str	r3, [sp, #0]
100035ca:	0013      	movs	r3, r2
100035cc:	2200      	movs	r2, #0
100035ce:	2101      	movs	r1, #1
100035d0:	2005      	movs	r0, #5
100035d2:	f7ff fec9 	bl	10003368 <clock_configure>
100035d6:	4a14      	ldr	r2, [pc, #80]	; (10003628 <clocks_init+0x11c>)
100035d8:	4b13      	ldr	r3, [pc, #76]	; (10003628 <clocks_init+0x11c>)
100035da:	9300      	str	r3, [sp, #0]
100035dc:	0013      	movs	r3, r2
100035de:	2200      	movs	r2, #0
100035e0:	2100      	movs	r1, #0
100035e2:	2007      	movs	r0, #7
100035e4:	f7ff fec0 	bl	10003368 <clock_configure>
100035e8:	4a0f      	ldr	r2, [pc, #60]	; (10003628 <clocks_init+0x11c>)
100035ea:	4b0f      	ldr	r3, [pc, #60]	; (10003628 <clocks_init+0x11c>)
100035ec:	9300      	str	r3, [sp, #0]
100035ee:	0013      	movs	r3, r2
100035f0:	2200      	movs	r2, #0
100035f2:	2100      	movs	r1, #0
100035f4:	2008      	movs	r0, #8
100035f6:	f7ff feb7 	bl	10003368 <clock_configure>
100035fa:	4a0b      	ldr	r2, [pc, #44]	; (10003628 <clocks_init+0x11c>)
100035fc:	4b0b      	ldr	r3, [pc, #44]	; (1000362c <clocks_init+0x120>)
100035fe:	9300      	str	r3, [sp, #0]
10003600:	0013      	movs	r3, r2
10003602:	2200      	movs	r2, #0
10003604:	2100      	movs	r1, #0
10003606:	2009      	movs	r0, #9
10003608:	f7ff feae 	bl	10003368 <clock_configure>
1000360c:	4a10      	ldr	r2, [pc, #64]	; (10003650 <clocks_init+0x144>)
1000360e:	4b10      	ldr	r3, [pc, #64]	; (10003650 <clocks_init+0x144>)
10003610:	9300      	str	r3, [sp, #0]
10003612:	0013      	movs	r3, r2
10003614:	2200      	movs	r2, #0
10003616:	2100      	movs	r1, #0
10003618:	2006      	movs	r0, #6
1000361a:	f7ff fea5 	bl	10003368 <clock_configure>
1000361e:	46bd      	mov	sp, r7
10003620:	b002      	add	sp, #8
10003622:	bd80      	pop	{r7, pc}
10003624:	20000fc8 	.word	0x20000fc8
10003628:	02dc6c00 	.word	0x02dc6c00
1000362c:	0000b71b 	.word	0x0000b71b
10003630:	40008000 	.word	0x40008000
10003634:	4000803c 	.word	0x4000803c
10003638:	40008030 	.word	0x40008030
1000363c:	59682f00 	.word	0x59682f00
10003640:	40028000 	.word	0x40028000
10003644:	1c9c3800 	.word	0x1c9c3800
10003648:	4002c000 	.word	0x4002c000
1000364c:	00b71b00 	.word	0x00b71b00
10003650:	07735940 	.word	0x07735940

10003654 <clock_get_hz>:
10003654:	b580      	push	{r7, lr}
10003656:	b082      	sub	sp, #8
10003658:	af00      	add	r7, sp, #0
1000365a:	0002      	movs	r2, r0
1000365c:	1dfb      	adds	r3, r7, #7
1000365e:	701a      	strb	r2, [r3, #0]
10003660:	1dfb      	adds	r3, r7, #7
10003662:	781a      	ldrb	r2, [r3, #0]
10003664:	4b03      	ldr	r3, [pc, #12]	; (10003674 <clock_get_hz+0x20>)
10003666:	0092      	lsls	r2, r2, #2
10003668:	58d3      	ldr	r3, [r2, r3]
1000366a:	0018      	movs	r0, r3
1000366c:	46bd      	mov	sp, r7
1000366e:	b002      	add	sp, #8
10003670:	bd80      	pop	{r7, pc}
10003672:	46c0      	nop			; (mov r8, r8)
10003674:	20000fc8 	.word	0x20000fc8

10003678 <watchdog_start_tick>:
10003678:	b580      	push	{r7, lr}
1000367a:	b082      	sub	sp, #8
1000367c:	af00      	add	r7, sp, #0
1000367e:	6078      	str	r0, [r7, #4]
10003680:	4b04      	ldr	r3, [pc, #16]	; (10003694 <watchdog_start_tick+0x1c>)
10003682:	687a      	ldr	r2, [r7, #4]
10003684:	2180      	movs	r1, #128	; 0x80
10003686:	0089      	lsls	r1, r1, #2
10003688:	430a      	orrs	r2, r1
1000368a:	62da      	str	r2, [r3, #44]	; 0x2c
1000368c:	46c0      	nop			; (mov r8, r8)
1000368e:	46bd      	mov	sp, r7
10003690:	b002      	add	sp, #8
10003692:	bd80      	pop	{r7, pc}
10003694:	40058000 	.word	0x40058000

10003698 <hw_set_bits>:
10003698:	b580      	push	{r7, lr}
1000369a:	b082      	sub	sp, #8
1000369c:	af00      	add	r7, sp, #0
1000369e:	6078      	str	r0, [r7, #4]
100036a0:	6039      	str	r1, [r7, #0]
100036a2:	687b      	ldr	r3, [r7, #4]
100036a4:	2280      	movs	r2, #128	; 0x80
100036a6:	0192      	lsls	r2, r2, #6
100036a8:	4313      	orrs	r3, r2
100036aa:	683a      	ldr	r2, [r7, #0]
100036ac:	601a      	str	r2, [r3, #0]
100036ae:	46c0      	nop			; (mov r8, r8)
100036b0:	46bd      	mov	sp, r7
100036b2:	b002      	add	sp, #8
100036b4:	bd80      	pop	{r7, pc}
	...

100036b8 <xosc_init>:
100036b8:	b580      	push	{r7, lr}
100036ba:	b082      	sub	sp, #8
100036bc:	af00      	add	r7, sp, #0
100036be:	4b0c      	ldr	r3, [pc, #48]	; (100036f0 <xosc_init+0x38>)
100036c0:	22aa      	movs	r2, #170	; 0xaa
100036c2:	0112      	lsls	r2, r2, #4
100036c4:	601a      	str	r2, [r3, #0]
100036c6:	232f      	movs	r3, #47	; 0x2f
100036c8:	607b      	str	r3, [r7, #4]
100036ca:	4b09      	ldr	r3, [pc, #36]	; (100036f0 <xosc_init+0x38>)
100036cc:	687a      	ldr	r2, [r7, #4]
100036ce:	60da      	str	r2, [r3, #12]
100036d0:	4a08      	ldr	r2, [pc, #32]	; (100036f4 <xosc_init+0x3c>)
100036d2:	4b07      	ldr	r3, [pc, #28]	; (100036f0 <xosc_init+0x38>)
100036d4:	0011      	movs	r1, r2
100036d6:	0018      	movs	r0, r3
100036d8:	f7ff ffde 	bl	10003698 <hw_set_bits>
100036dc:	46c0      	nop			; (mov r8, r8)
100036de:	4b04      	ldr	r3, [pc, #16]	; (100036f0 <xosc_init+0x38>)
100036e0:	685b      	ldr	r3, [r3, #4]
100036e2:	2b00      	cmp	r3, #0
100036e4:	dafb      	bge.n	100036de <xosc_init+0x26>
100036e6:	46c0      	nop			; (mov r8, r8)
100036e8:	46bd      	mov	sp, r7
100036ea:	b002      	add	sp, #8
100036ec:	bd80      	pop	{r7, pc}
100036ee:	46c0      	nop			; (mov r8, r8)
100036f0:	40024000 	.word	0x40024000
100036f4:	00fab000 	.word	0x00fab000

100036f8 <tight_loop_contents>:
100036f8:	b580      	push	{r7, lr}
100036fa:	af00      	add	r7, sp, #0
100036fc:	46c0      	nop			; (mov r8, r8)
100036fe:	46bd      	mov	sp, r7
10003700:	bd80      	pop	{r7, pc}

10003702 <hw_clear_bits>:
10003702:	b580      	push	{r7, lr}
10003704:	b082      	sub	sp, #8
10003706:	af00      	add	r7, sp, #0
10003708:	6078      	str	r0, [r7, #4]
1000370a:	6039      	str	r1, [r7, #0]
1000370c:	687b      	ldr	r3, [r7, #4]
1000370e:	22c0      	movs	r2, #192	; 0xc0
10003710:	0192      	lsls	r2, r2, #6
10003712:	4313      	orrs	r3, r2
10003714:	683a      	ldr	r2, [r7, #0]
10003716:	601a      	str	r2, [r3, #0]
10003718:	46c0      	nop			; (mov r8, r8)
1000371a:	46bd      	mov	sp, r7
1000371c:	b002      	add	sp, #8
1000371e:	bd80      	pop	{r7, pc}

10003720 <pll_init>:
10003720:	b580      	push	{r7, lr}
10003722:	b088      	sub	sp, #32
10003724:	af00      	add	r7, sp, #0
10003726:	60f8      	str	r0, [r7, #12]
10003728:	60b9      	str	r1, [r7, #8]
1000372a:	607a      	str	r2, [r7, #4]
1000372c:	603b      	str	r3, [r7, #0]
1000372e:	68fb      	ldr	r3, [r7, #12]
10003730:	2201      	movs	r2, #1
10003732:	4252      	negs	r2, r2
10003734:	605a      	str	r2, [r3, #4]
10003736:	68fb      	ldr	r3, [r7, #12]
10003738:	2200      	movs	r2, #0
1000373a:	609a      	str	r2, [r3, #8]
1000373c:	68b9      	ldr	r1, [r7, #8]
1000373e:	200c      	movs	r0, #12
10003740:	f002 f93c 	bl	100059bc <__wrap___aeabi_uidiv>
10003744:	0003      	movs	r3, r0
10003746:	61fb      	str	r3, [r7, #28]
10003748:	68fb      	ldr	r3, [r7, #12]
1000374a:	68ba      	ldr	r2, [r7, #8]
1000374c:	601a      	str	r2, [r3, #0]
1000374e:	69fb      	ldr	r3, [r7, #28]
10003750:	4a35      	ldr	r2, [pc, #212]	; (10003828 <pll_init+0x108>)
10003752:	4353      	muls	r3, r2
10003754:	0019      	movs	r1, r3
10003756:	6878      	ldr	r0, [r7, #4]
10003758:	f002 f930 	bl	100059bc <__wrap___aeabi_uidiv>
1000375c:	0003      	movs	r3, r0
1000375e:	61bb      	str	r3, [r7, #24]
10003760:	69bb      	ldr	r3, [r7, #24]
10003762:	2b0f      	cmp	r3, #15
10003764:	d904      	bls.n	10003770 <pll_init+0x50>
10003766:	69ba      	ldr	r2, [r7, #24]
10003768:	23a0      	movs	r3, #160	; 0xa0
1000376a:	005b      	lsls	r3, r3, #1
1000376c:	429a      	cmp	r2, r3
1000376e:	d905      	bls.n	1000377c <pll_init+0x5c>
10003770:	4b2e      	ldr	r3, [pc, #184]	; (1000382c <pll_init+0x10c>)
10003772:	4a2f      	ldr	r2, [pc, #188]	; (10003830 <pll_init+0x110>)
10003774:	482f      	ldr	r0, [pc, #188]	; (10003834 <pll_init+0x114>)
10003776:	211a      	movs	r1, #26
10003778:	f7ff fd24 	bl	100031c4 <__assert_func>
1000377c:	683b      	ldr	r3, [r7, #0]
1000377e:	2b00      	cmp	r3, #0
10003780:	d00c      	beq.n	1000379c <pll_init+0x7c>
10003782:	683b      	ldr	r3, [r7, #0]
10003784:	2b07      	cmp	r3, #7
10003786:	d809      	bhi.n	1000379c <pll_init+0x7c>
10003788:	2328      	movs	r3, #40	; 0x28
1000378a:	18fb      	adds	r3, r7, r3
1000378c:	781b      	ldrb	r3, [r3, #0]
1000378e:	2b00      	cmp	r3, #0
10003790:	d004      	beq.n	1000379c <pll_init+0x7c>
10003792:	2328      	movs	r3, #40	; 0x28
10003794:	18fb      	adds	r3, r7, r3
10003796:	781b      	ldrb	r3, [r3, #0]
10003798:	2b07      	cmp	r3, #7
1000379a:	d905      	bls.n	100037a8 <pll_init+0x88>
1000379c:	4b26      	ldr	r3, [pc, #152]	; (10003838 <pll_init+0x118>)
1000379e:	4a24      	ldr	r2, [pc, #144]	; (10003830 <pll_init+0x110>)
100037a0:	4824      	ldr	r0, [pc, #144]	; (10003834 <pll_init+0x114>)
100037a2:	211d      	movs	r1, #29
100037a4:	f7ff fd0e 	bl	100031c4 <__assert_func>
100037a8:	2328      	movs	r3, #40	; 0x28
100037aa:	18fb      	adds	r3, r7, r3
100037ac:	781a      	ldrb	r2, [r3, #0]
100037ae:	683b      	ldr	r3, [r7, #0]
100037b0:	429a      	cmp	r2, r3
100037b2:	d905      	bls.n	100037c0 <pll_init+0xa0>
100037b4:	4b21      	ldr	r3, [pc, #132]	; (1000383c <pll_init+0x11c>)
100037b6:	4a1e      	ldr	r2, [pc, #120]	; (10003830 <pll_init+0x110>)
100037b8:	481e      	ldr	r0, [pc, #120]	; (10003834 <pll_init+0x114>)
100037ba:	2123      	movs	r1, #35	; 0x23
100037bc:	f7ff fd02 	bl	100031c4 <__assert_func>
100037c0:	687b      	ldr	r3, [r7, #4]
100037c2:	091a      	lsrs	r2, r3, #4
100037c4:	69fb      	ldr	r3, [r7, #28]
100037c6:	429a      	cmp	r2, r3
100037c8:	d205      	bcs.n	100037d6 <pll_init+0xb6>
100037ca:	4b1d      	ldr	r3, [pc, #116]	; (10003840 <pll_init+0x120>)
100037cc:	4a18      	ldr	r2, [pc, #96]	; (10003830 <pll_init+0x110>)
100037ce:	4819      	ldr	r0, [pc, #100]	; (10003834 <pll_init+0x114>)
100037d0:	2127      	movs	r1, #39	; 0x27
100037d2:	f7ff fcf7 	bl	100031c4 <__assert_func>
100037d6:	68fb      	ldr	r3, [r7, #12]
100037d8:	69ba      	ldr	r2, [r7, #24]
100037da:	609a      	str	r2, [r3, #8]
100037dc:	2321      	movs	r3, #33	; 0x21
100037de:	617b      	str	r3, [r7, #20]
100037e0:	68fb      	ldr	r3, [r7, #12]
100037e2:	3304      	adds	r3, #4
100037e4:	697a      	ldr	r2, [r7, #20]
100037e6:	0011      	movs	r1, r2
100037e8:	0018      	movs	r0, r3
100037ea:	f7ff ff8a 	bl	10003702 <hw_clear_bits>
100037ee:	e001      	b.n	100037f4 <pll_init+0xd4>
100037f0:	f7ff ff82 	bl	100036f8 <tight_loop_contents>
100037f4:	68fb      	ldr	r3, [r7, #12]
100037f6:	681b      	ldr	r3, [r3, #0]
100037f8:	2b00      	cmp	r3, #0
100037fa:	daf9      	bge.n	100037f0 <pll_init+0xd0>
100037fc:	683b      	ldr	r3, [r7, #0]
100037fe:	041b      	lsls	r3, r3, #16
10003800:	2228      	movs	r2, #40	; 0x28
10003802:	18ba      	adds	r2, r7, r2
10003804:	7812      	ldrb	r2, [r2, #0]
10003806:	0312      	lsls	r2, r2, #12
10003808:	4313      	orrs	r3, r2
1000380a:	613b      	str	r3, [r7, #16]
1000380c:	68fb      	ldr	r3, [r7, #12]
1000380e:	693a      	ldr	r2, [r7, #16]
10003810:	60da      	str	r2, [r3, #12]
10003812:	68fb      	ldr	r3, [r7, #12]
10003814:	3304      	adds	r3, #4
10003816:	2108      	movs	r1, #8
10003818:	0018      	movs	r0, r3
1000381a:	f7ff ff72 	bl	10003702 <hw_clear_bits>
1000381e:	46c0      	nop			; (mov r8, r8)
10003820:	46bd      	mov	sp, r7
10003822:	b008      	add	sp, #32
10003824:	bd80      	pop	{r7, pc}
10003826:	46c0      	nop			; (mov r8, r8)
10003828:	000f4240 	.word	0x000f4240
1000382c:	10008614 	.word	0x10008614
10003830:	100086f8 	.word	0x100086f8
10003834:	10008630 	.word	0x10008630
10003838:	10008678 	.word	0x10008678
1000383c:	100086c4 	.word	0x100086c4
10003840:	100086dc 	.word	0x100086dc

10003844 <__dmb>:
10003844:	b580      	push	{r7, lr}
10003846:	af00      	add	r7, sp, #0
10003848:	f3bf 8f5f 	dmb	sy
1000384c:	46c0      	nop			; (mov r8, r8)
1000384e:	46bd      	mov	sp, r7
10003850:	bd80      	pop	{r7, pc}

10003852 <__mem_fence_acquire>:
10003852:	b580      	push	{r7, lr}
10003854:	af00      	add	r7, sp, #0
10003856:	f7ff fff5 	bl	10003844 <__dmb>
1000385a:	46c0      	nop			; (mov r8, r8)
1000385c:	46bd      	mov	sp, r7
1000385e:	bd80      	pop	{r7, pc}

10003860 <__mem_fence_release>:
10003860:	b580      	push	{r7, lr}
10003862:	af00      	add	r7, sp, #0
10003864:	f7ff ffee 	bl	10003844 <__dmb>
10003868:	46c0      	nop			; (mov r8, r8)
1000386a:	46bd      	mov	sp, r7
1000386c:	bd80      	pop	{r7, pc}

1000386e <save_and_disable_interrupts>:
1000386e:	b580      	push	{r7, lr}
10003870:	b082      	sub	sp, #8
10003872:	af00      	add	r7, sp, #0
10003874:	f3ef 8310 	mrs	r3, PRIMASK
10003878:	607b      	str	r3, [r7, #4]
1000387a:	b672      	cpsid	i
1000387c:	687b      	ldr	r3, [r7, #4]
1000387e:	0018      	movs	r0, r3
10003880:	46bd      	mov	sp, r7
10003882:	b002      	add	sp, #8
10003884:	bd80      	pop	{r7, pc}

10003886 <restore_interrupts>:
10003886:	b580      	push	{r7, lr}
10003888:	b082      	sub	sp, #8
1000388a:	af00      	add	r7, sp, #0
1000388c:	6078      	str	r0, [r7, #4]
1000388e:	687b      	ldr	r3, [r7, #4]
10003890:	f383 8810 	msr	PRIMASK, r3
10003894:	46c0      	nop			; (mov r8, r8)
10003896:	46bd      	mov	sp, r7
10003898:	b002      	add	sp, #8
1000389a:	bd80      	pop	{r7, pc}

1000389c <spin_lock_instance>:
1000389c:	b580      	push	{r7, lr}
1000389e:	b082      	sub	sp, #8
100038a0:	af00      	add	r7, sp, #0
100038a2:	6078      	str	r0, [r7, #4]
100038a4:	687b      	ldr	r3, [r7, #4]
100038a6:	4a04      	ldr	r2, [pc, #16]	; (100038b8 <spin_lock_instance+0x1c>)
100038a8:	4694      	mov	ip, r2
100038aa:	4463      	add	r3, ip
100038ac:	009b      	lsls	r3, r3, #2
100038ae:	0018      	movs	r0, r3
100038b0:	46bd      	mov	sp, r7
100038b2:	b002      	add	sp, #8
100038b4:	bd80      	pop	{r7, pc}
100038b6:	46c0      	nop			; (mov r8, r8)
100038b8:	34000040 	.word	0x34000040

100038bc <spin_lock_unsafe_blocking>:
100038bc:	b580      	push	{r7, lr}
100038be:	b082      	sub	sp, #8
100038c0:	af00      	add	r7, sp, #0
100038c2:	6078      	str	r0, [r7, #4]
100038c4:	46c0      	nop			; (mov r8, r8)
100038c6:	687b      	ldr	r3, [r7, #4]
100038c8:	681b      	ldr	r3, [r3, #0]
100038ca:	425a      	negs	r2, r3
100038cc:	4153      	adcs	r3, r2
100038ce:	b2db      	uxtb	r3, r3
100038d0:	2b00      	cmp	r3, #0
100038d2:	d1f8      	bne.n	100038c6 <spin_lock_unsafe_blocking+0xa>
100038d4:	f7ff ffbd 	bl	10003852 <__mem_fence_acquire>
100038d8:	46c0      	nop			; (mov r8, r8)
100038da:	46bd      	mov	sp, r7
100038dc:	b002      	add	sp, #8
100038de:	bd80      	pop	{r7, pc}

100038e0 <spin_unlock_unsafe>:
100038e0:	b580      	push	{r7, lr}
100038e2:	b082      	sub	sp, #8
100038e4:	af00      	add	r7, sp, #0
100038e6:	6078      	str	r0, [r7, #4]
100038e8:	f7ff ffba 	bl	10003860 <__mem_fence_release>
100038ec:	687b      	ldr	r3, [r7, #4]
100038ee:	2200      	movs	r2, #0
100038f0:	601a      	str	r2, [r3, #0]
100038f2:	46c0      	nop			; (mov r8, r8)
100038f4:	46bd      	mov	sp, r7
100038f6:	b002      	add	sp, #8
100038f8:	bd80      	pop	{r7, pc}

100038fa <spin_lock_blocking>:
100038fa:	b580      	push	{r7, lr}
100038fc:	b084      	sub	sp, #16
100038fe:	af00      	add	r7, sp, #0
10003900:	6078      	str	r0, [r7, #4]
10003902:	f7ff ffb4 	bl	1000386e <save_and_disable_interrupts>
10003906:	0003      	movs	r3, r0
10003908:	60fb      	str	r3, [r7, #12]
1000390a:	687b      	ldr	r3, [r7, #4]
1000390c:	0018      	movs	r0, r3
1000390e:	f7ff ffd5 	bl	100038bc <spin_lock_unsafe_blocking>
10003912:	68fb      	ldr	r3, [r7, #12]
10003914:	0018      	movs	r0, r3
10003916:	46bd      	mov	sp, r7
10003918:	b004      	add	sp, #16
1000391a:	bd80      	pop	{r7, pc}

1000391c <spin_unlock>:
1000391c:	b580      	push	{r7, lr}
1000391e:	b082      	sub	sp, #8
10003920:	af00      	add	r7, sp, #0
10003922:	6078      	str	r0, [r7, #4]
10003924:	6039      	str	r1, [r7, #0]
10003926:	687b      	ldr	r3, [r7, #4]
10003928:	0018      	movs	r0, r3
1000392a:	f7ff ffd9 	bl	100038e0 <spin_unlock_unsafe>
1000392e:	683b      	ldr	r3, [r7, #0]
10003930:	0018      	movs	r0, r3
10003932:	f7ff ffa8 	bl	10003886 <restore_interrupts>
10003936:	46c0      	nop			; (mov r8, r8)
10003938:	46bd      	mov	sp, r7
1000393a:	b002      	add	sp, #8
1000393c:	bd80      	pop	{r7, pc}
	...

10003940 <get_vtable>:
10003940:	b580      	push	{r7, lr}
10003942:	af00      	add	r7, sp, #0
10003944:	4b02      	ldr	r3, [pc, #8]	; (10003950 <get_vtable+0x10>)
10003946:	689b      	ldr	r3, [r3, #8]
10003948:	0018      	movs	r0, r3
1000394a:	46bd      	mov	sp, r7
1000394c:	bd80      	pop	{r7, pc}
1000394e:	46c0      	nop			; (mov r8, r8)
10003950:	e000ed00 	.word	0xe000ed00

10003954 <add_thumb_bit>:
10003954:	b580      	push	{r7, lr}
10003956:	b082      	sub	sp, #8
10003958:	af00      	add	r7, sp, #0
1000395a:	6078      	str	r0, [r7, #4]
1000395c:	687b      	ldr	r3, [r7, #4]
1000395e:	2201      	movs	r2, #1
10003960:	4313      	orrs	r3, r2
10003962:	0018      	movs	r0, r3
10003964:	46bd      	mov	sp, r7
10003966:	b002      	add	sp, #8
10003968:	bd80      	pop	{r7, pc}

1000396a <remove_thumb_bit>:
1000396a:	b580      	push	{r7, lr}
1000396c:	b082      	sub	sp, #8
1000396e:	af00      	add	r7, sp, #0
10003970:	6078      	str	r0, [r7, #4]
10003972:	687b      	ldr	r3, [r7, #4]
10003974:	2201      	movs	r2, #1
10003976:	4393      	bics	r3, r2
10003978:	0018      	movs	r0, r3
1000397a:	46bd      	mov	sp, r7
1000397c:	b002      	add	sp, #8
1000397e:	bd80      	pop	{r7, pc}

10003980 <set_raw_irq_handler_and_unlock>:
10003980:	b580      	push	{r7, lr}
10003982:	b084      	sub	sp, #16
10003984:	af00      	add	r7, sp, #0
10003986:	60f8      	str	r0, [r7, #12]
10003988:	60b9      	str	r1, [r7, #8]
1000398a:	607a      	str	r2, [r7, #4]
1000398c:	f7ff ffd8 	bl	10003940 <get_vtable>
10003990:	0002      	movs	r2, r0
10003992:	68fb      	ldr	r3, [r7, #12]
10003994:	3310      	adds	r3, #16
10003996:	009b      	lsls	r3, r3, #2
10003998:	18d3      	adds	r3, r2, r3
1000399a:	68ba      	ldr	r2, [r7, #8]
1000399c:	601a      	str	r2, [r3, #0]
1000399e:	f7ff ff51 	bl	10003844 <__dmb>
100039a2:	2009      	movs	r0, #9
100039a4:	f7ff ff7a 	bl	1000389c <spin_lock_instance>
100039a8:	0002      	movs	r2, r0
100039aa:	687b      	ldr	r3, [r7, #4]
100039ac:	0019      	movs	r1, r3
100039ae:	0010      	movs	r0, r2
100039b0:	f7ff ffb4 	bl	1000391c <spin_unlock>
100039b4:	46c0      	nop			; (mov r8, r8)
100039b6:	46bd      	mov	sp, r7
100039b8:	b004      	add	sp, #16
100039ba:	bd80      	pop	{r7, pc}

100039bc <check_irq_param>:
100039bc:	b580      	push	{r7, lr}
100039be:	b082      	sub	sp, #8
100039c0:	af00      	add	r7, sp, #0
100039c2:	6078      	str	r0, [r7, #4]
100039c4:	46c0      	nop			; (mov r8, r8)
100039c6:	46bd      	mov	sp, r7
100039c8:	b002      	add	sp, #8
100039ca:	bd80      	pop	{r7, pc}

100039cc <irq_set_enabled>:
100039cc:	b580      	push	{r7, lr}
100039ce:	b082      	sub	sp, #8
100039d0:	af00      	add	r7, sp, #0
100039d2:	6078      	str	r0, [r7, #4]
100039d4:	000a      	movs	r2, r1
100039d6:	1cfb      	adds	r3, r7, #3
100039d8:	701a      	strb	r2, [r3, #0]
100039da:	687b      	ldr	r3, [r7, #4]
100039dc:	0018      	movs	r0, r3
100039de:	f7ff ffed 	bl	100039bc <check_irq_param>
100039e2:	2201      	movs	r2, #1
100039e4:	687b      	ldr	r3, [r7, #4]
100039e6:	409a      	lsls	r2, r3
100039e8:	1cfb      	adds	r3, r7, #3
100039ea:	781b      	ldrb	r3, [r3, #0]
100039ec:	0019      	movs	r1, r3
100039ee:	0010      	movs	r0, r2
100039f0:	f000 f81c 	bl	10003a2c <irq_set_mask_enabled>
100039f4:	46c0      	nop			; (mov r8, r8)
100039f6:	46bd      	mov	sp, r7
100039f8:	b002      	add	sp, #8
100039fa:	bd80      	pop	{r7, pc}

100039fc <irq_is_enabled>:
100039fc:	b580      	push	{r7, lr}
100039fe:	b082      	sub	sp, #8
10003a00:	af00      	add	r7, sp, #0
10003a02:	6078      	str	r0, [r7, #4]
10003a04:	687b      	ldr	r3, [r7, #4]
10003a06:	0018      	movs	r0, r3
10003a08:	f7ff ffd8 	bl	100039bc <check_irq_param>
10003a0c:	2201      	movs	r2, #1
10003a0e:	687b      	ldr	r3, [r7, #4]
10003a10:	409a      	lsls	r2, r3
10003a12:	4b05      	ldr	r3, [pc, #20]	; (10003a28 <irq_is_enabled+0x2c>)
10003a14:	681b      	ldr	r3, [r3, #0]
10003a16:	4013      	ands	r3, r2
10003a18:	1e5a      	subs	r2, r3, #1
10003a1a:	4193      	sbcs	r3, r2
10003a1c:	b2db      	uxtb	r3, r3
10003a1e:	0018      	movs	r0, r3
10003a20:	46bd      	mov	sp, r7
10003a22:	b002      	add	sp, #8
10003a24:	bd80      	pop	{r7, pc}
10003a26:	46c0      	nop			; (mov r8, r8)
10003a28:	e000e100 	.word	0xe000e100

10003a2c <irq_set_mask_enabled>:
10003a2c:	b580      	push	{r7, lr}
10003a2e:	b082      	sub	sp, #8
10003a30:	af00      	add	r7, sp, #0
10003a32:	6078      	str	r0, [r7, #4]
10003a34:	000a      	movs	r2, r1
10003a36:	1cfb      	adds	r3, r7, #3
10003a38:	701a      	strb	r2, [r3, #0]
10003a3a:	1cfb      	adds	r3, r7, #3
10003a3c:	781b      	ldrb	r3, [r3, #0]
10003a3e:	2b00      	cmp	r3, #0
10003a40:	d006      	beq.n	10003a50 <irq_set_mask_enabled+0x24>
10003a42:	4b07      	ldr	r3, [pc, #28]	; (10003a60 <irq_set_mask_enabled+0x34>)
10003a44:	687a      	ldr	r2, [r7, #4]
10003a46:	601a      	str	r2, [r3, #0]
10003a48:	4b06      	ldr	r3, [pc, #24]	; (10003a64 <irq_set_mask_enabled+0x38>)
10003a4a:	687a      	ldr	r2, [r7, #4]
10003a4c:	601a      	str	r2, [r3, #0]
10003a4e:	e002      	b.n	10003a56 <irq_set_mask_enabled+0x2a>
10003a50:	4b05      	ldr	r3, [pc, #20]	; (10003a68 <irq_set_mask_enabled+0x3c>)
10003a52:	687a      	ldr	r2, [r7, #4]
10003a54:	601a      	str	r2, [r3, #0]
10003a56:	46c0      	nop			; (mov r8, r8)
10003a58:	46bd      	mov	sp, r7
10003a5a:	b002      	add	sp, #8
10003a5c:	bd80      	pop	{r7, pc}
10003a5e:	46c0      	nop			; (mov r8, r8)
10003a60:	e000e280 	.word	0xe000e280
10003a64:	e000e100 	.word	0xe000e100
10003a68:	e000e180 	.word	0xe000e180

10003a6c <is_shared_irq_raw_handler>:
10003a6c:	b580      	push	{r7, lr}
10003a6e:	b082      	sub	sp, #8
10003a70:	af00      	add	r7, sp, #0
10003a72:	6078      	str	r0, [r7, #4]
10003a74:	687a      	ldr	r2, [r7, #4]
10003a76:	4b05      	ldr	r3, [pc, #20]	; (10003a8c <is_shared_irq_raw_handler+0x20>)
10003a78:	1ad2      	subs	r2, r2, r3
10003a7a:	212f      	movs	r1, #47	; 0x2f
10003a7c:	2300      	movs	r3, #0
10003a7e:	4291      	cmp	r1, r2
10003a80:	415b      	adcs	r3, r3
10003a82:	b2db      	uxtb	r3, r3
10003a84:	0018      	movs	r0, r3
10003a86:	46bd      	mov	sp, r7
10003a88:	b002      	add	sp, #8
10003a8a:	bd80      	pop	{r7, pc}
10003a8c:	2000027c 	.word	0x2000027c

10003a90 <irq_get_vtable_handler>:
10003a90:	b580      	push	{r7, lr}
10003a92:	b082      	sub	sp, #8
10003a94:	af00      	add	r7, sp, #0
10003a96:	6078      	str	r0, [r7, #4]
10003a98:	687b      	ldr	r3, [r7, #4]
10003a9a:	0018      	movs	r0, r3
10003a9c:	f7ff ff8e 	bl	100039bc <check_irq_param>
10003aa0:	f7ff ff4e 	bl	10003940 <get_vtable>
10003aa4:	0002      	movs	r2, r0
10003aa6:	687b      	ldr	r3, [r7, #4]
10003aa8:	3310      	adds	r3, #16
10003aaa:	009b      	lsls	r3, r3, #2
10003aac:	18d3      	adds	r3, r2, r3
10003aae:	681b      	ldr	r3, [r3, #0]
10003ab0:	0018      	movs	r0, r3
10003ab2:	46bd      	mov	sp, r7
10003ab4:	b002      	add	sp, #8
10003ab6:	bd80      	pop	{r7, pc}

10003ab8 <irq_set_exclusive_handler>:
10003ab8:	b580      	push	{r7, lr}
10003aba:	b086      	sub	sp, #24
10003abc:	af00      	add	r7, sp, #0
10003abe:	6078      	str	r0, [r7, #4]
10003ac0:	6039      	str	r1, [r7, #0]
10003ac2:	687b      	ldr	r3, [r7, #4]
10003ac4:	0018      	movs	r0, r3
10003ac6:	f7ff ff79 	bl	100039bc <check_irq_param>
10003aca:	2009      	movs	r0, #9
10003acc:	f7ff fee6 	bl	1000389c <spin_lock_instance>
10003ad0:	0003      	movs	r3, r0
10003ad2:	617b      	str	r3, [r7, #20]
10003ad4:	697b      	ldr	r3, [r7, #20]
10003ad6:	0018      	movs	r0, r3
10003ad8:	f7ff ff0f 	bl	100038fa <spin_lock_blocking>
10003adc:	0003      	movs	r3, r0
10003ade:	613b      	str	r3, [r7, #16]
10003ae0:	687b      	ldr	r3, [r7, #4]
10003ae2:	0018      	movs	r0, r3
10003ae4:	f7ff ffd4 	bl	10003a90 <irq_get_vtable_handler>
10003ae8:	0003      	movs	r3, r0
10003aea:	60fb      	str	r3, [r7, #12]
10003aec:	68fa      	ldr	r2, [r7, #12]
10003aee:	4b0b      	ldr	r3, [pc, #44]	; (10003b1c <irq_set_exclusive_handler+0x64>)
10003af0:	429a      	cmp	r2, r3
10003af2:	d009      	beq.n	10003b08 <irq_set_exclusive_handler+0x50>
10003af4:	68fa      	ldr	r2, [r7, #12]
10003af6:	683b      	ldr	r3, [r7, #0]
10003af8:	429a      	cmp	r2, r3
10003afa:	d005      	beq.n	10003b08 <irq_set_exclusive_handler+0x50>
10003afc:	4b08      	ldr	r3, [pc, #32]	; (10003b20 <irq_set_exclusive_handler+0x68>)
10003afe:	4a09      	ldr	r2, [pc, #36]	; (10003b24 <irq_set_exclusive_handler+0x6c>)
10003b00:	4809      	ldr	r0, [pc, #36]	; (10003b28 <irq_set_exclusive_handler+0x70>)
10003b02:	2171      	movs	r1, #113	; 0x71
10003b04:	f7ff fb5e 	bl	100031c4 <__assert_func>
10003b08:	693a      	ldr	r2, [r7, #16]
10003b0a:	6839      	ldr	r1, [r7, #0]
10003b0c:	687b      	ldr	r3, [r7, #4]
10003b0e:	0018      	movs	r0, r3
10003b10:	f7ff ff36 	bl	10003980 <set_raw_irq_handler_and_unlock>
10003b14:	46c0      	nop			; (mov r8, r8)
10003b16:	46bd      	mov	sp, r7
10003b18:	b006      	add	sp, #24
10003b1a:	bd80      	pop	{r7, pc}
10003b1c:	100001cd 	.word	0x100001cd
10003b20:	10008704 	.word	0x10008704
10003b24:	100088d8 	.word	0x100088d8
10003b28:	1000873c 	.word	0x1000873c

10003b2c <make_branch>:
10003b2c:	b580      	push	{r7, lr}
10003b2e:	b086      	sub	sp, #24
10003b30:	af00      	add	r7, sp, #0
10003b32:	6078      	str	r0, [r7, #4]
10003b34:	6039      	str	r1, [r7, #0]
10003b36:	687b      	ldr	r3, [r7, #4]
10003b38:	617b      	str	r3, [r7, #20]
10003b3a:	683b      	ldr	r3, [r7, #0]
10003b3c:	613b      	str	r3, [r7, #16]
10003b3e:	693a      	ldr	r2, [r7, #16]
10003b40:	697b      	ldr	r3, [r7, #20]
10003b42:	1ad3      	subs	r3, r2, r3
10003b44:	3b04      	subs	r3, #4
10003b46:	085b      	lsrs	r3, r3, #1
10003b48:	60fb      	str	r3, [r7, #12]
10003b4a:	68fb      	ldr	r3, [r7, #12]
10003b4c:	0adb      	lsrs	r3, r3, #11
10003b4e:	d005      	beq.n	10003b5c <make_branch+0x30>
10003b50:	4b08      	ldr	r3, [pc, #32]	; (10003b74 <make_branch+0x48>)
10003b52:	4a09      	ldr	r2, [pc, #36]	; (10003b78 <make_branch+0x4c>)
10003b54:	4809      	ldr	r0, [pc, #36]	; (10003b7c <make_branch+0x50>)
10003b56:	218d      	movs	r1, #141	; 0x8d
10003b58:	f7ff fb34 	bl	100031c4 <__assert_func>
10003b5c:	68fb      	ldr	r3, [r7, #12]
10003b5e:	b29b      	uxth	r3, r3
10003b60:	055b      	lsls	r3, r3, #21
10003b62:	0d5b      	lsrs	r3, r3, #21
10003b64:	b29b      	uxth	r3, r3
10003b66:	4a06      	ldr	r2, [pc, #24]	; (10003b80 <make_branch+0x54>)
10003b68:	4313      	orrs	r3, r2
10003b6a:	b29b      	uxth	r3, r3
10003b6c:	0018      	movs	r0, r3
10003b6e:	46bd      	mov	sp, r7
10003b70:	b006      	add	sp, #24
10003b72:	bd80      	pop	{r7, pc}
10003b74:	10008784 	.word	0x10008784
10003b78:	100088f4 	.word	0x100088f4
10003b7c:	1000873c 	.word	0x1000873c
10003b80:	ffffe000 	.word	0xffffe000

10003b84 <insert_branch_and_link>:
10003b84:	b580      	push	{r7, lr}
10003b86:	b086      	sub	sp, #24
10003b88:	af00      	add	r7, sp, #0
10003b8a:	6078      	str	r0, [r7, #4]
10003b8c:	6039      	str	r1, [r7, #0]
10003b8e:	687b      	ldr	r3, [r7, #4]
10003b90:	617b      	str	r3, [r7, #20]
10003b92:	683b      	ldr	r3, [r7, #0]
10003b94:	613b      	str	r3, [r7, #16]
10003b96:	693a      	ldr	r2, [r7, #16]
10003b98:	697b      	ldr	r3, [r7, #20]
10003b9a:	1ad3      	subs	r3, r2, r3
10003b9c:	3b04      	subs	r3, #4
10003b9e:	085b      	lsrs	r3, r3, #1
10003ba0:	60fb      	str	r3, [r7, #12]
10003ba2:	68fb      	ldr	r3, [r7, #12]
10003ba4:	0adb      	lsrs	r3, r3, #11
10003ba6:	d005      	beq.n	10003bb4 <insert_branch_and_link+0x30>
10003ba8:	4b0e      	ldr	r3, [pc, #56]	; (10003be4 <insert_branch_and_link+0x60>)
10003baa:	4a0f      	ldr	r2, [pc, #60]	; (10003be8 <insert_branch_and_link+0x64>)
10003bac:	480f      	ldr	r0, [pc, #60]	; (10003bec <insert_branch_and_link+0x68>)
10003bae:	2195      	movs	r1, #149	; 0x95
10003bb0:	f7ff fb08 	bl	100031c4 <__assert_func>
10003bb4:	68fb      	ldr	r3, [r7, #12]
10003bb6:	0adb      	lsrs	r3, r3, #11
10003bb8:	b29b      	uxth	r3, r3
10003bba:	055b      	lsls	r3, r3, #21
10003bbc:	0d5b      	lsrs	r3, r3, #21
10003bbe:	b29b      	uxth	r3, r3
10003bc0:	4a0b      	ldr	r2, [pc, #44]	; (10003bf0 <insert_branch_and_link+0x6c>)
10003bc2:	4313      	orrs	r3, r2
10003bc4:	b29a      	uxth	r2, r3
10003bc6:	687b      	ldr	r3, [r7, #4]
10003bc8:	801a      	strh	r2, [r3, #0]
10003bca:	687b      	ldr	r3, [r7, #4]
10003bcc:	3302      	adds	r3, #2
10003bce:	68fa      	ldr	r2, [r7, #12]
10003bd0:	b292      	uxth	r2, r2
10003bd2:	4908      	ldr	r1, [pc, #32]	; (10003bf4 <insert_branch_and_link+0x70>)
10003bd4:	430a      	orrs	r2, r1
10003bd6:	b292      	uxth	r2, r2
10003bd8:	801a      	strh	r2, [r3, #0]
10003bda:	46c0      	nop			; (mov r8, r8)
10003bdc:	46bd      	mov	sp, r7
10003bde:	b006      	add	sp, #24
10003be0:	bd80      	pop	{r7, pc}
10003be2:	46c0      	nop			; (mov r8, r8)
10003be4:	10008784 	.word	0x10008784
10003be8:	10008900 	.word	0x10008900
10003bec:	1000873c 	.word	0x1000873c
10003bf0:	fffff000 	.word	0xfffff000
10003bf4:	fffff800 	.word	0xfffff800

10003bf8 <resolve_branch>:
10003bf8:	b580      	push	{r7, lr}
10003bfa:	b084      	sub	sp, #16
10003bfc:	af00      	add	r7, sp, #0
10003bfe:	6078      	str	r0, [r7, #4]
10003c00:	687b      	ldr	r3, [r7, #4]
10003c02:	881b      	ldrh	r3, [r3, #0]
10003c04:	0adb      	lsrs	r3, r3, #11
10003c06:	b29b      	uxth	r3, r3
10003c08:	2b1c      	cmp	r3, #28
10003c0a:	d005      	beq.n	10003c18 <resolve_branch+0x20>
10003c0c:	4b0d      	ldr	r3, [pc, #52]	; (10003c44 <resolve_branch+0x4c>)
10003c0e:	4a0e      	ldr	r2, [pc, #56]	; (10003c48 <resolve_branch+0x50>)
10003c10:	480e      	ldr	r0, [pc, #56]	; (10003c4c <resolve_branch+0x54>)
10003c12:	219b      	movs	r1, #155	; 0x9b
10003c14:	f7ff fad6 	bl	100031c4 <__assert_func>
10003c18:	687b      	ldr	r3, [r7, #4]
10003c1a:	881b      	ldrh	r3, [r3, #0]
10003c1c:	055b      	lsls	r3, r3, #21
10003c1e:	60fb      	str	r3, [r7, #12]
10003c20:	68fb      	ldr	r3, [r7, #12]
10003c22:	2b00      	cmp	r3, #0
10003c24:	da02      	bge.n	10003c2c <resolve_branch+0x34>
10003c26:	4a0a      	ldr	r2, [pc, #40]	; (10003c50 <resolve_branch+0x58>)
10003c28:	4694      	mov	ip, r2
10003c2a:	4463      	add	r3, ip
10003c2c:	155b      	asrs	r3, r3, #21
10003c2e:	60fb      	str	r3, [r7, #12]
10003c30:	68fb      	ldr	r3, [r7, #12]
10003c32:	3302      	adds	r3, #2
10003c34:	005b      	lsls	r3, r3, #1
10003c36:	687a      	ldr	r2, [r7, #4]
10003c38:	18d3      	adds	r3, r2, r3
10003c3a:	0018      	movs	r0, r3
10003c3c:	46bd      	mov	sp, r7
10003c3e:	b004      	add	sp, #16
10003c40:	bd80      	pop	{r7, pc}
10003c42:	46c0      	nop			; (mov r8, r8)
10003c44:	10008794 	.word	0x10008794
10003c48:	10008918 	.word	0x10008918
10003c4c:	1000873c 	.word	0x1000873c
10003c50:	001fffff 	.word	0x001fffff

10003c54 <irq_remove_handler>:
10003c54:	b590      	push	{r4, r7, lr}
10003c56:	b08f      	sub	sp, #60	; 0x3c
10003c58:	af00      	add	r7, sp, #0
10003c5a:	6078      	str	r0, [r7, #4]
10003c5c:	6039      	str	r1, [r7, #0]
10003c5e:	2009      	movs	r0, #9
10003c60:	f7ff fe1c 	bl	1000389c <spin_lock_instance>
10003c64:	0003      	movs	r3, r0
10003c66:	62bb      	str	r3, [r7, #40]	; 0x28
10003c68:	6abb      	ldr	r3, [r7, #40]	; 0x28
10003c6a:	0018      	movs	r0, r3
10003c6c:	f7ff fe45 	bl	100038fa <spin_lock_blocking>
10003c70:	0003      	movs	r3, r0
10003c72:	627b      	str	r3, [r7, #36]	; 0x24
10003c74:	f7ff fe64 	bl	10003940 <get_vtable>
10003c78:	0002      	movs	r2, r0
10003c7a:	687b      	ldr	r3, [r7, #4]
10003c7c:	3310      	adds	r3, #16
10003c7e:	009b      	lsls	r3, r3, #2
10003c80:	18d3      	adds	r3, r2, r3
10003c82:	681b      	ldr	r3, [r3, #0]
10003c84:	637b      	str	r3, [r7, #52]	; 0x34
10003c86:	6b7a      	ldr	r2, [r7, #52]	; 0x34
10003c88:	4b70      	ldr	r3, [pc, #448]	; (10003e4c <irq_remove_handler+0x1f8>)
10003c8a:	429a      	cmp	r2, r3
10003c8c:	d100      	bne.n	10003c90 <irq_remove_handler+0x3c>
10003c8e:	e0d0      	b.n	10003e32 <irq_remove_handler+0x1de>
10003c90:	6b7a      	ldr	r2, [r7, #52]	; 0x34
10003c92:	683b      	ldr	r3, [r7, #0]
10003c94:	429a      	cmp	r2, r3
10003c96:	d100      	bne.n	10003c9a <irq_remove_handler+0x46>
10003c98:	e0cb      	b.n	10003e32 <irq_remove_handler+0x1de>
10003c9a:	6b7b      	ldr	r3, [r7, #52]	; 0x34
10003c9c:	0018      	movs	r0, r3
10003c9e:	f7ff fee5 	bl	10003a6c <is_shared_irq_raw_handler>
10003ca2:	1e03      	subs	r3, r0, #0
10003ca4:	d100      	bne.n	10003ca8 <irq_remove_handler+0x54>
10003ca6:	e0c6      	b.n	10003e36 <irq_remove_handler+0x1e2>
10003ca8:	2323      	movs	r3, #35	; 0x23
10003caa:	18fc      	adds	r4, r7, r3
10003cac:	687b      	ldr	r3, [r7, #4]
10003cae:	0018      	movs	r0, r3
10003cb0:	f7ff fea4 	bl	100039fc <irq_is_enabled>
10003cb4:	0003      	movs	r3, r0
10003cb6:	7023      	strb	r3, [r4, #0]
10003cb8:	687b      	ldr	r3, [r7, #4]
10003cba:	2100      	movs	r1, #0
10003cbc:	0018      	movs	r0, r3
10003cbe:	f7ff fe85 	bl	100039cc <irq_set_enabled>
10003cc2:	f7ff fdbf 	bl	10003844 <__dmb>
10003cc6:	f7fc face 	bl	10000266 <__get_current_exception>
10003cca:	0003      	movs	r3, r0
10003ccc:	61fb      	str	r3, [r7, #28]
10003cce:	69fb      	ldr	r3, [r7, #28]
10003cd0:	2b00      	cmp	r3, #0
10003cd2:	d00d      	beq.n	10003cf0 <irq_remove_handler+0x9c>
10003cd4:	687b      	ldr	r3, [r7, #4]
10003cd6:	3310      	adds	r3, #16
10003cd8:	001a      	movs	r2, r3
10003cda:	69fb      	ldr	r3, [r7, #28]
10003cdc:	429a      	cmp	r2, r3
10003cde:	d007      	beq.n	10003cf0 <irq_remove_handler+0x9c>
10003ce0:	4c5b      	ldr	r4, [pc, #364]	; (10003e50 <irq_remove_handler+0x1fc>)
10003ce2:	4a5c      	ldr	r2, [pc, #368]	; (10003e54 <irq_remove_handler+0x200>)
10003ce4:	238e      	movs	r3, #142	; 0x8e
10003ce6:	0059      	lsls	r1, r3, #1
10003ce8:	485b      	ldr	r0, [pc, #364]	; (10003e58 <irq_remove_handler+0x204>)
10003cea:	0023      	movs	r3, r4
10003cec:	f7ff fa6a 	bl	100031c4 <__assert_func>
10003cf0:	2300      	movs	r3, #0
10003cf2:	633b      	str	r3, [r7, #48]	; 0x30
10003cf4:	6b7b      	ldr	r3, [r7, #52]	; 0x34
10003cf6:	0018      	movs	r0, r3
10003cf8:	f7ff fe37 	bl	1000396a <remove_thumb_bit>
10003cfc:	0003      	movs	r3, r0
10003cfe:	61bb      	str	r3, [r7, #24]
10003d00:	69bb      	ldr	r3, [r7, #24]
10003d02:	62fb      	str	r3, [r7, #44]	; 0x2c
10003d04:	6afa      	ldr	r2, [r7, #44]	; 0x2c
10003d06:	4b55      	ldr	r3, [pc, #340]	; (10003e5c <irq_remove_handler+0x208>)
10003d08:	1ad3      	subs	r3, r2, r3
10003d0a:	109b      	asrs	r3, r3, #2
10003d0c:	4a54      	ldr	r2, [pc, #336]	; (10003e60 <irq_remove_handler+0x20c>)
10003d0e:	4353      	muls	r3, r2
10003d10:	617b      	str	r3, [r7, #20]
10003d12:	e011      	b.n	10003d38 <irq_remove_handler+0xe4>
10003d14:	6afb      	ldr	r3, [r7, #44]	; 0x2c
10003d16:	633b      	str	r3, [r7, #48]	; 0x30
10003d18:	6afb      	ldr	r3, [r7, #44]	; 0x2c
10003d1a:	799b      	ldrb	r3, [r3, #6]
10003d1c:	b25b      	sxtb	r3, r3
10003d1e:	2b00      	cmp	r3, #0
10003d20:	db10      	blt.n	10003d44 <irq_remove_handler+0xf0>
10003d22:	6afb      	ldr	r3, [r7, #44]	; 0x2c
10003d24:	799b      	ldrb	r3, [r3, #6]
10003d26:	b25b      	sxtb	r3, r3
10003d28:	001a      	movs	r2, r3
10003d2a:	0013      	movs	r3, r2
10003d2c:	005b      	lsls	r3, r3, #1
10003d2e:	189b      	adds	r3, r3, r2
10003d30:	009b      	lsls	r3, r3, #2
10003d32:	4a4a      	ldr	r2, [pc, #296]	; (10003e5c <irq_remove_handler+0x208>)
10003d34:	189b      	adds	r3, r3, r2
10003d36:	62fb      	str	r3, [r7, #44]	; 0x2c
10003d38:	6afb      	ldr	r3, [r7, #44]	; 0x2c
10003d3a:	689a      	ldr	r2, [r3, #8]
10003d3c:	683b      	ldr	r3, [r7, #0]
10003d3e:	429a      	cmp	r2, r3
10003d40:	d1e8      	bne.n	10003d14 <irq_remove_handler+0xc0>
10003d42:	e000      	b.n	10003d46 <irq_remove_handler+0xf2>
10003d44:	46c0      	nop			; (mov r8, r8)
10003d46:	6afb      	ldr	r3, [r7, #44]	; 0x2c
10003d48:	689a      	ldr	r2, [r3, #8]
10003d4a:	683b      	ldr	r3, [r7, #0]
10003d4c:	429a      	cmp	r2, r3
10003d4e:	d15e      	bne.n	10003e0e <irq_remove_handler+0x1ba>
10003d50:	6afb      	ldr	r3, [r7, #44]	; 0x2c
10003d52:	799b      	ldrb	r3, [r3, #6]
10003d54:	b25b      	sxtb	r3, r3
10003d56:	613b      	str	r3, [r7, #16]
10003d58:	693b      	ldr	r3, [r7, #16]
10003d5a:	2b00      	cmp	r3, #0
10003d5c:	db36      	blt.n	10003dcc <irq_remove_handler+0x178>
10003d5e:	693a      	ldr	r2, [r7, #16]
10003d60:	0013      	movs	r3, r2
10003d62:	005b      	lsls	r3, r3, #1
10003d64:	189b      	adds	r3, r3, r2
10003d66:	009b      	lsls	r3, r3, #2
10003d68:	4a3c      	ldr	r2, [pc, #240]	; (10003e5c <irq_remove_handler+0x208>)
10003d6a:	189b      	adds	r3, r3, r2
10003d6c:	60fb      	str	r3, [r7, #12]
10003d6e:	68fb      	ldr	r3, [r7, #12]
10003d70:	689a      	ldr	r2, [r3, #8]
10003d72:	6afb      	ldr	r3, [r7, #44]	; 0x2c
10003d74:	609a      	str	r2, [r3, #8]
10003d76:	68fb      	ldr	r3, [r7, #12]
10003d78:	79da      	ldrb	r2, [r3, #7]
10003d7a:	6afb      	ldr	r3, [r7, #44]	; 0x2c
10003d7c:	71da      	strb	r2, [r3, #7]
10003d7e:	68fb      	ldr	r3, [r7, #12]
10003d80:	2206      	movs	r2, #6
10003d82:	569a      	ldrsb	r2, [r3, r2]
10003d84:	6afb      	ldr	r3, [r7, #44]	; 0x2c
10003d86:	719a      	strb	r2, [r3, #6]
10003d88:	68fb      	ldr	r3, [r7, #12]
10003d8a:	799b      	ldrb	r3, [r3, #6]
10003d8c:	b25b      	sxtb	r3, r3
10003d8e:	2b00      	cmp	r3, #0
10003d90:	db0e      	blt.n	10003db0 <irq_remove_handler+0x15c>
10003d92:	6afb      	ldr	r3, [r7, #44]	; 0x2c
10003d94:	1d1c      	adds	r4, r3, #4
10003d96:	68fb      	ldr	r3, [r7, #12]
10003d98:	3304      	adds	r3, #4
10003d9a:	0018      	movs	r0, r3
10003d9c:	f7ff ff2c 	bl	10003bf8 <resolve_branch>
10003da0:	0003      	movs	r3, r0
10003da2:	0019      	movs	r1, r3
10003da4:	0020      	movs	r0, r4
10003da6:	f7ff fec1 	bl	10003b2c <make_branch>
10003daa:	0003      	movs	r3, r0
10003dac:	001a      	movs	r2, r3
10003dae:	e001      	b.n	10003db4 <irq_remove_handler+0x160>
10003db0:	23bd      	movs	r3, #189	; 0xbd
10003db2:	021a      	lsls	r2, r3, #8
10003db4:	6afb      	ldr	r3, [r7, #44]	; 0x2c
10003db6:	809a      	strh	r2, [r3, #4]
10003db8:	4b2a      	ldr	r3, [pc, #168]	; (10003e64 <irq_remove_handler+0x210>)
10003dba:	2200      	movs	r2, #0
10003dbc:	569a      	ldrsb	r2, [r3, r2]
10003dbe:	68fb      	ldr	r3, [r7, #12]
10003dc0:	719a      	strb	r2, [r3, #6]
10003dc2:	693b      	ldr	r3, [r7, #16]
10003dc4:	b25a      	sxtb	r2, r3
10003dc6:	4b27      	ldr	r3, [pc, #156]	; (10003e64 <irq_remove_handler+0x210>)
10003dc8:	701a      	strb	r2, [r3, #0]
10003dca:	e029      	b.n	10003e20 <irq_remove_handler+0x1cc>
10003dcc:	69fb      	ldr	r3, [r7, #28]
10003dce:	2b00      	cmp	r3, #0
10003dd0:	d115      	bne.n	10003dfe <irq_remove_handler+0x1aa>
10003dd2:	6b3b      	ldr	r3, [r7, #48]	; 0x30
10003dd4:	2b00      	cmp	r3, #0
10003dd6:	d006      	beq.n	10003de6 <irq_remove_handler+0x192>
10003dd8:	6b3b      	ldr	r3, [r7, #48]	; 0x30
10003dda:	22ff      	movs	r2, #255	; 0xff
10003ddc:	719a      	strb	r2, [r3, #6]
10003dde:	6b3b      	ldr	r3, [r7, #48]	; 0x30
10003de0:	4a21      	ldr	r2, [pc, #132]	; (10003e68 <irq_remove_handler+0x214>)
10003de2:	809a      	strh	r2, [r3, #4]
10003de4:	e001      	b.n	10003dea <irq_remove_handler+0x196>
10003de6:	4b19      	ldr	r3, [pc, #100]	; (10003e4c <irq_remove_handler+0x1f8>)
10003de8:	637b      	str	r3, [r7, #52]	; 0x34
10003dea:	4b1e      	ldr	r3, [pc, #120]	; (10003e64 <irq_remove_handler+0x210>)
10003dec:	2200      	movs	r2, #0
10003dee:	569a      	ldrsb	r2, [r3, r2]
10003df0:	6afb      	ldr	r3, [r7, #44]	; 0x2c
10003df2:	719a      	strb	r2, [r3, #6]
10003df4:	697b      	ldr	r3, [r7, #20]
10003df6:	b25a      	sxtb	r2, r3
10003df8:	4b1a      	ldr	r3, [pc, #104]	; (10003e64 <irq_remove_handler+0x210>)
10003dfa:	701a      	strb	r2, [r3, #0]
10003dfc:	e010      	b.n	10003e20 <irq_remove_handler+0x1cc>
10003dfe:	6afb      	ldr	r3, [r7, #44]	; 0x2c
10003e00:	3304      	adds	r3, #4
10003e02:	4a1a      	ldr	r2, [pc, #104]	; (10003e6c <irq_remove_handler+0x218>)
10003e04:	0011      	movs	r1, r2
10003e06:	0018      	movs	r0, r3
10003e08:	f7ff febc 	bl	10003b84 <insert_branch_and_link>
10003e0c:	e008      	b.n	10003e20 <irq_remove_handler+0x1cc>
10003e0e:	4c18      	ldr	r4, [pc, #96]	; (10003e70 <irq_remove_handler+0x21c>)
10003e10:	4a10      	ldr	r2, [pc, #64]	; (10003e54 <irq_remove_handler+0x200>)
10003e12:	2352      	movs	r3, #82	; 0x52
10003e14:	33ff      	adds	r3, #255	; 0xff
10003e16:	0019      	movs	r1, r3
10003e18:	480f      	ldr	r0, [pc, #60]	; (10003e58 <irq_remove_handler+0x204>)
10003e1a:	0023      	movs	r3, r4
10003e1c:	f7ff f9d2 	bl	100031c4 <__assert_func>
10003e20:	2323      	movs	r3, #35	; 0x23
10003e22:	18fb      	adds	r3, r7, r3
10003e24:	781a      	ldrb	r2, [r3, #0]
10003e26:	687b      	ldr	r3, [r7, #4]
10003e28:	0011      	movs	r1, r2
10003e2a:	0018      	movs	r0, r3
10003e2c:	f7ff fdce 	bl	100039cc <irq_set_enabled>
10003e30:	e001      	b.n	10003e36 <irq_remove_handler+0x1e2>
10003e32:	4b06      	ldr	r3, [pc, #24]	; (10003e4c <irq_remove_handler+0x1f8>)
10003e34:	637b      	str	r3, [r7, #52]	; 0x34
10003e36:	6a7a      	ldr	r2, [r7, #36]	; 0x24
10003e38:	6b79      	ldr	r1, [r7, #52]	; 0x34
10003e3a:	687b      	ldr	r3, [r7, #4]
10003e3c:	0018      	movs	r0, r3
10003e3e:	f7ff fd9f 	bl	10003980 <set_raw_irq_handler_and_unlock>
10003e42:	46c0      	nop			; (mov r8, r8)
10003e44:	46bd      	mov	sp, r7
10003e46:	b00f      	add	sp, #60	; 0x3c
10003e48:	bd90      	pop	{r4, r7, pc}
10003e4a:	46c0      	nop			; (mov r8, r8)
10003e4c:	100001cd 	.word	0x100001cd
10003e50:	10008870 	.word	0x10008870
10003e54:	10008928 	.word	0x10008928
10003e58:	1000873c 	.word	0x1000873c
10003e5c:	2000027c 	.word	0x2000027c
10003e60:	aaaaaaab 	.word	0xaaaaaaab
10003e64:	20001946 	.word	0x20001946
10003e68:	ffffbd00 	.word	0xffffbd00
10003e6c:	200002b6 	.word	0x200002b6
10003e70:	10008894 	.word	0x10008894

10003e74 <irq_set_priority>:
10003e74:	b580      	push	{r7, lr}
10003e76:	b084      	sub	sp, #16
10003e78:	af00      	add	r7, sp, #0
10003e7a:	6078      	str	r0, [r7, #4]
10003e7c:	000a      	movs	r2, r1
10003e7e:	1cfb      	adds	r3, r7, #3
10003e80:	701a      	strb	r2, [r3, #0]
10003e82:	687b      	ldr	r3, [r7, #4]
10003e84:	0018      	movs	r0, r3
10003e86:	f7ff fd99 	bl	100039bc <check_irq_param>
10003e8a:	687b      	ldr	r3, [r7, #4]
10003e8c:	2203      	movs	r2, #3
10003e8e:	4393      	bics	r3, r2
10003e90:	4a0e      	ldr	r2, [pc, #56]	; (10003ecc <irq_set_priority+0x58>)
10003e92:	4694      	mov	ip, r2
10003e94:	4463      	add	r3, ip
10003e96:	60fb      	str	r3, [r7, #12]
10003e98:	68fb      	ldr	r3, [r7, #12]
10003e9a:	681b      	ldr	r3, [r3, #0]
10003e9c:	687a      	ldr	r2, [r7, #4]
10003e9e:	2103      	movs	r1, #3
10003ea0:	400a      	ands	r2, r1
10003ea2:	00d2      	lsls	r2, r2, #3
10003ea4:	21ff      	movs	r1, #255	; 0xff
10003ea6:	4091      	lsls	r1, r2
10003ea8:	000a      	movs	r2, r1
10003eaa:	43d2      	mvns	r2, r2
10003eac:	401a      	ands	r2, r3
10003eae:	1cfb      	adds	r3, r7, #3
10003eb0:	7819      	ldrb	r1, [r3, #0]
10003eb2:	687b      	ldr	r3, [r7, #4]
10003eb4:	2003      	movs	r0, #3
10003eb6:	4003      	ands	r3, r0
10003eb8:	00db      	lsls	r3, r3, #3
10003eba:	4099      	lsls	r1, r3
10003ebc:	000b      	movs	r3, r1
10003ebe:	431a      	orrs	r2, r3
10003ec0:	68fb      	ldr	r3, [r7, #12]
10003ec2:	601a      	str	r2, [r3, #0]
10003ec4:	46c0      	nop			; (mov r8, r8)
10003ec6:	46bd      	mov	sp, r7
10003ec8:	b004      	add	sp, #16
10003eca:	bd80      	pop	{r7, pc}
10003ecc:	e000e400 	.word	0xe000e400

10003ed0 <irq_add_tail_to_free_list>:
10003ed0:	b590      	push	{r4, r7, lr}
10003ed2:	b08b      	sub	sp, #44	; 0x2c
10003ed4:	af00      	add	r7, sp, #0
10003ed6:	6078      	str	r0, [r7, #4]
10003ed8:	687b      	ldr	r3, [r7, #4]
10003eda:	0018      	movs	r0, r3
10003edc:	f7ff fd3a 	bl	10003954 <add_thumb_bit>
10003ee0:	0003      	movs	r3, r0
10003ee2:	61fb      	str	r3, [r7, #28]
10003ee4:	69fb      	ldr	r3, [r7, #28]
10003ee6:	0018      	movs	r0, r3
10003ee8:	f7ff fdc0 	bl	10003a6c <is_shared_irq_raw_handler>
10003eec:	1e03      	subs	r3, r0, #0
10003eee:	d107      	bne.n	10003f00 <irq_add_tail_to_free_list+0x30>
10003ef0:	4c48      	ldr	r4, [pc, #288]	; (10004014 <irq_add_tail_to_free_list+0x144>)
10003ef2:	4a49      	ldr	r2, [pc, #292]	; (10004018 <irq_add_tail_to_free_list+0x148>)
10003ef4:	23b7      	movs	r3, #183	; 0xb7
10003ef6:	0059      	lsls	r1, r3, #1
10003ef8:	4848      	ldr	r0, [pc, #288]	; (1000401c <irq_add_tail_to_free_list+0x14c>)
10003efa:	0023      	movs	r3, r4
10003efc:	f7ff f962 	bl	100031c4 <__assert_func>
10003f00:	f7fc f9b1 	bl	10000266 <__get_current_exception>
10003f04:	0003      	movs	r3, r0
10003f06:	61bb      	str	r3, [r7, #24]
10003f08:	69bb      	ldr	r3, [r7, #24]
10003f0a:	2b00      	cmp	r3, #0
10003f0c:	d108      	bne.n	10003f20 <irq_add_tail_to_free_list+0x50>
10003f0e:	4c44      	ldr	r4, [pc, #272]	; (10004020 <irq_add_tail_to_free_list+0x150>)
10003f10:	4a41      	ldr	r2, [pc, #260]	; (10004018 <irq_add_tail_to_free_list+0x148>)
10003f12:	2372      	movs	r3, #114	; 0x72
10003f14:	33ff      	adds	r3, #255	; 0xff
10003f16:	0019      	movs	r1, r3
10003f18:	4840      	ldr	r0, [pc, #256]	; (1000401c <irq_add_tail_to_free_list+0x14c>)
10003f1a:	0023      	movs	r3, r4
10003f1c:	f7ff f952 	bl	100031c4 <__assert_func>
10003f20:	2009      	movs	r0, #9
10003f22:	f7ff fcbb 	bl	1000389c <spin_lock_instance>
10003f26:	0003      	movs	r3, r0
10003f28:	617b      	str	r3, [r7, #20]
10003f2a:	697b      	ldr	r3, [r7, #20]
10003f2c:	0018      	movs	r0, r3
10003f2e:	f7ff fce4 	bl	100038fa <spin_lock_blocking>
10003f32:	0003      	movs	r3, r0
10003f34:	613b      	str	r3, [r7, #16]
10003f36:	687a      	ldr	r2, [r7, #4]
10003f38:	4b3a      	ldr	r3, [pc, #232]	; (10004024 <irq_add_tail_to_free_list+0x154>)
10003f3a:	1ad3      	subs	r3, r2, r3
10003f3c:	109b      	asrs	r3, r3, #2
10003f3e:	4a3a      	ldr	r2, [pc, #232]	; (10004028 <irq_add_tail_to_free_list+0x158>)
10003f40:	4353      	muls	r3, r2
10003f42:	60fb      	str	r3, [r7, #12]
10003f44:	f7ff fcfc 	bl	10003940 <get_vtable>
10003f48:	0002      	movs	r2, r0
10003f4a:	69bb      	ldr	r3, [r7, #24]
10003f4c:	009b      	lsls	r3, r3, #2
10003f4e:	18d3      	adds	r3, r2, r3
10003f50:	681a      	ldr	r2, [r3, #0]
10003f52:	69fb      	ldr	r3, [r7, #28]
10003f54:	429a      	cmp	r2, r3
10003f56:	d108      	bne.n	10003f6a <irq_add_tail_to_free_list+0x9a>
10003f58:	f7ff fcf2 	bl	10003940 <get_vtable>
10003f5c:	0002      	movs	r2, r0
10003f5e:	69bb      	ldr	r3, [r7, #24]
10003f60:	009b      	lsls	r3, r3, #2
10003f62:	18d3      	adds	r3, r2, r3
10003f64:	4a31      	ldr	r2, [pc, #196]	; (1000402c <irq_add_tail_to_free_list+0x15c>)
10003f66:	601a      	str	r2, [r3, #0]
10003f68:	e040      	b.n	10003fec <irq_add_tail_to_free_list+0x11c>
10003f6a:	2327      	movs	r3, #39	; 0x27
10003f6c:	18fb      	adds	r3, r7, r3
10003f6e:	2200      	movs	r2, #0
10003f70:	701a      	strb	r2, [r3, #0]
10003f72:	2300      	movs	r3, #0
10003f74:	623b      	str	r3, [r7, #32]
10003f76:	e029      	b.n	10003fcc <irq_add_tail_to_free_list+0xfc>
10003f78:	492a      	ldr	r1, [pc, #168]	; (10004024 <irq_add_tail_to_free_list+0x154>)
10003f7a:	6a3a      	ldr	r2, [r7, #32]
10003f7c:	0013      	movs	r3, r2
10003f7e:	005b      	lsls	r3, r3, #1
10003f80:	189b      	adds	r3, r3, r2
10003f82:	009b      	lsls	r3, r3, #2
10003f84:	18cb      	adds	r3, r1, r3
10003f86:	3306      	adds	r3, #6
10003f88:	781b      	ldrb	r3, [r3, #0]
10003f8a:	b25b      	sxtb	r3, r3
10003f8c:	001a      	movs	r2, r3
10003f8e:	68fb      	ldr	r3, [r7, #12]
10003f90:	429a      	cmp	r2, r3
10003f92:	d118      	bne.n	10003fc6 <irq_add_tail_to_free_list+0xf6>
10003f94:	4923      	ldr	r1, [pc, #140]	; (10004024 <irq_add_tail_to_free_list+0x154>)
10003f96:	6a3a      	ldr	r2, [r7, #32]
10003f98:	0013      	movs	r3, r2
10003f9a:	005b      	lsls	r3, r3, #1
10003f9c:	189b      	adds	r3, r3, r2
10003f9e:	009b      	lsls	r3, r3, #2
10003fa0:	18cb      	adds	r3, r1, r3
10003fa2:	3306      	adds	r3, #6
10003fa4:	22ff      	movs	r2, #255	; 0xff
10003fa6:	701a      	strb	r2, [r3, #0]
10003fa8:	491e      	ldr	r1, [pc, #120]	; (10004024 <irq_add_tail_to_free_list+0x154>)
10003faa:	6a3a      	ldr	r2, [r7, #32]
10003fac:	0013      	movs	r3, r2
10003fae:	005b      	lsls	r3, r3, #1
10003fb0:	189b      	adds	r3, r3, r2
10003fb2:	009b      	lsls	r3, r3, #2
10003fb4:	18cb      	adds	r3, r1, r3
10003fb6:	3304      	adds	r3, #4
10003fb8:	4a1d      	ldr	r2, [pc, #116]	; (10004030 <irq_add_tail_to_free_list+0x160>)
10003fba:	801a      	strh	r2, [r3, #0]
10003fbc:	2327      	movs	r3, #39	; 0x27
10003fbe:	18fb      	adds	r3, r7, r3
10003fc0:	2201      	movs	r2, #1
10003fc2:	701a      	strb	r2, [r3, #0]
10003fc4:	e005      	b.n	10003fd2 <irq_add_tail_to_free_list+0x102>
10003fc6:	6a3b      	ldr	r3, [r7, #32]
10003fc8:	3301      	adds	r3, #1
10003fca:	623b      	str	r3, [r7, #32]
10003fcc:	6a3b      	ldr	r3, [r7, #32]
10003fce:	2b03      	cmp	r3, #3
10003fd0:	d9d2      	bls.n	10003f78 <irq_add_tail_to_free_list+0xa8>
10003fd2:	2327      	movs	r3, #39	; 0x27
10003fd4:	18fb      	adds	r3, r7, r3
10003fd6:	781b      	ldrb	r3, [r3, #0]
10003fd8:	2b00      	cmp	r3, #0
10003fda:	d107      	bne.n	10003fec <irq_add_tail_to_free_list+0x11c>
10003fdc:	4c15      	ldr	r4, [pc, #84]	; (10004034 <irq_add_tail_to_free_list+0x164>)
10003fde:	4a0e      	ldr	r2, [pc, #56]	; (10004018 <irq_add_tail_to_free_list+0x148>)
10003fe0:	23c1      	movs	r3, #193	; 0xc1
10003fe2:	0059      	lsls	r1, r3, #1
10003fe4:	480d      	ldr	r0, [pc, #52]	; (1000401c <irq_add_tail_to_free_list+0x14c>)
10003fe6:	0023      	movs	r3, r4
10003fe8:	f7ff f8ec 	bl	100031c4 <__assert_func>
10003fec:	4b12      	ldr	r3, [pc, #72]	; (10004038 <irq_add_tail_to_free_list+0x168>)
10003fee:	2200      	movs	r2, #0
10003ff0:	569a      	ldrsb	r2, [r3, r2]
10003ff2:	687b      	ldr	r3, [r7, #4]
10003ff4:	719a      	strb	r2, [r3, #6]
10003ff6:	68fb      	ldr	r3, [r7, #12]
10003ff8:	b25a      	sxtb	r2, r3
10003ffa:	4b0f      	ldr	r3, [pc, #60]	; (10004038 <irq_add_tail_to_free_list+0x168>)
10003ffc:	701a      	strb	r2, [r3, #0]
10003ffe:	693a      	ldr	r2, [r7, #16]
10004000:	697b      	ldr	r3, [r7, #20]
10004002:	0011      	movs	r1, r2
10004004:	0018      	movs	r0, r3
10004006:	f7ff fc89 	bl	1000391c <spin_unlock>
1000400a:	46c0      	nop			; (mov r8, r8)
1000400c:	46bd      	mov	sp, r7
1000400e:	b00b      	add	sp, #44	; 0x2c
10004010:	bd90      	pop	{r4, r7, pc}
10004012:	46c0      	nop			; (mov r8, r8)
10004014:	1000889c 	.word	0x1000889c
10004018:	1000893c 	.word	0x1000893c
1000401c:	1000873c 	.word	0x1000873c
10004020:	100088c4 	.word	0x100088c4
10004024:	2000027c 	.word	0x2000027c
10004028:	aaaaaaab 	.word	0xaaaaaaab
1000402c:	100001cd 	.word	0x100001cd
10004030:	ffffbd00 	.word	0xffffbd00
10004034:	100088d0 	.word	0x100088d0
10004038:	20001946 	.word	0x20001946

1000403c <irq_init_priorities>:
1000403c:	b580      	push	{r7, lr}
1000403e:	b082      	sub	sp, #8
10004040:	af00      	add	r7, sp, #0
10004042:	2300      	movs	r3, #0
10004044:	607b      	str	r3, [r7, #4]
10004046:	e007      	b.n	10004058 <irq_init_priorities+0x1c>
10004048:	687b      	ldr	r3, [r7, #4]
1000404a:	2180      	movs	r1, #128	; 0x80
1000404c:	0018      	movs	r0, r3
1000404e:	f7ff ff11 	bl	10003e74 <irq_set_priority>
10004052:	687b      	ldr	r3, [r7, #4]
10004054:	3301      	adds	r3, #1
10004056:	607b      	str	r3, [r7, #4]
10004058:	687b      	ldr	r3, [r7, #4]
1000405a:	2b1f      	cmp	r3, #31
1000405c:	d9f4      	bls.n	10004048 <irq_init_priorities+0xc>
1000405e:	46c0      	nop			; (mov r8, r8)
10004060:	46bd      	mov	sp, r7
10004062:	b002      	add	sp, #8
10004064:	bd80      	pop	{r7, pc}

10004066 <_out_null>:
10004066:	b580      	push	{r7, lr}
10004068:	b084      	sub	sp, #16
1000406a:	af00      	add	r7, sp, #0
1000406c:	60b9      	str	r1, [r7, #8]
1000406e:	607a      	str	r2, [r7, #4]
10004070:	603b      	str	r3, [r7, #0]
10004072:	230f      	movs	r3, #15
10004074:	18fb      	adds	r3, r7, r3
10004076:	1c02      	adds	r2, r0, #0
10004078:	701a      	strb	r2, [r3, #0]
1000407a:	46c0      	nop			; (mov r8, r8)
1000407c:	46bd      	mov	sp, r7
1000407e:	b004      	add	sp, #16
10004080:	bd80      	pop	{r7, pc}

10004082 <_out_fct>:
10004082:	b580      	push	{r7, lr}
10004084:	b084      	sub	sp, #16
10004086:	af00      	add	r7, sp, #0
10004088:	60b9      	str	r1, [r7, #8]
1000408a:	607a      	str	r2, [r7, #4]
1000408c:	603b      	str	r3, [r7, #0]
1000408e:	230f      	movs	r3, #15
10004090:	18fb      	adds	r3, r7, r3
10004092:	1c02      	adds	r2, r0, #0
10004094:	701a      	strb	r2, [r3, #0]
10004096:	230f      	movs	r3, #15
10004098:	18fb      	adds	r3, r7, r3
1000409a:	781b      	ldrb	r3, [r3, #0]
1000409c:	2b00      	cmp	r3, #0
1000409e:	d008      	beq.n	100040b2 <_out_fct+0x30>
100040a0:	68bb      	ldr	r3, [r7, #8]
100040a2:	681a      	ldr	r2, [r3, #0]
100040a4:	68bb      	ldr	r3, [r7, #8]
100040a6:	6859      	ldr	r1, [r3, #4]
100040a8:	230f      	movs	r3, #15
100040aa:	18fb      	adds	r3, r7, r3
100040ac:	781b      	ldrb	r3, [r3, #0]
100040ae:	0018      	movs	r0, r3
100040b0:	4790      	blx	r2
100040b2:	46c0      	nop			; (mov r8, r8)
100040b4:	46bd      	mov	sp, r7
100040b6:	b004      	add	sp, #16
100040b8:	bd80      	pop	{r7, pc}

100040ba <_strnlen_s>:
100040ba:	b580      	push	{r7, lr}
100040bc:	b084      	sub	sp, #16
100040be:	af00      	add	r7, sp, #0
100040c0:	6078      	str	r0, [r7, #4]
100040c2:	6039      	str	r1, [r7, #0]
100040c4:	687b      	ldr	r3, [r7, #4]
100040c6:	60fb      	str	r3, [r7, #12]
100040c8:	e002      	b.n	100040d0 <_strnlen_s+0x16>
100040ca:	68fb      	ldr	r3, [r7, #12]
100040cc:	3301      	adds	r3, #1
100040ce:	60fb      	str	r3, [r7, #12]
100040d0:	68fb      	ldr	r3, [r7, #12]
100040d2:	781b      	ldrb	r3, [r3, #0]
100040d4:	2b00      	cmp	r3, #0
100040d6:	d004      	beq.n	100040e2 <_strnlen_s+0x28>
100040d8:	683b      	ldr	r3, [r7, #0]
100040da:	1e5a      	subs	r2, r3, #1
100040dc:	603a      	str	r2, [r7, #0]
100040de:	2b00      	cmp	r3, #0
100040e0:	d1f3      	bne.n	100040ca <_strnlen_s+0x10>
100040e2:	68fa      	ldr	r2, [r7, #12]
100040e4:	687b      	ldr	r3, [r7, #4]
100040e6:	1ad3      	subs	r3, r2, r3
100040e8:	0018      	movs	r0, r3
100040ea:	46bd      	mov	sp, r7
100040ec:	b004      	add	sp, #16
100040ee:	bd80      	pop	{r7, pc}

100040f0 <_is_digit>:
100040f0:	b580      	push	{r7, lr}
100040f2:	b082      	sub	sp, #8
100040f4:	af00      	add	r7, sp, #0
100040f6:	0002      	movs	r2, r0
100040f8:	1dfb      	adds	r3, r7, #7
100040fa:	701a      	strb	r2, [r3, #0]
100040fc:	1dfb      	adds	r3, r7, #7
100040fe:	781b      	ldrb	r3, [r3, #0]
10004100:	2b2f      	cmp	r3, #47	; 0x2f
10004102:	d905      	bls.n	10004110 <_is_digit+0x20>
10004104:	1dfb      	adds	r3, r7, #7
10004106:	781b      	ldrb	r3, [r3, #0]
10004108:	2b39      	cmp	r3, #57	; 0x39
1000410a:	d801      	bhi.n	10004110 <_is_digit+0x20>
1000410c:	2301      	movs	r3, #1
1000410e:	e000      	b.n	10004112 <_is_digit+0x22>
10004110:	2300      	movs	r3, #0
10004112:	1c1a      	adds	r2, r3, #0
10004114:	2301      	movs	r3, #1
10004116:	4013      	ands	r3, r2
10004118:	b2db      	uxtb	r3, r3
1000411a:	0018      	movs	r0, r3
1000411c:	46bd      	mov	sp, r7
1000411e:	b002      	add	sp, #8
10004120:	bd80      	pop	{r7, pc}

10004122 <_atoi>:
10004122:	b580      	push	{r7, lr}
10004124:	b084      	sub	sp, #16
10004126:	af00      	add	r7, sp, #0
10004128:	6078      	str	r0, [r7, #4]
1000412a:	2300      	movs	r3, #0
1000412c:	60fb      	str	r3, [r7, #12]
1000412e:	e00e      	b.n	1000414e <_atoi+0x2c>
10004130:	68fa      	ldr	r2, [r7, #12]
10004132:	0013      	movs	r3, r2
10004134:	009b      	lsls	r3, r3, #2
10004136:	189b      	adds	r3, r3, r2
10004138:	005b      	lsls	r3, r3, #1
1000413a:	0018      	movs	r0, r3
1000413c:	687b      	ldr	r3, [r7, #4]
1000413e:	681b      	ldr	r3, [r3, #0]
10004140:	1c59      	adds	r1, r3, #1
10004142:	687a      	ldr	r2, [r7, #4]
10004144:	6011      	str	r1, [r2, #0]
10004146:	781b      	ldrb	r3, [r3, #0]
10004148:	18c3      	adds	r3, r0, r3
1000414a:	3b30      	subs	r3, #48	; 0x30
1000414c:	60fb      	str	r3, [r7, #12]
1000414e:	687b      	ldr	r3, [r7, #4]
10004150:	681b      	ldr	r3, [r3, #0]
10004152:	781b      	ldrb	r3, [r3, #0]
10004154:	0018      	movs	r0, r3
10004156:	f7ff ffcb 	bl	100040f0 <_is_digit>
1000415a:	1e03      	subs	r3, r0, #0
1000415c:	d1e8      	bne.n	10004130 <_atoi+0xe>
1000415e:	68fb      	ldr	r3, [r7, #12]
10004160:	0018      	movs	r0, r3
10004162:	46bd      	mov	sp, r7
10004164:	b004      	add	sp, #16
10004166:	bd80      	pop	{r7, pc}

10004168 <_out_rev>:
10004168:	b590      	push	{r4, r7, lr}
1000416a:	b087      	sub	sp, #28
1000416c:	af00      	add	r7, sp, #0
1000416e:	60f8      	str	r0, [r7, #12]
10004170:	60b9      	str	r1, [r7, #8]
10004172:	607a      	str	r2, [r7, #4]
10004174:	603b      	str	r3, [r7, #0]
10004176:	687b      	ldr	r3, [r7, #4]
10004178:	613b      	str	r3, [r7, #16]
1000417a:	6b7b      	ldr	r3, [r7, #52]	; 0x34
1000417c:	2202      	movs	r2, #2
1000417e:	4013      	ands	r3, r2
10004180:	d124      	bne.n	100041cc <_out_rev+0x64>
10004182:	6b7b      	ldr	r3, [r7, #52]	; 0x34
10004184:	2201      	movs	r2, #1
10004186:	4013      	ands	r3, r2
10004188:	d120      	bne.n	100041cc <_out_rev+0x64>
1000418a:	6afb      	ldr	r3, [r7, #44]	; 0x2c
1000418c:	617b      	str	r3, [r7, #20]
1000418e:	e00a      	b.n	100041a6 <_out_rev+0x3e>
10004190:	687a      	ldr	r2, [r7, #4]
10004192:	1c53      	adds	r3, r2, #1
10004194:	607b      	str	r3, [r7, #4]
10004196:	683b      	ldr	r3, [r7, #0]
10004198:	68b9      	ldr	r1, [r7, #8]
1000419a:	68fc      	ldr	r4, [r7, #12]
1000419c:	2020      	movs	r0, #32
1000419e:	47a0      	blx	r4
100041a0:	697b      	ldr	r3, [r7, #20]
100041a2:	3301      	adds	r3, #1
100041a4:	617b      	str	r3, [r7, #20]
100041a6:	697a      	ldr	r2, [r7, #20]
100041a8:	6b3b      	ldr	r3, [r7, #48]	; 0x30
100041aa:	429a      	cmp	r2, r3
100041ac:	d3f0      	bcc.n	10004190 <_out_rev+0x28>
100041ae:	e00d      	b.n	100041cc <_out_rev+0x64>
100041b0:	6afb      	ldr	r3, [r7, #44]	; 0x2c
100041b2:	3b01      	subs	r3, #1
100041b4:	62fb      	str	r3, [r7, #44]	; 0x2c
100041b6:	6aba      	ldr	r2, [r7, #40]	; 0x28
100041b8:	6afb      	ldr	r3, [r7, #44]	; 0x2c
100041ba:	18d3      	adds	r3, r2, r3
100041bc:	7818      	ldrb	r0, [r3, #0]
100041be:	687a      	ldr	r2, [r7, #4]
100041c0:	1c53      	adds	r3, r2, #1
100041c2:	607b      	str	r3, [r7, #4]
100041c4:	683b      	ldr	r3, [r7, #0]
100041c6:	68b9      	ldr	r1, [r7, #8]
100041c8:	68fc      	ldr	r4, [r7, #12]
100041ca:	47a0      	blx	r4
100041cc:	6afb      	ldr	r3, [r7, #44]	; 0x2c
100041ce:	2b00      	cmp	r3, #0
100041d0:	d1ee      	bne.n	100041b0 <_out_rev+0x48>
100041d2:	6b7b      	ldr	r3, [r7, #52]	; 0x34
100041d4:	2202      	movs	r2, #2
100041d6:	4013      	ands	r3, r2
100041d8:	d00e      	beq.n	100041f8 <_out_rev+0x90>
100041da:	e007      	b.n	100041ec <_out_rev+0x84>
100041dc:	687a      	ldr	r2, [r7, #4]
100041de:	1c53      	adds	r3, r2, #1
100041e0:	607b      	str	r3, [r7, #4]
100041e2:	683b      	ldr	r3, [r7, #0]
100041e4:	68b9      	ldr	r1, [r7, #8]
100041e6:	68fc      	ldr	r4, [r7, #12]
100041e8:	2020      	movs	r0, #32
100041ea:	47a0      	blx	r4
100041ec:	687a      	ldr	r2, [r7, #4]
100041ee:	693b      	ldr	r3, [r7, #16]
100041f0:	1ad2      	subs	r2, r2, r3
100041f2:	6b3b      	ldr	r3, [r7, #48]	; 0x30
100041f4:	429a      	cmp	r2, r3
100041f6:	d3f1      	bcc.n	100041dc <_out_rev+0x74>
100041f8:	687b      	ldr	r3, [r7, #4]
100041fa:	0018      	movs	r0, r3
100041fc:	46bd      	mov	sp, r7
100041fe:	b007      	add	sp, #28
10004200:	bd90      	pop	{r4, r7, pc}

10004202 <_ntoa_format>:
10004202:	b590      	push	{r4, r7, lr}
10004204:	b089      	sub	sp, #36	; 0x24
10004206:	af04      	add	r7, sp, #16
10004208:	60f8      	str	r0, [r7, #12]
1000420a:	60b9      	str	r1, [r7, #8]
1000420c:	607a      	str	r2, [r7, #4]
1000420e:	603b      	str	r3, [r7, #0]
10004210:	6bbb      	ldr	r3, [r7, #56]	; 0x38
10004212:	2202      	movs	r2, #2
10004214:	4013      	ands	r3, r2
10004216:	d134      	bne.n	10004282 <_ntoa_format+0x80>
10004218:	6b7b      	ldr	r3, [r7, #52]	; 0x34
1000421a:	2b00      	cmp	r3, #0
1000421c:	d017      	beq.n	1000424e <_ntoa_format+0x4c>
1000421e:	6bbb      	ldr	r3, [r7, #56]	; 0x38
10004220:	2201      	movs	r2, #1
10004222:	4013      	ands	r3, r2
10004224:	d013      	beq.n	1000424e <_ntoa_format+0x4c>
10004226:	2328      	movs	r3, #40	; 0x28
10004228:	18fb      	adds	r3, r7, r3
1000422a:	781b      	ldrb	r3, [r3, #0]
1000422c:	2b00      	cmp	r3, #0
1000422e:	d103      	bne.n	10004238 <_ntoa_format+0x36>
10004230:	6bbb      	ldr	r3, [r7, #56]	; 0x38
10004232:	220c      	movs	r2, #12
10004234:	4013      	ands	r3, r2
10004236:	d00a      	beq.n	1000424e <_ntoa_format+0x4c>
10004238:	6b7b      	ldr	r3, [r7, #52]	; 0x34
1000423a:	3b01      	subs	r3, #1
1000423c:	637b      	str	r3, [r7, #52]	; 0x34
1000423e:	e006      	b.n	1000424e <_ntoa_format+0x4c>
10004240:	6a7b      	ldr	r3, [r7, #36]	; 0x24
10004242:	1c5a      	adds	r2, r3, #1
10004244:	627a      	str	r2, [r7, #36]	; 0x24
10004246:	6a3a      	ldr	r2, [r7, #32]
10004248:	18d3      	adds	r3, r2, r3
1000424a:	2230      	movs	r2, #48	; 0x30
1000424c:	701a      	strb	r2, [r3, #0]
1000424e:	6a7a      	ldr	r2, [r7, #36]	; 0x24
10004250:	6b3b      	ldr	r3, [r7, #48]	; 0x30
10004252:	429a      	cmp	r2, r3
10004254:	d20a      	bcs.n	1000426c <_ntoa_format+0x6a>
10004256:	6a7b      	ldr	r3, [r7, #36]	; 0x24
10004258:	2b1f      	cmp	r3, #31
1000425a:	d9f1      	bls.n	10004240 <_ntoa_format+0x3e>
1000425c:	e006      	b.n	1000426c <_ntoa_format+0x6a>
1000425e:	6a7b      	ldr	r3, [r7, #36]	; 0x24
10004260:	1c5a      	adds	r2, r3, #1
10004262:	627a      	str	r2, [r7, #36]	; 0x24
10004264:	6a3a      	ldr	r2, [r7, #32]
10004266:	18d3      	adds	r3, r2, r3
10004268:	2230      	movs	r2, #48	; 0x30
1000426a:	701a      	strb	r2, [r3, #0]
1000426c:	6bbb      	ldr	r3, [r7, #56]	; 0x38
1000426e:	2201      	movs	r2, #1
10004270:	4013      	ands	r3, r2
10004272:	d006      	beq.n	10004282 <_ntoa_format+0x80>
10004274:	6a7a      	ldr	r2, [r7, #36]	; 0x24
10004276:	6b7b      	ldr	r3, [r7, #52]	; 0x34
10004278:	429a      	cmp	r2, r3
1000427a:	d202      	bcs.n	10004282 <_ntoa_format+0x80>
1000427c:	6a7b      	ldr	r3, [r7, #36]	; 0x24
1000427e:	2b1f      	cmp	r3, #31
10004280:	d9ed      	bls.n	1000425e <_ntoa_format+0x5c>
10004282:	6bbb      	ldr	r3, [r7, #56]	; 0x38
10004284:	2210      	movs	r2, #16
10004286:	4013      	ands	r3, r2
10004288:	d056      	beq.n	10004338 <_ntoa_format+0x136>
1000428a:	6bba      	ldr	r2, [r7, #56]	; 0x38
1000428c:	2380      	movs	r3, #128	; 0x80
1000428e:	00db      	lsls	r3, r3, #3
10004290:	4013      	ands	r3, r2
10004292:	d116      	bne.n	100042c2 <_ntoa_format+0xc0>
10004294:	6a7b      	ldr	r3, [r7, #36]	; 0x24
10004296:	2b00      	cmp	r3, #0
10004298:	d013      	beq.n	100042c2 <_ntoa_format+0xc0>
1000429a:	6a7a      	ldr	r2, [r7, #36]	; 0x24
1000429c:	6b3b      	ldr	r3, [r7, #48]	; 0x30
1000429e:	429a      	cmp	r2, r3
100042a0:	d003      	beq.n	100042aa <_ntoa_format+0xa8>
100042a2:	6a7a      	ldr	r2, [r7, #36]	; 0x24
100042a4:	6b7b      	ldr	r3, [r7, #52]	; 0x34
100042a6:	429a      	cmp	r2, r3
100042a8:	d10b      	bne.n	100042c2 <_ntoa_format+0xc0>
100042aa:	6a7b      	ldr	r3, [r7, #36]	; 0x24
100042ac:	3b01      	subs	r3, #1
100042ae:	627b      	str	r3, [r7, #36]	; 0x24
100042b0:	6a7b      	ldr	r3, [r7, #36]	; 0x24
100042b2:	2b00      	cmp	r3, #0
100042b4:	d005      	beq.n	100042c2 <_ntoa_format+0xc0>
100042b6:	6afb      	ldr	r3, [r7, #44]	; 0x2c
100042b8:	2b10      	cmp	r3, #16
100042ba:	d102      	bne.n	100042c2 <_ntoa_format+0xc0>
100042bc:	6a7b      	ldr	r3, [r7, #36]	; 0x24
100042be:	3b01      	subs	r3, #1
100042c0:	627b      	str	r3, [r7, #36]	; 0x24
100042c2:	6afb      	ldr	r3, [r7, #44]	; 0x2c
100042c4:	2b10      	cmp	r3, #16
100042c6:	d10e      	bne.n	100042e6 <_ntoa_format+0xe4>
100042c8:	6bbb      	ldr	r3, [r7, #56]	; 0x38
100042ca:	2220      	movs	r2, #32
100042cc:	4013      	ands	r3, r2
100042ce:	d10a      	bne.n	100042e6 <_ntoa_format+0xe4>
100042d0:	6a7b      	ldr	r3, [r7, #36]	; 0x24
100042d2:	2b1f      	cmp	r3, #31
100042d4:	d807      	bhi.n	100042e6 <_ntoa_format+0xe4>
100042d6:	6a7b      	ldr	r3, [r7, #36]	; 0x24
100042d8:	1c5a      	adds	r2, r3, #1
100042da:	627a      	str	r2, [r7, #36]	; 0x24
100042dc:	6a3a      	ldr	r2, [r7, #32]
100042de:	18d3      	adds	r3, r2, r3
100042e0:	2278      	movs	r2, #120	; 0x78
100042e2:	701a      	strb	r2, [r3, #0]
100042e4:	e01e      	b.n	10004324 <_ntoa_format+0x122>
100042e6:	6afb      	ldr	r3, [r7, #44]	; 0x2c
100042e8:	2b10      	cmp	r3, #16
100042ea:	d10e      	bne.n	1000430a <_ntoa_format+0x108>
100042ec:	6bbb      	ldr	r3, [r7, #56]	; 0x38
100042ee:	2220      	movs	r2, #32
100042f0:	4013      	ands	r3, r2
100042f2:	d00a      	beq.n	1000430a <_ntoa_format+0x108>
100042f4:	6a7b      	ldr	r3, [r7, #36]	; 0x24
100042f6:	2b1f      	cmp	r3, #31
100042f8:	d807      	bhi.n	1000430a <_ntoa_format+0x108>
100042fa:	6a7b      	ldr	r3, [r7, #36]	; 0x24
100042fc:	1c5a      	adds	r2, r3, #1
100042fe:	627a      	str	r2, [r7, #36]	; 0x24
10004300:	6a3a      	ldr	r2, [r7, #32]
10004302:	18d3      	adds	r3, r2, r3
10004304:	2258      	movs	r2, #88	; 0x58
10004306:	701a      	strb	r2, [r3, #0]
10004308:	e00c      	b.n	10004324 <_ntoa_format+0x122>
1000430a:	6afb      	ldr	r3, [r7, #44]	; 0x2c
1000430c:	2b02      	cmp	r3, #2
1000430e:	d109      	bne.n	10004324 <_ntoa_format+0x122>
10004310:	6a7b      	ldr	r3, [r7, #36]	; 0x24
10004312:	2b1f      	cmp	r3, #31
10004314:	d806      	bhi.n	10004324 <_ntoa_format+0x122>
10004316:	6a7b      	ldr	r3, [r7, #36]	; 0x24
10004318:	1c5a      	adds	r2, r3, #1
1000431a:	627a      	str	r2, [r7, #36]	; 0x24
1000431c:	6a3a      	ldr	r2, [r7, #32]
1000431e:	18d3      	adds	r3, r2, r3
10004320:	2262      	movs	r2, #98	; 0x62
10004322:	701a      	strb	r2, [r3, #0]
10004324:	6a7b      	ldr	r3, [r7, #36]	; 0x24
10004326:	2b1f      	cmp	r3, #31
10004328:	d806      	bhi.n	10004338 <_ntoa_format+0x136>
1000432a:	6a7b      	ldr	r3, [r7, #36]	; 0x24
1000432c:	1c5a      	adds	r2, r3, #1
1000432e:	627a      	str	r2, [r7, #36]	; 0x24
10004330:	6a3a      	ldr	r2, [r7, #32]
10004332:	18d3      	adds	r3, r2, r3
10004334:	2230      	movs	r2, #48	; 0x30
10004336:	701a      	strb	r2, [r3, #0]
10004338:	6a7b      	ldr	r3, [r7, #36]	; 0x24
1000433a:	2b1f      	cmp	r3, #31
1000433c:	d823      	bhi.n	10004386 <_ntoa_format+0x184>
1000433e:	2328      	movs	r3, #40	; 0x28
10004340:	18fb      	adds	r3, r7, r3
10004342:	781b      	ldrb	r3, [r3, #0]
10004344:	2b00      	cmp	r3, #0
10004346:	d007      	beq.n	10004358 <_ntoa_format+0x156>
10004348:	6a7b      	ldr	r3, [r7, #36]	; 0x24
1000434a:	1c5a      	adds	r2, r3, #1
1000434c:	627a      	str	r2, [r7, #36]	; 0x24
1000434e:	6a3a      	ldr	r2, [r7, #32]
10004350:	18d3      	adds	r3, r2, r3
10004352:	222d      	movs	r2, #45	; 0x2d
10004354:	701a      	strb	r2, [r3, #0]
10004356:	e016      	b.n	10004386 <_ntoa_format+0x184>
10004358:	6bbb      	ldr	r3, [r7, #56]	; 0x38
1000435a:	2204      	movs	r2, #4
1000435c:	4013      	ands	r3, r2
1000435e:	d007      	beq.n	10004370 <_ntoa_format+0x16e>
10004360:	6a7b      	ldr	r3, [r7, #36]	; 0x24
10004362:	1c5a      	adds	r2, r3, #1
10004364:	627a      	str	r2, [r7, #36]	; 0x24
10004366:	6a3a      	ldr	r2, [r7, #32]
10004368:	18d3      	adds	r3, r2, r3
1000436a:	222b      	movs	r2, #43	; 0x2b
1000436c:	701a      	strb	r2, [r3, #0]
1000436e:	e00a      	b.n	10004386 <_ntoa_format+0x184>
10004370:	6bbb      	ldr	r3, [r7, #56]	; 0x38
10004372:	2208      	movs	r2, #8
10004374:	4013      	ands	r3, r2
10004376:	d006      	beq.n	10004386 <_ntoa_format+0x184>
10004378:	6a7b      	ldr	r3, [r7, #36]	; 0x24
1000437a:	1c5a      	adds	r2, r3, #1
1000437c:	627a      	str	r2, [r7, #36]	; 0x24
1000437e:	6a3a      	ldr	r2, [r7, #32]
10004380:	18d3      	adds	r3, r2, r3
10004382:	2220      	movs	r2, #32
10004384:	701a      	strb	r2, [r3, #0]
10004386:	683c      	ldr	r4, [r7, #0]
10004388:	687a      	ldr	r2, [r7, #4]
1000438a:	68b9      	ldr	r1, [r7, #8]
1000438c:	68f8      	ldr	r0, [r7, #12]
1000438e:	6bbb      	ldr	r3, [r7, #56]	; 0x38
10004390:	9303      	str	r3, [sp, #12]
10004392:	6b7b      	ldr	r3, [r7, #52]	; 0x34
10004394:	9302      	str	r3, [sp, #8]
10004396:	6a7b      	ldr	r3, [r7, #36]	; 0x24
10004398:	9301      	str	r3, [sp, #4]
1000439a:	6a3b      	ldr	r3, [r7, #32]
1000439c:	9300      	str	r3, [sp, #0]
1000439e:	0023      	movs	r3, r4
100043a0:	f7ff fee2 	bl	10004168 <_out_rev>
100043a4:	0003      	movs	r3, r0
100043a6:	0018      	movs	r0, r3
100043a8:	46bd      	mov	sp, r7
100043aa:	b005      	add	sp, #20
100043ac:	bd90      	pop	{r4, r7, pc}

100043ae <_ntoa_long>:
100043ae:	b590      	push	{r4, r7, lr}
100043b0:	b097      	sub	sp, #92	; 0x5c
100043b2:	af08      	add	r7, sp, #32
100043b4:	60f8      	str	r0, [r7, #12]
100043b6:	60b9      	str	r1, [r7, #8]
100043b8:	607a      	str	r2, [r7, #4]
100043ba:	603b      	str	r3, [r7, #0]
100043bc:	2300      	movs	r3, #0
100043be:	637b      	str	r3, [r7, #52]	; 0x34
100043c0:	6cbb      	ldr	r3, [r7, #72]	; 0x48
100043c2:	2b00      	cmp	r3, #0
100043c4:	d103      	bne.n	100043ce <_ntoa_long+0x20>
100043c6:	6dfb      	ldr	r3, [r7, #92]	; 0x5c
100043c8:	2210      	movs	r2, #16
100043ca:	4393      	bics	r3, r2
100043cc:	65fb      	str	r3, [r7, #92]	; 0x5c
100043ce:	6dfa      	ldr	r2, [r7, #92]	; 0x5c
100043d0:	2380      	movs	r3, #128	; 0x80
100043d2:	00db      	lsls	r3, r3, #3
100043d4:	4013      	ands	r3, r2
100043d6:	d002      	beq.n	100043de <_ntoa_long+0x30>
100043d8:	6cbb      	ldr	r3, [r7, #72]	; 0x48
100043da:	2b00      	cmp	r3, #0
100043dc:	d034      	beq.n	10004448 <_ntoa_long+0x9a>
100043de:	6cbb      	ldr	r3, [r7, #72]	; 0x48
100043e0:	6d39      	ldr	r1, [r7, #80]	; 0x50
100043e2:	0018      	movs	r0, r3
100043e4:	f001 faea 	bl	100059bc <__wrap___aeabi_uidiv>
100043e8:	000b      	movs	r3, r1
100043ea:	001a      	movs	r2, r3
100043ec:	2333      	movs	r3, #51	; 0x33
100043ee:	18fb      	adds	r3, r7, r3
100043f0:	701a      	strb	r2, [r3, #0]
100043f2:	6b7b      	ldr	r3, [r7, #52]	; 0x34
100043f4:	1c5a      	adds	r2, r3, #1
100043f6:	637a      	str	r2, [r7, #52]	; 0x34
100043f8:	2233      	movs	r2, #51	; 0x33
100043fa:	18ba      	adds	r2, r7, r2
100043fc:	7812      	ldrb	r2, [r2, #0]
100043fe:	2a09      	cmp	r2, #9
10004400:	d805      	bhi.n	1000440e <_ntoa_long+0x60>
10004402:	2233      	movs	r2, #51	; 0x33
10004404:	18ba      	adds	r2, r7, r2
10004406:	7812      	ldrb	r2, [r2, #0]
10004408:	3230      	adds	r2, #48	; 0x30
1000440a:	b2d2      	uxtb	r2, r2
1000440c:	e00d      	b.n	1000442a <_ntoa_long+0x7c>
1000440e:	6dfa      	ldr	r2, [r7, #92]	; 0x5c
10004410:	2120      	movs	r1, #32
10004412:	400a      	ands	r2, r1
10004414:	d001      	beq.n	1000441a <_ntoa_long+0x6c>
10004416:	2241      	movs	r2, #65	; 0x41
10004418:	e000      	b.n	1000441c <_ntoa_long+0x6e>
1000441a:	2261      	movs	r2, #97	; 0x61
1000441c:	2133      	movs	r1, #51	; 0x33
1000441e:	1879      	adds	r1, r7, r1
10004420:	7809      	ldrb	r1, [r1, #0]
10004422:	1852      	adds	r2, r2, r1
10004424:	b2d2      	uxtb	r2, r2
10004426:	3a0a      	subs	r2, #10
10004428:	b2d2      	uxtb	r2, r2
1000442a:	2110      	movs	r1, #16
1000442c:	1879      	adds	r1, r7, r1
1000442e:	54ca      	strb	r2, [r1, r3]
10004430:	6d39      	ldr	r1, [r7, #80]	; 0x50
10004432:	6cb8      	ldr	r0, [r7, #72]	; 0x48
10004434:	f001 fac2 	bl	100059bc <__wrap___aeabi_uidiv>
10004438:	0003      	movs	r3, r0
1000443a:	64bb      	str	r3, [r7, #72]	; 0x48
1000443c:	6cbb      	ldr	r3, [r7, #72]	; 0x48
1000443e:	2b00      	cmp	r3, #0
10004440:	d002      	beq.n	10004448 <_ntoa_long+0x9a>
10004442:	6b7b      	ldr	r3, [r7, #52]	; 0x34
10004444:	2b1f      	cmp	r3, #31
10004446:	d9ca      	bls.n	100043de <_ntoa_long+0x30>
10004448:	683c      	ldr	r4, [r7, #0]
1000444a:	687a      	ldr	r2, [r7, #4]
1000444c:	68b9      	ldr	r1, [r7, #8]
1000444e:	68f8      	ldr	r0, [r7, #12]
10004450:	6dfb      	ldr	r3, [r7, #92]	; 0x5c
10004452:	9306      	str	r3, [sp, #24]
10004454:	6dbb      	ldr	r3, [r7, #88]	; 0x58
10004456:	9305      	str	r3, [sp, #20]
10004458:	6d7b      	ldr	r3, [r7, #84]	; 0x54
1000445a:	9304      	str	r3, [sp, #16]
1000445c:	6d3b      	ldr	r3, [r7, #80]	; 0x50
1000445e:	9303      	str	r3, [sp, #12]
10004460:	234c      	movs	r3, #76	; 0x4c
10004462:	18fb      	adds	r3, r7, r3
10004464:	781b      	ldrb	r3, [r3, #0]
10004466:	9302      	str	r3, [sp, #8]
10004468:	6b7b      	ldr	r3, [r7, #52]	; 0x34
1000446a:	9301      	str	r3, [sp, #4]
1000446c:	2310      	movs	r3, #16
1000446e:	18fb      	adds	r3, r7, r3
10004470:	9300      	str	r3, [sp, #0]
10004472:	0023      	movs	r3, r4
10004474:	f7ff fec5 	bl	10004202 <_ntoa_format>
10004478:	0003      	movs	r3, r0
1000447a:	0018      	movs	r0, r3
1000447c:	46bd      	mov	sp, r7
1000447e:	b00f      	add	sp, #60	; 0x3c
10004480:	bd90      	pop	{r4, r7, pc}

10004482 <_ntoa_long_long>:
10004482:	b5b0      	push	{r4, r5, r7, lr}
10004484:	b096      	sub	sp, #88	; 0x58
10004486:	af08      	add	r7, sp, #32
10004488:	60f8      	str	r0, [r7, #12]
1000448a:	60b9      	str	r1, [r7, #8]
1000448c:	607a      	str	r2, [r7, #4]
1000448e:	603b      	str	r3, [r7, #0]
10004490:	2300      	movs	r3, #0
10004492:	637b      	str	r3, [r7, #52]	; 0x34
10004494:	6cbb      	ldr	r3, [r7, #72]	; 0x48
10004496:	6cfa      	ldr	r2, [r7, #76]	; 0x4c
10004498:	4313      	orrs	r3, r2
1000449a:	d103      	bne.n	100044a4 <_ntoa_long_long+0x22>
1000449c:	6ebb      	ldr	r3, [r7, #104]	; 0x68
1000449e:	2210      	movs	r2, #16
100044a0:	4393      	bics	r3, r2
100044a2:	66bb      	str	r3, [r7, #104]	; 0x68
100044a4:	6eba      	ldr	r2, [r7, #104]	; 0x68
100044a6:	2380      	movs	r3, #128	; 0x80
100044a8:	00db      	lsls	r3, r3, #3
100044aa:	4013      	ands	r3, r2
100044ac:	d003      	beq.n	100044b6 <_ntoa_long_long+0x34>
100044ae:	6cbb      	ldr	r3, [r7, #72]	; 0x48
100044b0:	6cfa      	ldr	r2, [r7, #76]	; 0x4c
100044b2:	4313      	orrs	r3, r2
100044b4:	d03d      	beq.n	10004532 <_ntoa_long_long+0xb0>
100044b6:	6cb8      	ldr	r0, [r7, #72]	; 0x48
100044b8:	6cf9      	ldr	r1, [r7, #76]	; 0x4c
100044ba:	6dba      	ldr	r2, [r7, #88]	; 0x58
100044bc:	6dfb      	ldr	r3, [r7, #92]	; 0x5c
100044be:	f001 fac3 	bl	10005a48 <__wrap___aeabi_uldivmod>
100044c2:	001c      	movs	r4, r3
100044c4:	0013      	movs	r3, r2
100044c6:	0019      	movs	r1, r3
100044c8:	0022      	movs	r2, r4
100044ca:	2333      	movs	r3, #51	; 0x33
100044cc:	18fb      	adds	r3, r7, r3
100044ce:	1c0a      	adds	r2, r1, #0
100044d0:	701a      	strb	r2, [r3, #0]
100044d2:	6b7b      	ldr	r3, [r7, #52]	; 0x34
100044d4:	1c5a      	adds	r2, r3, #1
100044d6:	637a      	str	r2, [r7, #52]	; 0x34
100044d8:	2233      	movs	r2, #51	; 0x33
100044da:	18ba      	adds	r2, r7, r2
100044dc:	7812      	ldrb	r2, [r2, #0]
100044de:	2a09      	cmp	r2, #9
100044e0:	d805      	bhi.n	100044ee <_ntoa_long_long+0x6c>
100044e2:	2233      	movs	r2, #51	; 0x33
100044e4:	18ba      	adds	r2, r7, r2
100044e6:	7812      	ldrb	r2, [r2, #0]
100044e8:	3230      	adds	r2, #48	; 0x30
100044ea:	b2d2      	uxtb	r2, r2
100044ec:	e00d      	b.n	1000450a <_ntoa_long_long+0x88>
100044ee:	6eba      	ldr	r2, [r7, #104]	; 0x68
100044f0:	2120      	movs	r1, #32
100044f2:	400a      	ands	r2, r1
100044f4:	d001      	beq.n	100044fa <_ntoa_long_long+0x78>
100044f6:	2241      	movs	r2, #65	; 0x41
100044f8:	e000      	b.n	100044fc <_ntoa_long_long+0x7a>
100044fa:	2261      	movs	r2, #97	; 0x61
100044fc:	2133      	movs	r1, #51	; 0x33
100044fe:	1879      	adds	r1, r7, r1
10004500:	7809      	ldrb	r1, [r1, #0]
10004502:	1852      	adds	r2, r2, r1
10004504:	b2d2      	uxtb	r2, r2
10004506:	3a0a      	subs	r2, #10
10004508:	b2d2      	uxtb	r2, r2
1000450a:	2110      	movs	r1, #16
1000450c:	1879      	adds	r1, r7, r1
1000450e:	54ca      	strb	r2, [r1, r3]
10004510:	6dba      	ldr	r2, [r7, #88]	; 0x58
10004512:	6dfb      	ldr	r3, [r7, #92]	; 0x5c
10004514:	6cb8      	ldr	r0, [r7, #72]	; 0x48
10004516:	6cf9      	ldr	r1, [r7, #76]	; 0x4c
10004518:	f001 fa96 	bl	10005a48 <__wrap___aeabi_uldivmod>
1000451c:	0003      	movs	r3, r0
1000451e:	000c      	movs	r4, r1
10004520:	64bb      	str	r3, [r7, #72]	; 0x48
10004522:	64fc      	str	r4, [r7, #76]	; 0x4c
10004524:	6cbb      	ldr	r3, [r7, #72]	; 0x48
10004526:	6cfa      	ldr	r2, [r7, #76]	; 0x4c
10004528:	4313      	orrs	r3, r2
1000452a:	d002      	beq.n	10004532 <_ntoa_long_long+0xb0>
1000452c:	6b7b      	ldr	r3, [r7, #52]	; 0x34
1000452e:	2b1f      	cmp	r3, #31
10004530:	d9c1      	bls.n	100044b6 <_ntoa_long_long+0x34>
10004532:	6dbb      	ldr	r3, [r7, #88]	; 0x58
10004534:	683d      	ldr	r5, [r7, #0]
10004536:	687c      	ldr	r4, [r7, #4]
10004538:	68b9      	ldr	r1, [r7, #8]
1000453a:	68f8      	ldr	r0, [r7, #12]
1000453c:	6eba      	ldr	r2, [r7, #104]	; 0x68
1000453e:	9206      	str	r2, [sp, #24]
10004540:	6e7a      	ldr	r2, [r7, #100]	; 0x64
10004542:	9205      	str	r2, [sp, #20]
10004544:	6e3a      	ldr	r2, [r7, #96]	; 0x60
10004546:	9204      	str	r2, [sp, #16]
10004548:	9303      	str	r3, [sp, #12]
1000454a:	2350      	movs	r3, #80	; 0x50
1000454c:	18fb      	adds	r3, r7, r3
1000454e:	781b      	ldrb	r3, [r3, #0]
10004550:	9302      	str	r3, [sp, #8]
10004552:	6b7b      	ldr	r3, [r7, #52]	; 0x34
10004554:	9301      	str	r3, [sp, #4]
10004556:	2310      	movs	r3, #16
10004558:	18fb      	adds	r3, r7, r3
1000455a:	9300      	str	r3, [sp, #0]
1000455c:	002b      	movs	r3, r5
1000455e:	0022      	movs	r2, r4
10004560:	f7ff fe4f 	bl	10004202 <_ntoa_format>
10004564:	0003      	movs	r3, r0
10004566:	0018      	movs	r0, r3
10004568:	46bd      	mov	sp, r7
1000456a:	b00e      	add	sp, #56	; 0x38
1000456c:	bdb0      	pop	{r4, r5, r7, pc}
	...

10004570 <_ftoa>:
10004570:	b5f0      	push	{r4, r5, r6, r7, lr}
10004572:	b09d      	sub	sp, #116	; 0x74
10004574:	af06      	add	r7, sp, #24
10004576:	60f8      	str	r0, [r7, #12]
10004578:	60b9      	str	r1, [r7, #8]
1000457a:	607a      	str	r2, [r7, #4]
1000457c:	603b      	str	r3, [r7, #0]
1000457e:	2300      	movs	r3, #0
10004580:	657b      	str	r3, [r7, #84]	; 0x54
10004582:	2300      	movs	r3, #0
10004584:	2400      	movs	r4, #0
10004586:	63bb      	str	r3, [r7, #56]	; 0x38
10004588:	63fc      	str	r4, [r7, #60]	; 0x3c
1000458a:	6f3a      	ldr	r2, [r7, #112]	; 0x70
1000458c:	6f7b      	ldr	r3, [r7, #116]	; 0x74
1000458e:	6f38      	ldr	r0, [r7, #112]	; 0x70
10004590:	6f79      	ldr	r1, [r7, #116]	; 0x74
10004592:	f001 fcc8 	bl	10005f26 <__wrap___aeabi_dcmpun>
10004596:	1e03      	subs	r3, r0, #0
10004598:	d012      	beq.n	100045c0 <_ftoa+0x50>
1000459a:	683c      	ldr	r4, [r7, #0]
1000459c:	687a      	ldr	r2, [r7, #4]
1000459e:	68b9      	ldr	r1, [r7, #8]
100045a0:	68f8      	ldr	r0, [r7, #12]
100045a2:	2380      	movs	r3, #128	; 0x80
100045a4:	18fb      	adds	r3, r7, r3
100045a6:	681b      	ldr	r3, [r3, #0]
100045a8:	9303      	str	r3, [sp, #12]
100045aa:	6ffb      	ldr	r3, [r7, #124]	; 0x7c
100045ac:	9302      	str	r3, [sp, #8]
100045ae:	2303      	movs	r3, #3
100045b0:	9301      	str	r3, [sp, #4]
100045b2:	4bca      	ldr	r3, [pc, #808]	; (100048dc <_ftoa+0x36c>)
100045b4:	9300      	str	r3, [sp, #0]
100045b6:	0023      	movs	r3, r4
100045b8:	f7ff fdd6 	bl	10004168 <_out_rev>
100045bc:	0003      	movs	r3, r0
100045be:	e229      	b.n	10004a14 <_ftoa+0x4a4>
100045c0:	2201      	movs	r2, #1
100045c2:	4252      	negs	r2, r2
100045c4:	4bc6      	ldr	r3, [pc, #792]	; (100048e0 <_ftoa+0x370>)
100045c6:	6f38      	ldr	r0, [r7, #112]	; 0x70
100045c8:	6f79      	ldr	r1, [r7, #116]	; 0x74
100045ca:	f001 fc99 	bl	10005f00 <__wrap___aeabi_dcmplt>
100045ce:	1e03      	subs	r3, r0, #0
100045d0:	d012      	beq.n	100045f8 <_ftoa+0x88>
100045d2:	683c      	ldr	r4, [r7, #0]
100045d4:	687a      	ldr	r2, [r7, #4]
100045d6:	68b9      	ldr	r1, [r7, #8]
100045d8:	68f8      	ldr	r0, [r7, #12]
100045da:	2380      	movs	r3, #128	; 0x80
100045dc:	18fb      	adds	r3, r7, r3
100045de:	681b      	ldr	r3, [r3, #0]
100045e0:	9303      	str	r3, [sp, #12]
100045e2:	6ffb      	ldr	r3, [r7, #124]	; 0x7c
100045e4:	9302      	str	r3, [sp, #8]
100045e6:	2304      	movs	r3, #4
100045e8:	9301      	str	r3, [sp, #4]
100045ea:	4bbe      	ldr	r3, [pc, #760]	; (100048e4 <_ftoa+0x374>)
100045ec:	9300      	str	r3, [sp, #0]
100045ee:	0023      	movs	r3, r4
100045f0:	f7ff fdba 	bl	10004168 <_out_rev>
100045f4:	0003      	movs	r3, r0
100045f6:	e20d      	b.n	10004a14 <_ftoa+0x4a4>
100045f8:	2201      	movs	r2, #1
100045fa:	4252      	negs	r2, r2
100045fc:	4bba      	ldr	r3, [pc, #744]	; (100048e8 <_ftoa+0x378>)
100045fe:	6f38      	ldr	r0, [r7, #112]	; 0x70
10004600:	6f79      	ldr	r1, [r7, #116]	; 0x74
10004602:	f001 fc8b 	bl	10005f1c <__wrap___aeabi_dcmpgt>
10004606:	1e03      	subs	r3, r0, #0
10004608:	d024      	beq.n	10004654 <_ftoa+0xe4>
1000460a:	2380      	movs	r3, #128	; 0x80
1000460c:	18fb      	adds	r3, r7, r3
1000460e:	681b      	ldr	r3, [r3, #0]
10004610:	2204      	movs	r2, #4
10004612:	4013      	ands	r3, r2
10004614:	d001      	beq.n	1000461a <_ftoa+0xaa>
10004616:	4bb5      	ldr	r3, [pc, #724]	; (100048ec <_ftoa+0x37c>)
10004618:	e000      	b.n	1000461c <_ftoa+0xac>
1000461a:	4bb5      	ldr	r3, [pc, #724]	; (100048f0 <_ftoa+0x380>)
1000461c:	2280      	movs	r2, #128	; 0x80
1000461e:	18ba      	adds	r2, r7, r2
10004620:	6812      	ldr	r2, [r2, #0]
10004622:	2104      	movs	r1, #4
10004624:	400a      	ands	r2, r1
10004626:	d001      	beq.n	1000462c <_ftoa+0xbc>
10004628:	2204      	movs	r2, #4
1000462a:	e000      	b.n	1000462e <_ftoa+0xbe>
1000462c:	2203      	movs	r2, #3
1000462e:	683e      	ldr	r6, [r7, #0]
10004630:	687d      	ldr	r5, [r7, #4]
10004632:	68bc      	ldr	r4, [r7, #8]
10004634:	68f8      	ldr	r0, [r7, #12]
10004636:	2180      	movs	r1, #128	; 0x80
10004638:	1879      	adds	r1, r7, r1
1000463a:	6809      	ldr	r1, [r1, #0]
1000463c:	9103      	str	r1, [sp, #12]
1000463e:	6ff9      	ldr	r1, [r7, #124]	; 0x7c
10004640:	9102      	str	r1, [sp, #8]
10004642:	9201      	str	r2, [sp, #4]
10004644:	9300      	str	r3, [sp, #0]
10004646:	0033      	movs	r3, r6
10004648:	002a      	movs	r2, r5
1000464a:	0021      	movs	r1, r4
1000464c:	f7ff fd8c 	bl	10004168 <_out_rev>
10004650:	0003      	movs	r3, r0
10004652:	e1df      	b.n	10004a14 <_ftoa+0x4a4>
10004654:	2200      	movs	r2, #0
10004656:	4ba7      	ldr	r3, [pc, #668]	; (100048f4 <_ftoa+0x384>)
10004658:	6f38      	ldr	r0, [r7, #112]	; 0x70
1000465a:	6f79      	ldr	r1, [r7, #116]	; 0x74
1000465c:	f001 fc5e 	bl	10005f1c <__wrap___aeabi_dcmpgt>
10004660:	1e03      	subs	r3, r0, #0
10004662:	d107      	bne.n	10004674 <_ftoa+0x104>
10004664:	2200      	movs	r2, #0
10004666:	4ba4      	ldr	r3, [pc, #656]	; (100048f8 <_ftoa+0x388>)
10004668:	6f38      	ldr	r0, [r7, #112]	; 0x70
1000466a:	6f79      	ldr	r1, [r7, #116]	; 0x74
1000466c:	f001 fc48 	bl	10005f00 <__wrap___aeabi_dcmplt>
10004670:	1e03      	subs	r3, r0, #0
10004672:	d014      	beq.n	1000469e <_ftoa+0x12e>
10004674:	683d      	ldr	r5, [r7, #0]
10004676:	687a      	ldr	r2, [r7, #4]
10004678:	68b9      	ldr	r1, [r7, #8]
1000467a:	68f8      	ldr	r0, [r7, #12]
1000467c:	2380      	movs	r3, #128	; 0x80
1000467e:	18fb      	adds	r3, r7, r3
10004680:	681b      	ldr	r3, [r3, #0]
10004682:	9304      	str	r3, [sp, #16]
10004684:	6ffb      	ldr	r3, [r7, #124]	; 0x7c
10004686:	9303      	str	r3, [sp, #12]
10004688:	6fbb      	ldr	r3, [r7, #120]	; 0x78
1000468a:	9302      	str	r3, [sp, #8]
1000468c:	6f3b      	ldr	r3, [r7, #112]	; 0x70
1000468e:	6f7c      	ldr	r4, [r7, #116]	; 0x74
10004690:	9300      	str	r3, [sp, #0]
10004692:	9401      	str	r4, [sp, #4]
10004694:	002b      	movs	r3, r5
10004696:	f000 f9c1 	bl	10004a1c <_etoa>
1000469a:	0003      	movs	r3, r0
1000469c:	e1ba      	b.n	10004a14 <_ftoa+0x4a4>
1000469e:	2353      	movs	r3, #83	; 0x53
100046a0:	18fb      	adds	r3, r7, r3
100046a2:	2200      	movs	r2, #0
100046a4:	701a      	strb	r2, [r3, #0]
100046a6:	2200      	movs	r2, #0
100046a8:	2300      	movs	r3, #0
100046aa:	6f38      	ldr	r0, [r7, #112]	; 0x70
100046ac:	6f79      	ldr	r1, [r7, #116]	; 0x74
100046ae:	f001 fc27 	bl	10005f00 <__wrap___aeabi_dcmplt>
100046b2:	1e03      	subs	r3, r0, #0
100046b4:	d00d      	beq.n	100046d2 <_ftoa+0x162>
100046b6:	2353      	movs	r3, #83	; 0x53
100046b8:	18fb      	adds	r3, r7, r3
100046ba:	2201      	movs	r2, #1
100046bc:	701a      	strb	r2, [r3, #0]
100046be:	6f3a      	ldr	r2, [r7, #112]	; 0x70
100046c0:	6f7b      	ldr	r3, [r7, #116]	; 0x74
100046c2:	2000      	movs	r0, #0
100046c4:	2100      	movs	r1, #0
100046c6:	f001 fbbe 	bl	10005e46 <__wrap___aeabi_dsub>
100046ca:	0003      	movs	r3, r0
100046cc:	000c      	movs	r4, r1
100046ce:	673b      	str	r3, [r7, #112]	; 0x70
100046d0:	677c      	str	r4, [r7, #116]	; 0x74
100046d2:	2380      	movs	r3, #128	; 0x80
100046d4:	18fb      	adds	r3, r7, r3
100046d6:	681a      	ldr	r2, [r3, #0]
100046d8:	2380      	movs	r3, #128	; 0x80
100046da:	00db      	lsls	r3, r3, #3
100046dc:	4013      	ands	r3, r2
100046de:	d10c      	bne.n	100046fa <_ftoa+0x18a>
100046e0:	2306      	movs	r3, #6
100046e2:	67bb      	str	r3, [r7, #120]	; 0x78
100046e4:	e009      	b.n	100046fa <_ftoa+0x18a>
100046e6:	6d7b      	ldr	r3, [r7, #84]	; 0x54
100046e8:	1c5a      	adds	r2, r3, #1
100046ea:	657a      	str	r2, [r7, #84]	; 0x54
100046ec:	2210      	movs	r2, #16
100046ee:	18ba      	adds	r2, r7, r2
100046f0:	2130      	movs	r1, #48	; 0x30
100046f2:	54d1      	strb	r1, [r2, r3]
100046f4:	6fbb      	ldr	r3, [r7, #120]	; 0x78
100046f6:	3b01      	subs	r3, #1
100046f8:	67bb      	str	r3, [r7, #120]	; 0x78
100046fa:	6d7b      	ldr	r3, [r7, #84]	; 0x54
100046fc:	2b1f      	cmp	r3, #31
100046fe:	d802      	bhi.n	10004706 <_ftoa+0x196>
10004700:	6fbb      	ldr	r3, [r7, #120]	; 0x78
10004702:	2b09      	cmp	r3, #9
10004704:	d8ef      	bhi.n	100046e6 <_ftoa+0x176>
10004706:	6f38      	ldr	r0, [r7, #112]	; 0x70
10004708:	6f79      	ldr	r1, [r7, #116]	; 0x74
1000470a:	f001 fc37 	bl	10005f7c <__wrap___aeabi_d2iz>
1000470e:	0003      	movs	r3, r0
10004710:	64fb      	str	r3, [r7, #76]	; 0x4c
10004712:	6cf8      	ldr	r0, [r7, #76]	; 0x4c
10004714:	f001 fc1a 	bl	10005f4c <__wrap___aeabi_i2d>
10004718:	0003      	movs	r3, r0
1000471a:	000c      	movs	r4, r1
1000471c:	001a      	movs	r2, r3
1000471e:	0023      	movs	r3, r4
10004720:	6f38      	ldr	r0, [r7, #112]	; 0x70
10004722:	6f79      	ldr	r1, [r7, #116]	; 0x74
10004724:	f001 fb8f 	bl	10005e46 <__wrap___aeabi_dsub>
10004728:	0003      	movs	r3, r0
1000472a:	000c      	movs	r4, r1
1000472c:	0018      	movs	r0, r3
1000472e:	0021      	movs	r1, r4
10004730:	4a72      	ldr	r2, [pc, #456]	; (100048fc <_ftoa+0x38c>)
10004732:	6fbb      	ldr	r3, [r7, #120]	; 0x78
10004734:	00db      	lsls	r3, r3, #3
10004736:	18d3      	adds	r3, r2, r3
10004738:	685c      	ldr	r4, [r3, #4]
1000473a:	681b      	ldr	r3, [r3, #0]
1000473c:	001a      	movs	r2, r3
1000473e:	0023      	movs	r3, r4
10004740:	f001 fb9c 	bl	10005e7c <__wrap___aeabi_dmul>
10004744:	0003      	movs	r3, r0
10004746:	000c      	movs	r4, r1
10004748:	633b      	str	r3, [r7, #48]	; 0x30
1000474a:	637c      	str	r4, [r7, #52]	; 0x34
1000474c:	6b38      	ldr	r0, [r7, #48]	; 0x30
1000474e:	6b79      	ldr	r1, [r7, #52]	; 0x34
10004750:	f001 fc38 	bl	10005fc4 <__wrap___aeabi_d2uiz>
10004754:	0003      	movs	r3, r0
10004756:	64bb      	str	r3, [r7, #72]	; 0x48
10004758:	6cb8      	ldr	r0, [r7, #72]	; 0x48
1000475a:	f001 fbf3 	bl	10005f44 <__wrap___aeabi_ui2d>
1000475e:	0003      	movs	r3, r0
10004760:	000c      	movs	r4, r1
10004762:	001a      	movs	r2, r3
10004764:	0023      	movs	r3, r4
10004766:	6b38      	ldr	r0, [r7, #48]	; 0x30
10004768:	6b79      	ldr	r1, [r7, #52]	; 0x34
1000476a:	f001 fb6c 	bl	10005e46 <__wrap___aeabi_dsub>
1000476e:	0003      	movs	r3, r0
10004770:	000c      	movs	r4, r1
10004772:	63bb      	str	r3, [r7, #56]	; 0x38
10004774:	63fc      	str	r4, [r7, #60]	; 0x3c
10004776:	2200      	movs	r2, #0
10004778:	4b61      	ldr	r3, [pc, #388]	; (10004900 <_ftoa+0x390>)
1000477a:	6bb8      	ldr	r0, [r7, #56]	; 0x38
1000477c:	6bf9      	ldr	r1, [r7, #60]	; 0x3c
1000477e:	f001 fbcd 	bl	10005f1c <__wrap___aeabi_dcmpgt>
10004782:	1e03      	subs	r3, r0, #0
10004784:	d017      	beq.n	100047b6 <_ftoa+0x246>
10004786:	6cbb      	ldr	r3, [r7, #72]	; 0x48
10004788:	3301      	adds	r3, #1
1000478a:	64bb      	str	r3, [r7, #72]	; 0x48
1000478c:	6cb8      	ldr	r0, [r7, #72]	; 0x48
1000478e:	f001 fbd9 	bl	10005f44 <__wrap___aeabi_ui2d>
10004792:	4a5a      	ldr	r2, [pc, #360]	; (100048fc <_ftoa+0x38c>)
10004794:	6fbb      	ldr	r3, [r7, #120]	; 0x78
10004796:	00db      	lsls	r3, r3, #3
10004798:	18d3      	adds	r3, r2, r3
1000479a:	685c      	ldr	r4, [r3, #4]
1000479c:	681b      	ldr	r3, [r3, #0]
1000479e:	001a      	movs	r2, r3
100047a0:	0023      	movs	r3, r4
100047a2:	f001 fbb3 	bl	10005f0c <__wrap___aeabi_dcmpge>
100047a6:	1e03      	subs	r3, r0, #0
100047a8:	d017      	beq.n	100047da <_ftoa+0x26a>
100047aa:	2300      	movs	r3, #0
100047ac:	64bb      	str	r3, [r7, #72]	; 0x48
100047ae:	6cfb      	ldr	r3, [r7, #76]	; 0x4c
100047b0:	3301      	adds	r3, #1
100047b2:	64fb      	str	r3, [r7, #76]	; 0x4c
100047b4:	e011      	b.n	100047da <_ftoa+0x26a>
100047b6:	2200      	movs	r2, #0
100047b8:	4b51      	ldr	r3, [pc, #324]	; (10004900 <_ftoa+0x390>)
100047ba:	6bb8      	ldr	r0, [r7, #56]	; 0x38
100047bc:	6bf9      	ldr	r1, [r7, #60]	; 0x3c
100047be:	f001 fb9f 	bl	10005f00 <__wrap___aeabi_dcmplt>
100047c2:	1e03      	subs	r3, r0, #0
100047c4:	d109      	bne.n	100047da <_ftoa+0x26a>
100047c6:	6cbb      	ldr	r3, [r7, #72]	; 0x48
100047c8:	2b00      	cmp	r3, #0
100047ca:	d003      	beq.n	100047d4 <_ftoa+0x264>
100047cc:	6cbb      	ldr	r3, [r7, #72]	; 0x48
100047ce:	2201      	movs	r2, #1
100047d0:	4013      	ands	r3, r2
100047d2:	d002      	beq.n	100047da <_ftoa+0x26a>
100047d4:	6cbb      	ldr	r3, [r7, #72]	; 0x48
100047d6:	3301      	adds	r3, #1
100047d8:	64bb      	str	r3, [r7, #72]	; 0x48
100047da:	6fbb      	ldr	r3, [r7, #120]	; 0x78
100047dc:	2b00      	cmp	r3, #0
100047de:	d13d      	bne.n	1000485c <_ftoa+0x2ec>
100047e0:	6cf8      	ldr	r0, [r7, #76]	; 0x4c
100047e2:	f001 fbb3 	bl	10005f4c <__wrap___aeabi_i2d>
100047e6:	0003      	movs	r3, r0
100047e8:	000c      	movs	r4, r1
100047ea:	001a      	movs	r2, r3
100047ec:	0023      	movs	r3, r4
100047ee:	6f38      	ldr	r0, [r7, #112]	; 0x70
100047f0:	6f79      	ldr	r1, [r7, #116]	; 0x74
100047f2:	f001 fb28 	bl	10005e46 <__wrap___aeabi_dsub>
100047f6:	0003      	movs	r3, r0
100047f8:	000c      	movs	r4, r1
100047fa:	63bb      	str	r3, [r7, #56]	; 0x38
100047fc:	63fc      	str	r4, [r7, #60]	; 0x3c
100047fe:	2301      	movs	r3, #1
10004800:	1c1c      	adds	r4, r3, #0
10004802:	2200      	movs	r2, #0
10004804:	4b3e      	ldr	r3, [pc, #248]	; (10004900 <_ftoa+0x390>)
10004806:	6bb8      	ldr	r0, [r7, #56]	; 0x38
10004808:	6bf9      	ldr	r1, [r7, #60]	; 0x3c
1000480a:	f001 fb79 	bl	10005f00 <__wrap___aeabi_dcmplt>
1000480e:	1e03      	subs	r3, r0, #0
10004810:	d101      	bne.n	10004816 <_ftoa+0x2a6>
10004812:	2300      	movs	r3, #0
10004814:	1c1c      	adds	r4, r3, #0
10004816:	b2e3      	uxtb	r3, r4
10004818:	2201      	movs	r2, #1
1000481a:	4053      	eors	r3, r2
1000481c:	b2db      	uxtb	r3, r3
1000481e:	2b00      	cmp	r3, #0
10004820:	d100      	bne.n	10004824 <_ftoa+0x2b4>
10004822:	e088      	b.n	10004936 <_ftoa+0x3c6>
10004824:	2301      	movs	r3, #1
10004826:	1c1c      	adds	r4, r3, #0
10004828:	2200      	movs	r2, #0
1000482a:	4b35      	ldr	r3, [pc, #212]	; (10004900 <_ftoa+0x390>)
1000482c:	6bb8      	ldr	r0, [r7, #56]	; 0x38
1000482e:	6bf9      	ldr	r1, [r7, #60]	; 0x3c
10004830:	f001 fb74 	bl	10005f1c <__wrap___aeabi_dcmpgt>
10004834:	1e03      	subs	r3, r0, #0
10004836:	d101      	bne.n	1000483c <_ftoa+0x2cc>
10004838:	2300      	movs	r3, #0
1000483a:	1c1c      	adds	r4, r3, #0
1000483c:	b2e3      	uxtb	r3, r4
1000483e:	2201      	movs	r2, #1
10004840:	4053      	eors	r3, r2
10004842:	b2db      	uxtb	r3, r3
10004844:	2b00      	cmp	r3, #0
10004846:	d100      	bne.n	1000484a <_ftoa+0x2da>
10004848:	e075      	b.n	10004936 <_ftoa+0x3c6>
1000484a:	6cfb      	ldr	r3, [r7, #76]	; 0x4c
1000484c:	2201      	movs	r2, #1
1000484e:	4013      	ands	r3, r2
10004850:	d100      	bne.n	10004854 <_ftoa+0x2e4>
10004852:	e070      	b.n	10004936 <_ftoa+0x3c6>
10004854:	6cfb      	ldr	r3, [r7, #76]	; 0x4c
10004856:	3301      	adds	r3, #1
10004858:	64fb      	str	r3, [r7, #76]	; 0x4c
1000485a:	e06c      	b.n	10004936 <_ftoa+0x3c6>
1000485c:	6fbb      	ldr	r3, [r7, #120]	; 0x78
1000485e:	647b      	str	r3, [r7, #68]	; 0x44
10004860:	e01b      	b.n	1000489a <_ftoa+0x32a>
10004862:	6c7b      	ldr	r3, [r7, #68]	; 0x44
10004864:	3b01      	subs	r3, #1
10004866:	647b      	str	r3, [r7, #68]	; 0x44
10004868:	6d7c      	ldr	r4, [r7, #84]	; 0x54
1000486a:	1c63      	adds	r3, r4, #1
1000486c:	657b      	str	r3, [r7, #84]	; 0x54
1000486e:	6cbb      	ldr	r3, [r7, #72]	; 0x48
10004870:	210a      	movs	r1, #10
10004872:	0018      	movs	r0, r3
10004874:	f001 f8a2 	bl	100059bc <__wrap___aeabi_uidiv>
10004878:	000b      	movs	r3, r1
1000487a:	b2db      	uxtb	r3, r3
1000487c:	3330      	adds	r3, #48	; 0x30
1000487e:	b2da      	uxtb	r2, r3
10004880:	2310      	movs	r3, #16
10004882:	18fb      	adds	r3, r7, r3
10004884:	551a      	strb	r2, [r3, r4]
10004886:	6cbb      	ldr	r3, [r7, #72]	; 0x48
10004888:	210a      	movs	r1, #10
1000488a:	0018      	movs	r0, r3
1000488c:	f001 f896 	bl	100059bc <__wrap___aeabi_uidiv>
10004890:	0003      	movs	r3, r0
10004892:	64bb      	str	r3, [r7, #72]	; 0x48
10004894:	6cbb      	ldr	r3, [r7, #72]	; 0x48
10004896:	2b00      	cmp	r3, #0
10004898:	d003      	beq.n	100048a2 <_ftoa+0x332>
1000489a:	6d7b      	ldr	r3, [r7, #84]	; 0x54
1000489c:	2b1f      	cmp	r3, #31
1000489e:	d9e0      	bls.n	10004862 <_ftoa+0x2f2>
100048a0:	e008      	b.n	100048b4 <_ftoa+0x344>
100048a2:	46c0      	nop			; (mov r8, r8)
100048a4:	e006      	b.n	100048b4 <_ftoa+0x344>
100048a6:	6d7b      	ldr	r3, [r7, #84]	; 0x54
100048a8:	1c5a      	adds	r2, r3, #1
100048aa:	657a      	str	r2, [r7, #84]	; 0x54
100048ac:	2210      	movs	r2, #16
100048ae:	18ba      	adds	r2, r7, r2
100048b0:	2130      	movs	r1, #48	; 0x30
100048b2:	54d1      	strb	r1, [r2, r3]
100048b4:	6d7b      	ldr	r3, [r7, #84]	; 0x54
100048b6:	2b1f      	cmp	r3, #31
100048b8:	d804      	bhi.n	100048c4 <_ftoa+0x354>
100048ba:	6c7b      	ldr	r3, [r7, #68]	; 0x44
100048bc:	1e5a      	subs	r2, r3, #1
100048be:	647a      	str	r2, [r7, #68]	; 0x44
100048c0:	2b00      	cmp	r3, #0
100048c2:	d1f0      	bne.n	100048a6 <_ftoa+0x336>
100048c4:	6d7b      	ldr	r3, [r7, #84]	; 0x54
100048c6:	2b1f      	cmp	r3, #31
100048c8:	d835      	bhi.n	10004936 <_ftoa+0x3c6>
100048ca:	6d7b      	ldr	r3, [r7, #84]	; 0x54
100048cc:	1c5a      	adds	r2, r3, #1
100048ce:	657a      	str	r2, [r7, #84]	; 0x54
100048d0:	2210      	movs	r2, #16
100048d2:	18ba      	adds	r2, r7, r2
100048d4:	212e      	movs	r1, #46	; 0x2e
100048d6:	54d1      	strb	r1, [r2, r3]
100048d8:	e02d      	b.n	10004936 <_ftoa+0x3c6>
100048da:	46c0      	nop			; (mov r8, r8)
100048dc:	10008958 	.word	0x10008958
100048e0:	ffefffff 	.word	0xffefffff
100048e4:	1000895c 	.word	0x1000895c
100048e8:	7fefffff 	.word	0x7fefffff
100048ec:	10008964 	.word	0x10008964
100048f0:	1000896c 	.word	0x1000896c
100048f4:	41cdcd65 	.word	0x41cdcd65
100048f8:	c1cdcd65 	.word	0xc1cdcd65
100048fc:	10008b50 	.word	0x10008b50
10004900:	3fe00000 	.word	0x3fe00000
10004904:	6d7c      	ldr	r4, [r7, #84]	; 0x54
10004906:	1c63      	adds	r3, r4, #1
10004908:	657b      	str	r3, [r7, #84]	; 0x54
1000490a:	6cfb      	ldr	r3, [r7, #76]	; 0x4c
1000490c:	210a      	movs	r1, #10
1000490e:	0018      	movs	r0, r3
10004910:	f001 f828 	bl	10005964 <__wrap___aeabi_idiv>
10004914:	000b      	movs	r3, r1
10004916:	b2db      	uxtb	r3, r3
10004918:	3330      	adds	r3, #48	; 0x30
1000491a:	b2da      	uxtb	r2, r3
1000491c:	2310      	movs	r3, #16
1000491e:	18fb      	adds	r3, r7, r3
10004920:	551a      	strb	r2, [r3, r4]
10004922:	6cfb      	ldr	r3, [r7, #76]	; 0x4c
10004924:	210a      	movs	r1, #10
10004926:	0018      	movs	r0, r3
10004928:	f001 f81c 	bl	10005964 <__wrap___aeabi_idiv>
1000492c:	0003      	movs	r3, r0
1000492e:	64fb      	str	r3, [r7, #76]	; 0x4c
10004930:	6cfb      	ldr	r3, [r7, #76]	; 0x4c
10004932:	2b00      	cmp	r3, #0
10004934:	d003      	beq.n	1000493e <_ftoa+0x3ce>
10004936:	6d7b      	ldr	r3, [r7, #84]	; 0x54
10004938:	2b1f      	cmp	r3, #31
1000493a:	d9e3      	bls.n	10004904 <_ftoa+0x394>
1000493c:	e000      	b.n	10004940 <_ftoa+0x3d0>
1000493e:	46c0      	nop			; (mov r8, r8)
10004940:	2380      	movs	r3, #128	; 0x80
10004942:	18fb      	adds	r3, r7, r3
10004944:	681b      	ldr	r3, [r3, #0]
10004946:	2202      	movs	r2, #2
10004948:	4013      	ands	r3, r2
1000494a:	d125      	bne.n	10004998 <_ftoa+0x428>
1000494c:	2380      	movs	r3, #128	; 0x80
1000494e:	18fb      	adds	r3, r7, r3
10004950:	681b      	ldr	r3, [r3, #0]
10004952:	2201      	movs	r2, #1
10004954:	4013      	ands	r3, r2
10004956:	d01f      	beq.n	10004998 <_ftoa+0x428>
10004958:	6ffb      	ldr	r3, [r7, #124]	; 0x7c
1000495a:	2b00      	cmp	r3, #0
1000495c:	d015      	beq.n	1000498a <_ftoa+0x41a>
1000495e:	2353      	movs	r3, #83	; 0x53
10004960:	18fb      	adds	r3, r7, r3
10004962:	781b      	ldrb	r3, [r3, #0]
10004964:	2b00      	cmp	r3, #0
10004966:	d105      	bne.n	10004974 <_ftoa+0x404>
10004968:	2380      	movs	r3, #128	; 0x80
1000496a:	18fb      	adds	r3, r7, r3
1000496c:	681b      	ldr	r3, [r3, #0]
1000496e:	220c      	movs	r2, #12
10004970:	4013      	ands	r3, r2
10004972:	d00a      	beq.n	1000498a <_ftoa+0x41a>
10004974:	6ffb      	ldr	r3, [r7, #124]	; 0x7c
10004976:	3b01      	subs	r3, #1
10004978:	67fb      	str	r3, [r7, #124]	; 0x7c
1000497a:	e006      	b.n	1000498a <_ftoa+0x41a>
1000497c:	6d7b      	ldr	r3, [r7, #84]	; 0x54
1000497e:	1c5a      	adds	r2, r3, #1
10004980:	657a      	str	r2, [r7, #84]	; 0x54
10004982:	2210      	movs	r2, #16
10004984:	18ba      	adds	r2, r7, r2
10004986:	2130      	movs	r1, #48	; 0x30
10004988:	54d1      	strb	r1, [r2, r3]
1000498a:	6d7a      	ldr	r2, [r7, #84]	; 0x54
1000498c:	6ffb      	ldr	r3, [r7, #124]	; 0x7c
1000498e:	429a      	cmp	r2, r3
10004990:	d202      	bcs.n	10004998 <_ftoa+0x428>
10004992:	6d7b      	ldr	r3, [r7, #84]	; 0x54
10004994:	2b1f      	cmp	r3, #31
10004996:	d9f1      	bls.n	1000497c <_ftoa+0x40c>
10004998:	6d7b      	ldr	r3, [r7, #84]	; 0x54
1000499a:	2b1f      	cmp	r3, #31
1000499c:	d827      	bhi.n	100049ee <_ftoa+0x47e>
1000499e:	2353      	movs	r3, #83	; 0x53
100049a0:	18fb      	adds	r3, r7, r3
100049a2:	781b      	ldrb	r3, [r3, #0]
100049a4:	2b00      	cmp	r3, #0
100049a6:	d007      	beq.n	100049b8 <_ftoa+0x448>
100049a8:	6d7b      	ldr	r3, [r7, #84]	; 0x54
100049aa:	1c5a      	adds	r2, r3, #1
100049ac:	657a      	str	r2, [r7, #84]	; 0x54
100049ae:	2210      	movs	r2, #16
100049b0:	18ba      	adds	r2, r7, r2
100049b2:	212d      	movs	r1, #45	; 0x2d
100049b4:	54d1      	strb	r1, [r2, r3]
100049b6:	e01a      	b.n	100049ee <_ftoa+0x47e>
100049b8:	2380      	movs	r3, #128	; 0x80
100049ba:	18fb      	adds	r3, r7, r3
100049bc:	681b      	ldr	r3, [r3, #0]
100049be:	2204      	movs	r2, #4
100049c0:	4013      	ands	r3, r2
100049c2:	d007      	beq.n	100049d4 <_ftoa+0x464>
100049c4:	6d7b      	ldr	r3, [r7, #84]	; 0x54
100049c6:	1c5a      	adds	r2, r3, #1
100049c8:	657a      	str	r2, [r7, #84]	; 0x54
100049ca:	2210      	movs	r2, #16
100049cc:	18ba      	adds	r2, r7, r2
100049ce:	212b      	movs	r1, #43	; 0x2b
100049d0:	54d1      	strb	r1, [r2, r3]
100049d2:	e00c      	b.n	100049ee <_ftoa+0x47e>
100049d4:	2380      	movs	r3, #128	; 0x80
100049d6:	18fb      	adds	r3, r7, r3
100049d8:	681b      	ldr	r3, [r3, #0]
100049da:	2208      	movs	r2, #8
100049dc:	4013      	ands	r3, r2
100049de:	d006      	beq.n	100049ee <_ftoa+0x47e>
100049e0:	6d7b      	ldr	r3, [r7, #84]	; 0x54
100049e2:	1c5a      	adds	r2, r3, #1
100049e4:	657a      	str	r2, [r7, #84]	; 0x54
100049e6:	2210      	movs	r2, #16
100049e8:	18ba      	adds	r2, r7, r2
100049ea:	2120      	movs	r1, #32
100049ec:	54d1      	strb	r1, [r2, r3]
100049ee:	683c      	ldr	r4, [r7, #0]
100049f0:	687a      	ldr	r2, [r7, #4]
100049f2:	68b9      	ldr	r1, [r7, #8]
100049f4:	68f8      	ldr	r0, [r7, #12]
100049f6:	2380      	movs	r3, #128	; 0x80
100049f8:	18fb      	adds	r3, r7, r3
100049fa:	681b      	ldr	r3, [r3, #0]
100049fc:	9303      	str	r3, [sp, #12]
100049fe:	6ffb      	ldr	r3, [r7, #124]	; 0x7c
10004a00:	9302      	str	r3, [sp, #8]
10004a02:	6d7b      	ldr	r3, [r7, #84]	; 0x54
10004a04:	9301      	str	r3, [sp, #4]
10004a06:	2310      	movs	r3, #16
10004a08:	18fb      	adds	r3, r7, r3
10004a0a:	9300      	str	r3, [sp, #0]
10004a0c:	0023      	movs	r3, r4
10004a0e:	f7ff fbab 	bl	10004168 <_out_rev>
10004a12:	0003      	movs	r3, r0
10004a14:	0018      	movs	r0, r3
10004a16:	46bd      	mov	sp, r7
10004a18:	b017      	add	sp, #92	; 0x5c
10004a1a:	bdf0      	pop	{r4, r5, r6, r7, pc}

10004a1c <_etoa>:
10004a1c:	b5f0      	push	{r4, r5, r6, r7, lr}
10004a1e:	b0a5      	sub	sp, #148	; 0x94
10004a20:	af06      	add	r7, sp, #24
10004a22:	63f8      	str	r0, [r7, #60]	; 0x3c
10004a24:	63b9      	str	r1, [r7, #56]	; 0x38
10004a26:	637a      	str	r2, [r7, #52]	; 0x34
10004a28:	633b      	str	r3, [r7, #48]	; 0x30
10004a2a:	2390      	movs	r3, #144	; 0x90
10004a2c:	18fb      	adds	r3, r7, r3
10004a2e:	681a      	ldr	r2, [r3, #0]
10004a30:	685b      	ldr	r3, [r3, #4]
10004a32:	2190      	movs	r1, #144	; 0x90
10004a34:	1879      	adds	r1, r7, r1
10004a36:	6808      	ldr	r0, [r1, #0]
10004a38:	6849      	ldr	r1, [r1, #4]
10004a3a:	f001 fa74 	bl	10005f26 <__wrap___aeabi_dcmpun>
10004a3e:	1e03      	subs	r3, r0, #0
10004a40:	d115      	bne.n	10004a6e <_etoa+0x52>
10004a42:	2201      	movs	r2, #1
10004a44:	4252      	negs	r2, r2
10004a46:	4bdf      	ldr	r3, [pc, #892]	; (10004dc4 <_etoa+0x3a8>)
10004a48:	2190      	movs	r1, #144	; 0x90
10004a4a:	1879      	adds	r1, r7, r1
10004a4c:	6808      	ldr	r0, [r1, #0]
10004a4e:	6849      	ldr	r1, [r1, #4]
10004a50:	f001 fa64 	bl	10005f1c <__wrap___aeabi_dcmpgt>
10004a54:	1e03      	subs	r3, r0, #0
10004a56:	d10a      	bne.n	10004a6e <_etoa+0x52>
10004a58:	2201      	movs	r2, #1
10004a5a:	4252      	negs	r2, r2
10004a5c:	4bda      	ldr	r3, [pc, #872]	; (10004dc8 <_etoa+0x3ac>)
10004a5e:	2190      	movs	r1, #144	; 0x90
10004a60:	1879      	adds	r1, r7, r1
10004a62:	6808      	ldr	r0, [r1, #0]
10004a64:	6849      	ldr	r1, [r1, #4]
10004a66:	f001 fa4b 	bl	10005f00 <__wrap___aeabi_dcmplt>
10004a6a:	1e03      	subs	r3, r0, #0
10004a6c:	d01a      	beq.n	10004aa4 <_etoa+0x88>
10004a6e:	6b3d      	ldr	r5, [r7, #48]	; 0x30
10004a70:	6b7a      	ldr	r2, [r7, #52]	; 0x34
10004a72:	6bb9      	ldr	r1, [r7, #56]	; 0x38
10004a74:	6bf8      	ldr	r0, [r7, #60]	; 0x3c
10004a76:	23a0      	movs	r3, #160	; 0xa0
10004a78:	18fb      	adds	r3, r7, r3
10004a7a:	681b      	ldr	r3, [r3, #0]
10004a7c:	9304      	str	r3, [sp, #16]
10004a7e:	239c      	movs	r3, #156	; 0x9c
10004a80:	18fb      	adds	r3, r7, r3
10004a82:	681b      	ldr	r3, [r3, #0]
10004a84:	9303      	str	r3, [sp, #12]
10004a86:	2398      	movs	r3, #152	; 0x98
10004a88:	18fb      	adds	r3, r7, r3
10004a8a:	681b      	ldr	r3, [r3, #0]
10004a8c:	9302      	str	r3, [sp, #8]
10004a8e:	2390      	movs	r3, #144	; 0x90
10004a90:	18fb      	adds	r3, r7, r3
10004a92:	685c      	ldr	r4, [r3, #4]
10004a94:	681b      	ldr	r3, [r3, #0]
10004a96:	9300      	str	r3, [sp, #0]
10004a98:	9401      	str	r4, [sp, #4]
10004a9a:	002b      	movs	r3, r5
10004a9c:	f7ff fd68 	bl	10004570 <_ftoa>
10004aa0:	0003      	movs	r3, r0
10004aa2:	e282      	b.n	10004faa <_etoa+0x58e>
10004aa4:	233b      	movs	r3, #59	; 0x3b
10004aa6:	2230      	movs	r2, #48	; 0x30
10004aa8:	18ba      	adds	r2, r7, r2
10004aaa:	18d4      	adds	r4, r2, r3
10004aac:	2301      	movs	r3, #1
10004aae:	71fb      	strb	r3, [r7, #7]
10004ab0:	2200      	movs	r2, #0
10004ab2:	2300      	movs	r3, #0
10004ab4:	2190      	movs	r1, #144	; 0x90
10004ab6:	1879      	adds	r1, r7, r1
10004ab8:	6808      	ldr	r0, [r1, #0]
10004aba:	6849      	ldr	r1, [r1, #4]
10004abc:	f001 fa20 	bl	10005f00 <__wrap___aeabi_dcmplt>
10004ac0:	1e03      	subs	r3, r0, #0
10004ac2:	d101      	bne.n	10004ac8 <_etoa+0xac>
10004ac4:	2300      	movs	r3, #0
10004ac6:	71fb      	strb	r3, [r7, #7]
10004ac8:	79fb      	ldrb	r3, [r7, #7]
10004aca:	7023      	strb	r3, [r4, #0]
10004acc:	233b      	movs	r3, #59	; 0x3b
10004ace:	2230      	movs	r2, #48	; 0x30
10004ad0:	4694      	mov	ip, r2
10004ad2:	44bc      	add	ip, r7
10004ad4:	4463      	add	r3, ip
10004ad6:	781b      	ldrb	r3, [r3, #0]
10004ad8:	2b00      	cmp	r3, #0
10004ada:	d00e      	beq.n	10004afa <_etoa+0xde>
10004adc:	2390      	movs	r3, #144	; 0x90
10004ade:	18fb      	adds	r3, r7, r3
10004ae0:	681b      	ldr	r3, [r3, #0]
10004ae2:	2290      	movs	r2, #144	; 0x90
10004ae4:	18ba      	adds	r2, r7, r2
10004ae6:	6013      	str	r3, [r2, #0]
10004ae8:	2394      	movs	r3, #148	; 0x94
10004aea:	18fb      	adds	r3, r7, r3
10004aec:	681a      	ldr	r2, [r3, #0]
10004aee:	2380      	movs	r3, #128	; 0x80
10004af0:	061b      	lsls	r3, r3, #24
10004af2:	4053      	eors	r3, r2
10004af4:	2294      	movs	r2, #148	; 0x94
10004af6:	18ba      	adds	r2, r7, r2
10004af8:	6013      	str	r3, [r2, #0]
10004afa:	23a0      	movs	r3, #160	; 0xa0
10004afc:	18fb      	adds	r3, r7, r3
10004afe:	681a      	ldr	r2, [r3, #0]
10004b00:	2380      	movs	r3, #128	; 0x80
10004b02:	00db      	lsls	r3, r3, #3
10004b04:	4013      	ands	r3, r2
10004b06:	d103      	bne.n	10004b10 <_etoa+0xf4>
10004b08:	2306      	movs	r3, #6
10004b0a:	2298      	movs	r2, #152	; 0x98
10004b0c:	18ba      	adds	r2, r7, r2
10004b0e:	6013      	str	r3, [r2, #0]
10004b10:	2390      	movs	r3, #144	; 0x90
10004b12:	18fb      	adds	r3, r7, r3
10004b14:	685c      	ldr	r4, [r3, #4]
10004b16:	681b      	ldr	r3, [r3, #0]
10004b18:	643b      	str	r3, [r7, #64]	; 0x40
10004b1a:	647c      	str	r4, [r7, #68]	; 0x44
10004b1c:	6c3b      	ldr	r3, [r7, #64]	; 0x40
10004b1e:	6c7c      	ldr	r4, [r7, #68]	; 0x44
10004b20:	0d23      	lsrs	r3, r4, #20
10004b22:	623b      	str	r3, [r7, #32]
10004b24:	2300      	movs	r3, #0
10004b26:	627b      	str	r3, [r7, #36]	; 0x24
10004b28:	6a3b      	ldr	r3, [r7, #32]
10004b2a:	055b      	lsls	r3, r3, #21
10004b2c:	0d5b      	lsrs	r3, r3, #21
10004b2e:	4aa7      	ldr	r2, [pc, #668]	; (10004dcc <_etoa+0x3b0>)
10004b30:	4694      	mov	ip, r2
10004b32:	4463      	add	r3, ip
10004b34:	667b      	str	r3, [r7, #100]	; 0x64
10004b36:	6c3b      	ldr	r3, [r7, #64]	; 0x40
10004b38:	6c7c      	ldr	r4, [r7, #68]	; 0x44
10004b3a:	2200      	movs	r2, #0
10004b3c:	0019      	movs	r1, r3
10004b3e:	4391      	bics	r1, r2
10004b40:	000d      	movs	r5, r1
10004b42:	0323      	lsls	r3, r4, #12
10004b44:	0b1e      	lsrs	r6, r3, #12
10004b46:	2300      	movs	r3, #0
10004b48:	432b      	orrs	r3, r5
10004b4a:	61bb      	str	r3, [r7, #24]
10004b4c:	4ba0      	ldr	r3, [pc, #640]	; (10004dd0 <_etoa+0x3b4>)
10004b4e:	4333      	orrs	r3, r6
10004b50:	61fb      	str	r3, [r7, #28]
10004b52:	69bb      	ldr	r3, [r7, #24]
10004b54:	69fc      	ldr	r4, [r7, #28]
10004b56:	643b      	str	r3, [r7, #64]	; 0x40
10004b58:	647c      	str	r4, [r7, #68]	; 0x44
10004b5a:	6e78      	ldr	r0, [r7, #100]	; 0x64
10004b5c:	f001 f9f6 	bl	10005f4c <__wrap___aeabi_i2d>
10004b60:	4a9c      	ldr	r2, [pc, #624]	; (10004dd4 <_etoa+0x3b8>)
10004b62:	4b9d      	ldr	r3, [pc, #628]	; (10004dd8 <_etoa+0x3bc>)
10004b64:	f001 f98a 	bl	10005e7c <__wrap___aeabi_dmul>
10004b68:	0003      	movs	r3, r0
10004b6a:	000c      	movs	r4, r1
10004b6c:	0018      	movs	r0, r3
10004b6e:	0021      	movs	r1, r4
10004b70:	4a9a      	ldr	r2, [pc, #616]	; (10004ddc <_etoa+0x3c0>)
10004b72:	4b9b      	ldr	r3, [pc, #620]	; (10004de0 <_etoa+0x3c4>)
10004b74:	f001 f970 	bl	10005e58 <__wrap___aeabi_dadd>
10004b78:	0003      	movs	r3, r0
10004b7a:	000c      	movs	r4, r1
10004b7c:	001d      	movs	r5, r3
10004b7e:	0026      	movs	r6, r4
10004b80:	6c38      	ldr	r0, [r7, #64]	; 0x40
10004b82:	6c79      	ldr	r1, [r7, #68]	; 0x44
10004b84:	2200      	movs	r2, #0
10004b86:	4b97      	ldr	r3, [pc, #604]	; (10004de4 <_etoa+0x3c8>)
10004b88:	f001 f95d 	bl	10005e46 <__wrap___aeabi_dsub>
10004b8c:	0003      	movs	r3, r0
10004b8e:	000c      	movs	r4, r1
10004b90:	0018      	movs	r0, r3
10004b92:	0021      	movs	r1, r4
10004b94:	4a94      	ldr	r2, [pc, #592]	; (10004de8 <_etoa+0x3cc>)
10004b96:	4b95      	ldr	r3, [pc, #596]	; (10004dec <_etoa+0x3d0>)
10004b98:	f001 f970 	bl	10005e7c <__wrap___aeabi_dmul>
10004b9c:	0003      	movs	r3, r0
10004b9e:	000c      	movs	r4, r1
10004ba0:	001a      	movs	r2, r3
10004ba2:	0023      	movs	r3, r4
10004ba4:	0028      	movs	r0, r5
10004ba6:	0031      	movs	r1, r6
10004ba8:	f001 f956 	bl	10005e58 <__wrap___aeabi_dadd>
10004bac:	0003      	movs	r3, r0
10004bae:	000c      	movs	r4, r1
10004bb0:	0018      	movs	r0, r3
10004bb2:	0021      	movs	r1, r4
10004bb4:	f001 f9e2 	bl	10005f7c <__wrap___aeabi_d2iz>
10004bb8:	0003      	movs	r3, r0
10004bba:	677b      	str	r3, [r7, #116]	; 0x74
10004bbc:	6f78      	ldr	r0, [r7, #116]	; 0x74
10004bbe:	f001 f9c5 	bl	10005f4c <__wrap___aeabi_i2d>
10004bc2:	4a8b      	ldr	r2, [pc, #556]	; (10004df0 <_etoa+0x3d4>)
10004bc4:	4b8b      	ldr	r3, [pc, #556]	; (10004df4 <_etoa+0x3d8>)
10004bc6:	f001 f959 	bl	10005e7c <__wrap___aeabi_dmul>
10004bca:	0003      	movs	r3, r0
10004bcc:	000c      	movs	r4, r1
10004bce:	0018      	movs	r0, r3
10004bd0:	0021      	movs	r1, r4
10004bd2:	2200      	movs	r2, #0
10004bd4:	4b88      	ldr	r3, [pc, #544]	; (10004df8 <_etoa+0x3dc>)
10004bd6:	f001 f93f 	bl	10005e58 <__wrap___aeabi_dadd>
10004bda:	0003      	movs	r3, r0
10004bdc:	000c      	movs	r4, r1
10004bde:	0018      	movs	r0, r3
10004be0:	0021      	movs	r1, r4
10004be2:	f001 f9cb 	bl	10005f7c <__wrap___aeabi_d2iz>
10004be6:	0003      	movs	r3, r0
10004be8:	667b      	str	r3, [r7, #100]	; 0x64
10004bea:	6f78      	ldr	r0, [r7, #116]	; 0x74
10004bec:	f001 f9ae 	bl	10005f4c <__wrap___aeabi_i2d>
10004bf0:	4a82      	ldr	r2, [pc, #520]	; (10004dfc <_etoa+0x3e0>)
10004bf2:	4b83      	ldr	r3, [pc, #524]	; (10004e00 <_etoa+0x3e4>)
10004bf4:	f001 f942 	bl	10005e7c <__wrap___aeabi_dmul>
10004bf8:	0003      	movs	r3, r0
10004bfa:	000c      	movs	r4, r1
10004bfc:	0025      	movs	r5, r4
10004bfe:	001c      	movs	r4, r3
10004c00:	6e78      	ldr	r0, [r7, #100]	; 0x64
10004c02:	f001 f9a3 	bl	10005f4c <__wrap___aeabi_i2d>
10004c06:	4a7f      	ldr	r2, [pc, #508]	; (10004e04 <_etoa+0x3e8>)
10004c08:	4b7f      	ldr	r3, [pc, #508]	; (10004e08 <_etoa+0x3ec>)
10004c0a:	f001 f937 	bl	10005e7c <__wrap___aeabi_dmul>
10004c0e:	0002      	movs	r2, r0
10004c10:	000b      	movs	r3, r1
10004c12:	0020      	movs	r0, r4
10004c14:	0029      	movs	r1, r5
10004c16:	f001 f916 	bl	10005e46 <__wrap___aeabi_dsub>
10004c1a:	0003      	movs	r3, r0
10004c1c:	000c      	movs	r4, r1
10004c1e:	65bb      	str	r3, [r7, #88]	; 0x58
10004c20:	65fc      	str	r4, [r7, #92]	; 0x5c
10004c22:	6dba      	ldr	r2, [r7, #88]	; 0x58
10004c24:	6dfb      	ldr	r3, [r7, #92]	; 0x5c
10004c26:	6db8      	ldr	r0, [r7, #88]	; 0x58
10004c28:	6df9      	ldr	r1, [r7, #92]	; 0x5c
10004c2a:	f001 f927 	bl	10005e7c <__wrap___aeabi_dmul>
10004c2e:	0003      	movs	r3, r0
10004c30:	000c      	movs	r4, r1
10004c32:	653b      	str	r3, [r7, #80]	; 0x50
10004c34:	657c      	str	r4, [r7, #84]	; 0x54
10004c36:	6e7b      	ldr	r3, [r7, #100]	; 0x64
10004c38:	4a74      	ldr	r2, [pc, #464]	; (10004e0c <_etoa+0x3f0>)
10004c3a:	4694      	mov	ip, r2
10004c3c:	4463      	add	r3, ip
10004c3e:	613b      	str	r3, [r7, #16]
10004c40:	17db      	asrs	r3, r3, #31
10004c42:	617b      	str	r3, [r7, #20]
10004c44:	693b      	ldr	r3, [r7, #16]
10004c46:	051b      	lsls	r3, r3, #20
10004c48:	60fb      	str	r3, [r7, #12]
10004c4a:	2300      	movs	r3, #0
10004c4c:	60bb      	str	r3, [r7, #8]
10004c4e:	68bb      	ldr	r3, [r7, #8]
10004c50:	68fc      	ldr	r4, [r7, #12]
10004c52:	643b      	str	r3, [r7, #64]	; 0x40
10004c54:	647c      	str	r4, [r7, #68]	; 0x44
10004c56:	6c3c      	ldr	r4, [r7, #64]	; 0x40
10004c58:	6c7d      	ldr	r5, [r7, #68]	; 0x44
10004c5a:	6db8      	ldr	r0, [r7, #88]	; 0x58
10004c5c:	6df9      	ldr	r1, [r7, #92]	; 0x5c
10004c5e:	0002      	movs	r2, r0
10004c60:	000b      	movs	r3, r1
10004c62:	f001 f8f9 	bl	10005e58 <__wrap___aeabi_dadd>
10004c66:	0002      	movs	r2, r0
10004c68:	000b      	movs	r3, r1
10004c6a:	623a      	str	r2, [r7, #32]
10004c6c:	627b      	str	r3, [r7, #36]	; 0x24
10004c6e:	6dba      	ldr	r2, [r7, #88]	; 0x58
10004c70:	6dfb      	ldr	r3, [r7, #92]	; 0x5c
10004c72:	2000      	movs	r0, #0
10004c74:	2180      	movs	r1, #128	; 0x80
10004c76:	05c9      	lsls	r1, r1, #23
10004c78:	f001 f8e5 	bl	10005e46 <__wrap___aeabi_dsub>
10004c7c:	0002      	movs	r2, r0
10004c7e:	000b      	movs	r3, r1
10004c80:	61ba      	str	r2, [r7, #24]
10004c82:	61fb      	str	r3, [r7, #28]
10004c84:	2200      	movs	r2, #0
10004c86:	4b62      	ldr	r3, [pc, #392]	; (10004e10 <_etoa+0x3f4>)
10004c88:	6d38      	ldr	r0, [r7, #80]	; 0x50
10004c8a:	6d79      	ldr	r1, [r7, #84]	; 0x54
10004c8c:	f001 f8ed 	bl	10005e6a <__wrap___aeabi_ddiv>
10004c90:	0002      	movs	r2, r0
10004c92:	000b      	movs	r3, r1
10004c94:	0010      	movs	r0, r2
10004c96:	0019      	movs	r1, r3
10004c98:	2200      	movs	r2, #0
10004c9a:	4b5e      	ldr	r3, [pc, #376]	; (10004e14 <_etoa+0x3f8>)
10004c9c:	f001 f8dc 	bl	10005e58 <__wrap___aeabi_dadd>
10004ca0:	0002      	movs	r2, r0
10004ca2:	000b      	movs	r3, r1
10004ca4:	6d38      	ldr	r0, [r7, #80]	; 0x50
10004ca6:	6d79      	ldr	r1, [r7, #84]	; 0x54
10004ca8:	f001 f8df 	bl	10005e6a <__wrap___aeabi_ddiv>
10004cac:	0002      	movs	r2, r0
10004cae:	000b      	movs	r3, r1
10004cb0:	0010      	movs	r0, r2
10004cb2:	0019      	movs	r1, r3
10004cb4:	2200      	movs	r2, #0
10004cb6:	4b58      	ldr	r3, [pc, #352]	; (10004e18 <_etoa+0x3fc>)
10004cb8:	f001 f8ce 	bl	10005e58 <__wrap___aeabi_dadd>
10004cbc:	0002      	movs	r2, r0
10004cbe:	000b      	movs	r3, r1
10004cc0:	6d38      	ldr	r0, [r7, #80]	; 0x50
10004cc2:	6d79      	ldr	r1, [r7, #84]	; 0x54
10004cc4:	f001 f8d1 	bl	10005e6a <__wrap___aeabi_ddiv>
10004cc8:	0002      	movs	r2, r0
10004cca:	000b      	movs	r3, r1
10004ccc:	69b8      	ldr	r0, [r7, #24]
10004cce:	69f9      	ldr	r1, [r7, #28]
10004cd0:	f001 f8c2 	bl	10005e58 <__wrap___aeabi_dadd>
10004cd4:	0002      	movs	r2, r0
10004cd6:	000b      	movs	r3, r1
10004cd8:	6a38      	ldr	r0, [r7, #32]
10004cda:	6a79      	ldr	r1, [r7, #36]	; 0x24
10004cdc:	f001 f8c5 	bl	10005e6a <__wrap___aeabi_ddiv>
10004ce0:	0002      	movs	r2, r0
10004ce2:	000b      	movs	r3, r1
10004ce4:	0010      	movs	r0, r2
10004ce6:	0019      	movs	r1, r3
10004ce8:	2200      	movs	r2, #0
10004cea:	4b39      	ldr	r3, [pc, #228]	; (10004dd0 <_etoa+0x3b4>)
10004cec:	f001 f8b4 	bl	10005e58 <__wrap___aeabi_dadd>
10004cf0:	0002      	movs	r2, r0
10004cf2:	000b      	movs	r3, r1
10004cf4:	0020      	movs	r0, r4
10004cf6:	0029      	movs	r1, r5
10004cf8:	f001 f8c0 	bl	10005e7c <__wrap___aeabi_dmul>
10004cfc:	0003      	movs	r3, r0
10004cfe:	000c      	movs	r4, r1
10004d00:	643b      	str	r3, [r7, #64]	; 0x40
10004d02:	647c      	str	r4, [r7, #68]	; 0x44
10004d04:	6c38      	ldr	r0, [r7, #64]	; 0x40
10004d06:	6c79      	ldr	r1, [r7, #68]	; 0x44
10004d08:	2390      	movs	r3, #144	; 0x90
10004d0a:	18fb      	adds	r3, r7, r3
10004d0c:	681a      	ldr	r2, [r3, #0]
10004d0e:	685b      	ldr	r3, [r3, #4]
10004d10:	f001 f904 	bl	10005f1c <__wrap___aeabi_dcmpgt>
10004d14:	1e03      	subs	r3, r0, #0
10004d16:	d00c      	beq.n	10004d32 <_etoa+0x316>
10004d18:	6f7b      	ldr	r3, [r7, #116]	; 0x74
10004d1a:	3b01      	subs	r3, #1
10004d1c:	677b      	str	r3, [r7, #116]	; 0x74
10004d1e:	6c38      	ldr	r0, [r7, #64]	; 0x40
10004d20:	6c79      	ldr	r1, [r7, #68]	; 0x44
10004d22:	2200      	movs	r2, #0
10004d24:	4b3b      	ldr	r3, [pc, #236]	; (10004e14 <_etoa+0x3f8>)
10004d26:	f001 f8a0 	bl	10005e6a <__wrap___aeabi_ddiv>
10004d2a:	0003      	movs	r3, r0
10004d2c:	000c      	movs	r4, r1
10004d2e:	643b      	str	r3, [r7, #64]	; 0x40
10004d30:	647c      	str	r4, [r7, #68]	; 0x44
10004d32:	6f7b      	ldr	r3, [r7, #116]	; 0x74
10004d34:	2b63      	cmp	r3, #99	; 0x63
10004d36:	dc04      	bgt.n	10004d42 <_etoa+0x326>
10004d38:	6f7b      	ldr	r3, [r7, #116]	; 0x74
10004d3a:	3363      	adds	r3, #99	; 0x63
10004d3c:	db01      	blt.n	10004d42 <_etoa+0x326>
10004d3e:	2304      	movs	r3, #4
10004d40:	e000      	b.n	10004d44 <_etoa+0x328>
10004d42:	2305      	movs	r3, #5
10004d44:	673b      	str	r3, [r7, #112]	; 0x70
10004d46:	23a0      	movs	r3, #160	; 0xa0
10004d48:	18fb      	adds	r3, r7, r3
10004d4a:	681a      	ldr	r2, [r3, #0]
10004d4c:	2380      	movs	r3, #128	; 0x80
10004d4e:	011b      	lsls	r3, r3, #4
10004d50:	4013      	ands	r3, r2
10004d52:	d100      	bne.n	10004d56 <_etoa+0x33a>
10004d54:	e07b      	b.n	10004e4e <_etoa+0x432>
10004d56:	4a31      	ldr	r2, [pc, #196]	; (10004e1c <_etoa+0x400>)
10004d58:	4b31      	ldr	r3, [pc, #196]	; (10004e20 <_etoa+0x404>)
10004d5a:	2190      	movs	r1, #144	; 0x90
10004d5c:	1879      	adds	r1, r7, r1
10004d5e:	6808      	ldr	r0, [r1, #0]
10004d60:	6849      	ldr	r1, [r1, #4]
10004d62:	f001 f8d3 	bl	10005f0c <__wrap___aeabi_dcmpge>
10004d66:	1e03      	subs	r3, r0, #0
10004d68:	d05e      	beq.n	10004e28 <_etoa+0x40c>
10004d6a:	2200      	movs	r2, #0
10004d6c:	4b2d      	ldr	r3, [pc, #180]	; (10004e24 <_etoa+0x408>)
10004d6e:	2190      	movs	r1, #144	; 0x90
10004d70:	1879      	adds	r1, r7, r1
10004d72:	6808      	ldr	r0, [r1, #0]
10004d74:	6849      	ldr	r1, [r1, #4]
10004d76:	f001 f8c3 	bl	10005f00 <__wrap___aeabi_dcmplt>
10004d7a:	1e03      	subs	r3, r0, #0
10004d7c:	d054      	beq.n	10004e28 <_etoa+0x40c>
10004d7e:	2398      	movs	r3, #152	; 0x98
10004d80:	18fb      	adds	r3, r7, r3
10004d82:	681a      	ldr	r2, [r3, #0]
10004d84:	6f7b      	ldr	r3, [r7, #116]	; 0x74
10004d86:	429a      	cmp	r2, r3
10004d88:	dd09      	ble.n	10004d9e <_etoa+0x382>
10004d8a:	2398      	movs	r3, #152	; 0x98
10004d8c:	18fb      	adds	r3, r7, r3
10004d8e:	681a      	ldr	r2, [r3, #0]
10004d90:	6f7b      	ldr	r3, [r7, #116]	; 0x74
10004d92:	1ad3      	subs	r3, r2, r3
10004d94:	3b01      	subs	r3, #1
10004d96:	2298      	movs	r2, #152	; 0x98
10004d98:	18ba      	adds	r2, r7, r2
10004d9a:	6013      	str	r3, [r2, #0]
10004d9c:	e003      	b.n	10004da6 <_etoa+0x38a>
10004d9e:	2300      	movs	r3, #0
10004da0:	2298      	movs	r2, #152	; 0x98
10004da2:	18ba      	adds	r2, r7, r2
10004da4:	6013      	str	r3, [r2, #0]
10004da6:	23a0      	movs	r3, #160	; 0xa0
10004da8:	18fb      	adds	r3, r7, r3
10004daa:	681b      	ldr	r3, [r3, #0]
10004dac:	2280      	movs	r2, #128	; 0x80
10004dae:	00d2      	lsls	r2, r2, #3
10004db0:	4313      	orrs	r3, r2
10004db2:	22a0      	movs	r2, #160	; 0xa0
10004db4:	18ba      	adds	r2, r7, r2
10004db6:	6013      	str	r3, [r2, #0]
10004db8:	2300      	movs	r3, #0
10004dba:	673b      	str	r3, [r7, #112]	; 0x70
10004dbc:	2300      	movs	r3, #0
10004dbe:	677b      	str	r3, [r7, #116]	; 0x74
10004dc0:	e045      	b.n	10004e4e <_etoa+0x432>
10004dc2:	46c0      	nop			; (mov r8, r8)
10004dc4:	7fefffff 	.word	0x7fefffff
10004dc8:	ffefffff 	.word	0xffefffff
10004dcc:	fffffc01 	.word	0xfffffc01
10004dd0:	3ff00000 	.word	0x3ff00000
10004dd4:	509f79fb 	.word	0x509f79fb
10004dd8:	3fd34413 	.word	0x3fd34413
10004ddc:	8b60c8b3 	.word	0x8b60c8b3
10004de0:	3fc68a28 	.word	0x3fc68a28
10004de4:	3ff80000 	.word	0x3ff80000
10004de8:	636f4361 	.word	0x636f4361
10004dec:	3fd287a7 	.word	0x3fd287a7
10004df0:	0979a371 	.word	0x0979a371
10004df4:	400a934f 	.word	0x400a934f
10004df8:	3fe00000 	.word	0x3fe00000
10004dfc:	bbb55516 	.word	0xbbb55516
10004e00:	40026bb1 	.word	0x40026bb1
10004e04:	fefa39ef 	.word	0xfefa39ef
10004e08:	3fe62e42 	.word	0x3fe62e42
10004e0c:	000003ff 	.word	0x000003ff
10004e10:	402c0000 	.word	0x402c0000
10004e14:	40240000 	.word	0x40240000
10004e18:	40180000 	.word	0x40180000
10004e1c:	eb1c432d 	.word	0xeb1c432d
10004e20:	3f1a36e2 	.word	0x3f1a36e2
10004e24:	412e8480 	.word	0x412e8480
10004e28:	2398      	movs	r3, #152	; 0x98
10004e2a:	18fb      	adds	r3, r7, r3
10004e2c:	681b      	ldr	r3, [r3, #0]
10004e2e:	2b00      	cmp	r3, #0
10004e30:	d00d      	beq.n	10004e4e <_etoa+0x432>
10004e32:	23a0      	movs	r3, #160	; 0xa0
10004e34:	18fb      	adds	r3, r7, r3
10004e36:	681a      	ldr	r2, [r3, #0]
10004e38:	2380      	movs	r3, #128	; 0x80
10004e3a:	00db      	lsls	r3, r3, #3
10004e3c:	4013      	ands	r3, r2
10004e3e:	d006      	beq.n	10004e4e <_etoa+0x432>
10004e40:	2398      	movs	r3, #152	; 0x98
10004e42:	18fb      	adds	r3, r7, r3
10004e44:	681b      	ldr	r3, [r3, #0]
10004e46:	3b01      	subs	r3, #1
10004e48:	2298      	movs	r2, #152	; 0x98
10004e4a:	18ba      	adds	r2, r7, r2
10004e4c:	6013      	str	r3, [r2, #0]
10004e4e:	239c      	movs	r3, #156	; 0x9c
10004e50:	18fb      	adds	r3, r7, r3
10004e52:	681b      	ldr	r3, [r3, #0]
10004e54:	66fb      	str	r3, [r7, #108]	; 0x6c
10004e56:	239c      	movs	r3, #156	; 0x9c
10004e58:	18fb      	adds	r3, r7, r3
10004e5a:	681a      	ldr	r2, [r3, #0]
10004e5c:	6f3b      	ldr	r3, [r7, #112]	; 0x70
10004e5e:	429a      	cmp	r2, r3
10004e60:	d904      	bls.n	10004e6c <_etoa+0x450>
10004e62:	6efa      	ldr	r2, [r7, #108]	; 0x6c
10004e64:	6f3b      	ldr	r3, [r7, #112]	; 0x70
10004e66:	1ad3      	subs	r3, r2, r3
10004e68:	66fb      	str	r3, [r7, #108]	; 0x6c
10004e6a:	e001      	b.n	10004e70 <_etoa+0x454>
10004e6c:	2300      	movs	r3, #0
10004e6e:	66fb      	str	r3, [r7, #108]	; 0x6c
10004e70:	23a0      	movs	r3, #160	; 0xa0
10004e72:	18fb      	adds	r3, r7, r3
10004e74:	681b      	ldr	r3, [r3, #0]
10004e76:	2202      	movs	r2, #2
10004e78:	4013      	ands	r3, r2
10004e7a:	d004      	beq.n	10004e86 <_etoa+0x46a>
10004e7c:	6f3b      	ldr	r3, [r7, #112]	; 0x70
10004e7e:	2b00      	cmp	r3, #0
10004e80:	d001      	beq.n	10004e86 <_etoa+0x46a>
10004e82:	2300      	movs	r3, #0
10004e84:	66fb      	str	r3, [r7, #108]	; 0x6c
10004e86:	6f7b      	ldr	r3, [r7, #116]	; 0x74
10004e88:	2b00      	cmp	r3, #0
10004e8a:	d00f      	beq.n	10004eac <_etoa+0x490>
10004e8c:	6c3b      	ldr	r3, [r7, #64]	; 0x40
10004e8e:	6c7c      	ldr	r4, [r7, #68]	; 0x44
10004e90:	001a      	movs	r2, r3
10004e92:	0023      	movs	r3, r4
10004e94:	2190      	movs	r1, #144	; 0x90
10004e96:	1879      	adds	r1, r7, r1
10004e98:	6808      	ldr	r0, [r1, #0]
10004e9a:	6849      	ldr	r1, [r1, #4]
10004e9c:	f000 ffe5 	bl	10005e6a <__wrap___aeabi_ddiv>
10004ea0:	0003      	movs	r3, r0
10004ea2:	000c      	movs	r4, r1
10004ea4:	2290      	movs	r2, #144	; 0x90
10004ea6:	18ba      	adds	r2, r7, r2
10004ea8:	6013      	str	r3, [r2, #0]
10004eaa:	6054      	str	r4, [r2, #4]
10004eac:	6b7b      	ldr	r3, [r7, #52]	; 0x34
10004eae:	64fb      	str	r3, [r7, #76]	; 0x4c
10004eb0:	233b      	movs	r3, #59	; 0x3b
10004eb2:	2230      	movs	r2, #48	; 0x30
10004eb4:	4694      	mov	ip, r2
10004eb6:	44bc      	add	ip, r7
10004eb8:	4463      	add	r3, ip
10004eba:	781b      	ldrb	r3, [r3, #0]
10004ebc:	2b00      	cmp	r3, #0
10004ebe:	d00b      	beq.n	10004ed8 <_etoa+0x4bc>
10004ec0:	2390      	movs	r3, #144	; 0x90
10004ec2:	18fb      	adds	r3, r7, r3
10004ec4:	681b      	ldr	r3, [r3, #0]
10004ec6:	62bb      	str	r3, [r7, #40]	; 0x28
10004ec8:	2394      	movs	r3, #148	; 0x94
10004eca:	18fb      	adds	r3, r7, r3
10004ecc:	681b      	ldr	r3, [r3, #0]
10004ece:	2280      	movs	r2, #128	; 0x80
10004ed0:	0612      	lsls	r2, r2, #24
10004ed2:	405a      	eors	r2, r3
10004ed4:	62fa      	str	r2, [r7, #44]	; 0x2c
10004ed6:	e005      	b.n	10004ee4 <_etoa+0x4c8>
10004ed8:	2390      	movs	r3, #144	; 0x90
10004eda:	18fb      	adds	r3, r7, r3
10004edc:	685c      	ldr	r4, [r3, #4]
10004ede:	681b      	ldr	r3, [r3, #0]
10004ee0:	62bb      	str	r3, [r7, #40]	; 0x28
10004ee2:	62fc      	str	r4, [r7, #44]	; 0x2c
10004ee4:	23a0      	movs	r3, #160	; 0xa0
10004ee6:	18fb      	adds	r3, r7, r3
10004ee8:	681b      	ldr	r3, [r3, #0]
10004eea:	4a32      	ldr	r2, [pc, #200]	; (10004fb4 <_etoa+0x598>)
10004eec:	4013      	ands	r3, r2
10004eee:	6b3c      	ldr	r4, [r7, #48]	; 0x30
10004ef0:	6b7a      	ldr	r2, [r7, #52]	; 0x34
10004ef2:	6bb9      	ldr	r1, [r7, #56]	; 0x38
10004ef4:	6bf8      	ldr	r0, [r7, #60]	; 0x3c
10004ef6:	9304      	str	r3, [sp, #16]
10004ef8:	6efb      	ldr	r3, [r7, #108]	; 0x6c
10004efa:	9303      	str	r3, [sp, #12]
10004efc:	2398      	movs	r3, #152	; 0x98
10004efe:	18fb      	adds	r3, r7, r3
10004f00:	681b      	ldr	r3, [r3, #0]
10004f02:	9302      	str	r3, [sp, #8]
10004f04:	6abd      	ldr	r5, [r7, #40]	; 0x28
10004f06:	6afe      	ldr	r6, [r7, #44]	; 0x2c
10004f08:	9500      	str	r5, [sp, #0]
10004f0a:	9601      	str	r6, [sp, #4]
10004f0c:	0023      	movs	r3, r4
10004f0e:	f7ff fb2f 	bl	10004570 <_ftoa>
10004f12:	0003      	movs	r3, r0
10004f14:	637b      	str	r3, [r7, #52]	; 0x34
10004f16:	6f3b      	ldr	r3, [r7, #112]	; 0x70
10004f18:	2b00      	cmp	r3, #0
10004f1a:	d045      	beq.n	10004fa8 <_etoa+0x58c>
10004f1c:	23a0      	movs	r3, #160	; 0xa0
10004f1e:	18fb      	adds	r3, r7, r3
10004f20:	681b      	ldr	r3, [r3, #0]
10004f22:	2220      	movs	r2, #32
10004f24:	4013      	ands	r3, r2
10004f26:	d001      	beq.n	10004f2c <_etoa+0x510>
10004f28:	2045      	movs	r0, #69	; 0x45
10004f2a:	e000      	b.n	10004f2e <_etoa+0x512>
10004f2c:	2065      	movs	r0, #101	; 0x65
10004f2e:	6b7a      	ldr	r2, [r7, #52]	; 0x34
10004f30:	1c53      	adds	r3, r2, #1
10004f32:	637b      	str	r3, [r7, #52]	; 0x34
10004f34:	6b3b      	ldr	r3, [r7, #48]	; 0x30
10004f36:	6bb9      	ldr	r1, [r7, #56]	; 0x38
10004f38:	6bfc      	ldr	r4, [r7, #60]	; 0x3c
10004f3a:	47a0      	blx	r4
10004f3c:	6f7b      	ldr	r3, [r7, #116]	; 0x74
10004f3e:	17da      	asrs	r2, r3, #31
10004f40:	189b      	adds	r3, r3, r2
10004f42:	4053      	eors	r3, r2
10004f44:	469c      	mov	ip, r3
10004f46:	6f7b      	ldr	r3, [r7, #116]	; 0x74
10004f48:	0fdb      	lsrs	r3, r3, #31
10004f4a:	b2db      	uxtb	r3, r3
10004f4c:	6f3a      	ldr	r2, [r7, #112]	; 0x70
10004f4e:	3a01      	subs	r2, #1
10004f50:	6b3e      	ldr	r6, [r7, #48]	; 0x30
10004f52:	6b7d      	ldr	r5, [r7, #52]	; 0x34
10004f54:	6bbc      	ldr	r4, [r7, #56]	; 0x38
10004f56:	6bf8      	ldr	r0, [r7, #60]	; 0x3c
10004f58:	2105      	movs	r1, #5
10004f5a:	9105      	str	r1, [sp, #20]
10004f5c:	9204      	str	r2, [sp, #16]
10004f5e:	2200      	movs	r2, #0
10004f60:	9203      	str	r2, [sp, #12]
10004f62:	220a      	movs	r2, #10
10004f64:	9202      	str	r2, [sp, #8]
10004f66:	9301      	str	r3, [sp, #4]
10004f68:	4663      	mov	r3, ip
10004f6a:	9300      	str	r3, [sp, #0]
10004f6c:	0033      	movs	r3, r6
10004f6e:	002a      	movs	r2, r5
10004f70:	0021      	movs	r1, r4
10004f72:	f7ff fa1c 	bl	100043ae <_ntoa_long>
10004f76:	0003      	movs	r3, r0
10004f78:	637b      	str	r3, [r7, #52]	; 0x34
10004f7a:	23a0      	movs	r3, #160	; 0xa0
10004f7c:	18fb      	adds	r3, r7, r3
10004f7e:	681b      	ldr	r3, [r3, #0]
10004f80:	2202      	movs	r2, #2
10004f82:	4013      	ands	r3, r2
10004f84:	d010      	beq.n	10004fa8 <_etoa+0x58c>
10004f86:	e007      	b.n	10004f98 <_etoa+0x57c>
10004f88:	6b7a      	ldr	r2, [r7, #52]	; 0x34
10004f8a:	1c53      	adds	r3, r2, #1
10004f8c:	637b      	str	r3, [r7, #52]	; 0x34
10004f8e:	6b3b      	ldr	r3, [r7, #48]	; 0x30
10004f90:	6bb9      	ldr	r1, [r7, #56]	; 0x38
10004f92:	6bfc      	ldr	r4, [r7, #60]	; 0x3c
10004f94:	2020      	movs	r0, #32
10004f96:	47a0      	blx	r4
10004f98:	6b7a      	ldr	r2, [r7, #52]	; 0x34
10004f9a:	6cfb      	ldr	r3, [r7, #76]	; 0x4c
10004f9c:	1ad2      	subs	r2, r2, r3
10004f9e:	239c      	movs	r3, #156	; 0x9c
10004fa0:	18fb      	adds	r3, r7, r3
10004fa2:	681b      	ldr	r3, [r3, #0]
10004fa4:	429a      	cmp	r2, r3
10004fa6:	d3ef      	bcc.n	10004f88 <_etoa+0x56c>
10004fa8:	6b7b      	ldr	r3, [r7, #52]	; 0x34
10004faa:	0018      	movs	r0, r3
10004fac:	46bd      	mov	sp, r7
10004fae:	b01f      	add	sp, #124	; 0x7c
10004fb0:	bdf0      	pop	{r4, r5, r6, r7, pc}
10004fb2:	46c0      	nop			; (mov r8, r8)
10004fb4:	fffff7ff 	.word	0xfffff7ff

10004fb8 <_vsnprintf>:
10004fb8:	b5f0      	push	{r4, r5, r6, r7, lr}
10004fba:	46c6      	mov	lr, r8
10004fbc:	b500      	push	{lr}
10004fbe:	b0a6      	sub	sp, #152	; 0x98
10004fc0:	af0a      	add	r7, sp, #40	; 0x28
10004fc2:	6278      	str	r0, [r7, #36]	; 0x24
10004fc4:	6239      	str	r1, [r7, #32]
10004fc6:	61fa      	str	r2, [r7, #28]
10004fc8:	61bb      	str	r3, [r7, #24]
10004fca:	2300      	movs	r3, #0
10004fcc:	65fb      	str	r3, [r7, #92]	; 0x5c
10004fce:	6a3b      	ldr	r3, [r7, #32]
10004fd0:	2b00      	cmp	r3, #0
10004fd2:	d001      	beq.n	10004fd8 <_vsnprintf+0x20>
10004fd4:	f000 fc26 	bl	10005824 <_vsnprintf+0x86c>
10004fd8:	4bd0      	ldr	r3, [pc, #832]	; (1000531c <_vsnprintf+0x364>)
10004fda:	627b      	str	r3, [r7, #36]	; 0x24
10004fdc:	f000 fc22 	bl	10005824 <_vsnprintf+0x86c>
10004fe0:	69bb      	ldr	r3, [r7, #24]
10004fe2:	781b      	ldrb	r3, [r3, #0]
10004fe4:	2b25      	cmp	r3, #37	; 0x25
10004fe6:	d00d      	beq.n	10005004 <_vsnprintf+0x4c>
10004fe8:	69bb      	ldr	r3, [r7, #24]
10004fea:	7818      	ldrb	r0, [r3, #0]
10004fec:	6dfa      	ldr	r2, [r7, #92]	; 0x5c
10004fee:	1c53      	adds	r3, r2, #1
10004ff0:	65fb      	str	r3, [r7, #92]	; 0x5c
10004ff2:	69fb      	ldr	r3, [r7, #28]
10004ff4:	6a39      	ldr	r1, [r7, #32]
10004ff6:	6a7c      	ldr	r4, [r7, #36]	; 0x24
10004ff8:	47a0      	blx	r4
10004ffa:	69bb      	ldr	r3, [r7, #24]
10004ffc:	3301      	adds	r3, #1
10004ffe:	61bb      	str	r3, [r7, #24]
10005000:	f000 fc10 	bl	10005824 <_vsnprintf+0x86c>
10005004:	69bb      	ldr	r3, [r7, #24]
10005006:	3301      	adds	r3, #1
10005008:	61bb      	str	r3, [r7, #24]
1000500a:	2300      	movs	r3, #0
1000500c:	66fb      	str	r3, [r7, #108]	; 0x6c
1000500e:	69bb      	ldr	r3, [r7, #24]
10005010:	781b      	ldrb	r3, [r3, #0]
10005012:	3b20      	subs	r3, #32
10005014:	2b10      	cmp	r3, #16
10005016:	d836      	bhi.n	10005086 <_vsnprintf+0xce>
10005018:	009a      	lsls	r2, r3, #2
1000501a:	4bc1      	ldr	r3, [pc, #772]	; (10005320 <_vsnprintf+0x368>)
1000501c:	18d3      	adds	r3, r2, r3
1000501e:	681b      	ldr	r3, [r3, #0]
10005020:	469f      	mov	pc, r3
10005022:	6efb      	ldr	r3, [r7, #108]	; 0x6c
10005024:	2201      	movs	r2, #1
10005026:	4313      	orrs	r3, r2
10005028:	66fb      	str	r3, [r7, #108]	; 0x6c
1000502a:	69bb      	ldr	r3, [r7, #24]
1000502c:	3301      	adds	r3, #1
1000502e:	61bb      	str	r3, [r7, #24]
10005030:	2301      	movs	r3, #1
10005032:	663b      	str	r3, [r7, #96]	; 0x60
10005034:	e02a      	b.n	1000508c <_vsnprintf+0xd4>
10005036:	6efb      	ldr	r3, [r7, #108]	; 0x6c
10005038:	2202      	movs	r2, #2
1000503a:	4313      	orrs	r3, r2
1000503c:	66fb      	str	r3, [r7, #108]	; 0x6c
1000503e:	69bb      	ldr	r3, [r7, #24]
10005040:	3301      	adds	r3, #1
10005042:	61bb      	str	r3, [r7, #24]
10005044:	2301      	movs	r3, #1
10005046:	663b      	str	r3, [r7, #96]	; 0x60
10005048:	e020      	b.n	1000508c <_vsnprintf+0xd4>
1000504a:	6efb      	ldr	r3, [r7, #108]	; 0x6c
1000504c:	2204      	movs	r2, #4
1000504e:	4313      	orrs	r3, r2
10005050:	66fb      	str	r3, [r7, #108]	; 0x6c
10005052:	69bb      	ldr	r3, [r7, #24]
10005054:	3301      	adds	r3, #1
10005056:	61bb      	str	r3, [r7, #24]
10005058:	2301      	movs	r3, #1
1000505a:	663b      	str	r3, [r7, #96]	; 0x60
1000505c:	e016      	b.n	1000508c <_vsnprintf+0xd4>
1000505e:	6efb      	ldr	r3, [r7, #108]	; 0x6c
10005060:	2208      	movs	r2, #8
10005062:	4313      	orrs	r3, r2
10005064:	66fb      	str	r3, [r7, #108]	; 0x6c
10005066:	69bb      	ldr	r3, [r7, #24]
10005068:	3301      	adds	r3, #1
1000506a:	61bb      	str	r3, [r7, #24]
1000506c:	2301      	movs	r3, #1
1000506e:	663b      	str	r3, [r7, #96]	; 0x60
10005070:	e00c      	b.n	1000508c <_vsnprintf+0xd4>
10005072:	6efb      	ldr	r3, [r7, #108]	; 0x6c
10005074:	2210      	movs	r2, #16
10005076:	4313      	orrs	r3, r2
10005078:	66fb      	str	r3, [r7, #108]	; 0x6c
1000507a:	69bb      	ldr	r3, [r7, #24]
1000507c:	3301      	adds	r3, #1
1000507e:	61bb      	str	r3, [r7, #24]
10005080:	2301      	movs	r3, #1
10005082:	663b      	str	r3, [r7, #96]	; 0x60
10005084:	e002      	b.n	1000508c <_vsnprintf+0xd4>
10005086:	2300      	movs	r3, #0
10005088:	663b      	str	r3, [r7, #96]	; 0x60
1000508a:	46c0      	nop			; (mov r8, r8)
1000508c:	6e3b      	ldr	r3, [r7, #96]	; 0x60
1000508e:	2b00      	cmp	r3, #0
10005090:	d1bd      	bne.n	1000500e <_vsnprintf+0x56>
10005092:	2300      	movs	r3, #0
10005094:	66bb      	str	r3, [r7, #104]	; 0x68
10005096:	69bb      	ldr	r3, [r7, #24]
10005098:	781b      	ldrb	r3, [r3, #0]
1000509a:	0018      	movs	r0, r3
1000509c:	f7ff f828 	bl	100040f0 <_is_digit>
100050a0:	1e03      	subs	r3, r0, #0
100050a2:	d007      	beq.n	100050b4 <_vsnprintf+0xfc>
100050a4:	2318      	movs	r3, #24
100050a6:	18fb      	adds	r3, r7, r3
100050a8:	0018      	movs	r0, r3
100050aa:	f7ff f83a 	bl	10004122 <_atoi>
100050ae:	0003      	movs	r3, r0
100050b0:	66bb      	str	r3, [r7, #104]	; 0x68
100050b2:	e01c      	b.n	100050ee <_vsnprintf+0x136>
100050b4:	69bb      	ldr	r3, [r7, #24]
100050b6:	781b      	ldrb	r3, [r3, #0]
100050b8:	2b2a      	cmp	r3, #42	; 0x2a
100050ba:	d118      	bne.n	100050ee <_vsnprintf+0x136>
100050bc:	2388      	movs	r3, #136	; 0x88
100050be:	18fb      	adds	r3, r7, r3
100050c0:	681b      	ldr	r3, [r3, #0]
100050c2:	1d1a      	adds	r2, r3, #4
100050c4:	2188      	movs	r1, #136	; 0x88
100050c6:	1879      	adds	r1, r7, r1
100050c8:	600a      	str	r2, [r1, #0]
100050ca:	681b      	ldr	r3, [r3, #0]
100050cc:	64bb      	str	r3, [r7, #72]	; 0x48
100050ce:	6cbb      	ldr	r3, [r7, #72]	; 0x48
100050d0:	2b00      	cmp	r3, #0
100050d2:	da07      	bge.n	100050e4 <_vsnprintf+0x12c>
100050d4:	6efb      	ldr	r3, [r7, #108]	; 0x6c
100050d6:	2202      	movs	r2, #2
100050d8:	4313      	orrs	r3, r2
100050da:	66fb      	str	r3, [r7, #108]	; 0x6c
100050dc:	6cbb      	ldr	r3, [r7, #72]	; 0x48
100050de:	425b      	negs	r3, r3
100050e0:	66bb      	str	r3, [r7, #104]	; 0x68
100050e2:	e001      	b.n	100050e8 <_vsnprintf+0x130>
100050e4:	6cbb      	ldr	r3, [r7, #72]	; 0x48
100050e6:	66bb      	str	r3, [r7, #104]	; 0x68
100050e8:	69bb      	ldr	r3, [r7, #24]
100050ea:	3301      	adds	r3, #1
100050ec:	61bb      	str	r3, [r7, #24]
100050ee:	2300      	movs	r3, #0
100050f0:	667b      	str	r3, [r7, #100]	; 0x64
100050f2:	69bb      	ldr	r3, [r7, #24]
100050f4:	781b      	ldrb	r3, [r3, #0]
100050f6:	2b2e      	cmp	r3, #46	; 0x2e
100050f8:	d12b      	bne.n	10005152 <_vsnprintf+0x19a>
100050fa:	6efb      	ldr	r3, [r7, #108]	; 0x6c
100050fc:	2280      	movs	r2, #128	; 0x80
100050fe:	00d2      	lsls	r2, r2, #3
10005100:	4313      	orrs	r3, r2
10005102:	66fb      	str	r3, [r7, #108]	; 0x6c
10005104:	69bb      	ldr	r3, [r7, #24]
10005106:	3301      	adds	r3, #1
10005108:	61bb      	str	r3, [r7, #24]
1000510a:	69bb      	ldr	r3, [r7, #24]
1000510c:	781b      	ldrb	r3, [r3, #0]
1000510e:	0018      	movs	r0, r3
10005110:	f7fe ffee 	bl	100040f0 <_is_digit>
10005114:	1e03      	subs	r3, r0, #0
10005116:	d007      	beq.n	10005128 <_vsnprintf+0x170>
10005118:	2318      	movs	r3, #24
1000511a:	18fb      	adds	r3, r7, r3
1000511c:	0018      	movs	r0, r3
1000511e:	f7ff f800 	bl	10004122 <_atoi>
10005122:	0003      	movs	r3, r0
10005124:	667b      	str	r3, [r7, #100]	; 0x64
10005126:	e014      	b.n	10005152 <_vsnprintf+0x19a>
10005128:	69bb      	ldr	r3, [r7, #24]
1000512a:	781b      	ldrb	r3, [r3, #0]
1000512c:	2b2a      	cmp	r3, #42	; 0x2a
1000512e:	d110      	bne.n	10005152 <_vsnprintf+0x19a>
10005130:	2388      	movs	r3, #136	; 0x88
10005132:	18fb      	adds	r3, r7, r3
10005134:	681b      	ldr	r3, [r3, #0]
10005136:	1d1a      	adds	r2, r3, #4
10005138:	2188      	movs	r1, #136	; 0x88
1000513a:	1879      	adds	r1, r7, r1
1000513c:	600a      	str	r2, [r1, #0]
1000513e:	681b      	ldr	r3, [r3, #0]
10005140:	647b      	str	r3, [r7, #68]	; 0x44
10005142:	6c7b      	ldr	r3, [r7, #68]	; 0x44
10005144:	2b00      	cmp	r3, #0
10005146:	da00      	bge.n	1000514a <_vsnprintf+0x192>
10005148:	2300      	movs	r3, #0
1000514a:	667b      	str	r3, [r7, #100]	; 0x64
1000514c:	69bb      	ldr	r3, [r7, #24]
1000514e:	3301      	adds	r3, #1
10005150:	61bb      	str	r3, [r7, #24]
10005152:	69bb      	ldr	r3, [r7, #24]
10005154:	781b      	ldrb	r3, [r3, #0]
10005156:	3b68      	subs	r3, #104	; 0x68
10005158:	2b12      	cmp	r3, #18
1000515a:	d847      	bhi.n	100051ec <_vsnprintf+0x234>
1000515c:	009a      	lsls	r2, r3, #2
1000515e:	4b71      	ldr	r3, [pc, #452]	; (10005324 <_vsnprintf+0x36c>)
10005160:	18d3      	adds	r3, r2, r3
10005162:	681b      	ldr	r3, [r3, #0]
10005164:	469f      	mov	pc, r3
10005166:	6efb      	ldr	r3, [r7, #108]	; 0x6c
10005168:	2280      	movs	r2, #128	; 0x80
1000516a:	0052      	lsls	r2, r2, #1
1000516c:	4313      	orrs	r3, r2
1000516e:	66fb      	str	r3, [r7, #108]	; 0x6c
10005170:	69bb      	ldr	r3, [r7, #24]
10005172:	3301      	adds	r3, #1
10005174:	61bb      	str	r3, [r7, #24]
10005176:	69bb      	ldr	r3, [r7, #24]
10005178:	781b      	ldrb	r3, [r3, #0]
1000517a:	2b6c      	cmp	r3, #108	; 0x6c
1000517c:	d138      	bne.n	100051f0 <_vsnprintf+0x238>
1000517e:	6efb      	ldr	r3, [r7, #108]	; 0x6c
10005180:	2280      	movs	r2, #128	; 0x80
10005182:	0092      	lsls	r2, r2, #2
10005184:	4313      	orrs	r3, r2
10005186:	66fb      	str	r3, [r7, #108]	; 0x6c
10005188:	69bb      	ldr	r3, [r7, #24]
1000518a:	3301      	adds	r3, #1
1000518c:	61bb      	str	r3, [r7, #24]
1000518e:	e02f      	b.n	100051f0 <_vsnprintf+0x238>
10005190:	6efb      	ldr	r3, [r7, #108]	; 0x6c
10005192:	2280      	movs	r2, #128	; 0x80
10005194:	4313      	orrs	r3, r2
10005196:	66fb      	str	r3, [r7, #108]	; 0x6c
10005198:	69bb      	ldr	r3, [r7, #24]
1000519a:	3301      	adds	r3, #1
1000519c:	61bb      	str	r3, [r7, #24]
1000519e:	69bb      	ldr	r3, [r7, #24]
100051a0:	781b      	ldrb	r3, [r3, #0]
100051a2:	2b68      	cmp	r3, #104	; 0x68
100051a4:	d126      	bne.n	100051f4 <_vsnprintf+0x23c>
100051a6:	6efb      	ldr	r3, [r7, #108]	; 0x6c
100051a8:	2240      	movs	r2, #64	; 0x40
100051aa:	4313      	orrs	r3, r2
100051ac:	66fb      	str	r3, [r7, #108]	; 0x6c
100051ae:	69bb      	ldr	r3, [r7, #24]
100051b0:	3301      	adds	r3, #1
100051b2:	61bb      	str	r3, [r7, #24]
100051b4:	e01e      	b.n	100051f4 <_vsnprintf+0x23c>
100051b6:	6efb      	ldr	r3, [r7, #108]	; 0x6c
100051b8:	2280      	movs	r2, #128	; 0x80
100051ba:	0052      	lsls	r2, r2, #1
100051bc:	4313      	orrs	r3, r2
100051be:	66fb      	str	r3, [r7, #108]	; 0x6c
100051c0:	69bb      	ldr	r3, [r7, #24]
100051c2:	3301      	adds	r3, #1
100051c4:	61bb      	str	r3, [r7, #24]
100051c6:	e016      	b.n	100051f6 <_vsnprintf+0x23e>
100051c8:	6efb      	ldr	r3, [r7, #108]	; 0x6c
100051ca:	2280      	movs	r2, #128	; 0x80
100051cc:	0092      	lsls	r2, r2, #2
100051ce:	4313      	orrs	r3, r2
100051d0:	66fb      	str	r3, [r7, #108]	; 0x6c
100051d2:	69bb      	ldr	r3, [r7, #24]
100051d4:	3301      	adds	r3, #1
100051d6:	61bb      	str	r3, [r7, #24]
100051d8:	e00d      	b.n	100051f6 <_vsnprintf+0x23e>
100051da:	6efb      	ldr	r3, [r7, #108]	; 0x6c
100051dc:	2280      	movs	r2, #128	; 0x80
100051de:	0052      	lsls	r2, r2, #1
100051e0:	4313      	orrs	r3, r2
100051e2:	66fb      	str	r3, [r7, #108]	; 0x6c
100051e4:	69bb      	ldr	r3, [r7, #24]
100051e6:	3301      	adds	r3, #1
100051e8:	61bb      	str	r3, [r7, #24]
100051ea:	e004      	b.n	100051f6 <_vsnprintf+0x23e>
100051ec:	46c0      	nop			; (mov r8, r8)
100051ee:	e002      	b.n	100051f6 <_vsnprintf+0x23e>
100051f0:	46c0      	nop			; (mov r8, r8)
100051f2:	e000      	b.n	100051f6 <_vsnprintf+0x23e>
100051f4:	46c0      	nop			; (mov r8, r8)
100051f6:	69bb      	ldr	r3, [r7, #24]
100051f8:	781b      	ldrb	r3, [r3, #0]
100051fa:	3b25      	subs	r3, #37	; 0x25
100051fc:	2b53      	cmp	r3, #83	; 0x53
100051fe:	d900      	bls.n	10005202 <_vsnprintf+0x24a>
10005200:	e303      	b.n	1000580a <_vsnprintf+0x852>
10005202:	009a      	lsls	r2, r3, #2
10005204:	4b48      	ldr	r3, [pc, #288]	; (10005328 <_vsnprintf+0x370>)
10005206:	18d3      	adds	r3, r2, r3
10005208:	681b      	ldr	r3, [r3, #0]
1000520a:	469f      	mov	pc, r3
1000520c:	69bb      	ldr	r3, [r7, #24]
1000520e:	781b      	ldrb	r3, [r3, #0]
10005210:	2b78      	cmp	r3, #120	; 0x78
10005212:	d003      	beq.n	1000521c <_vsnprintf+0x264>
10005214:	69bb      	ldr	r3, [r7, #24]
10005216:	781b      	ldrb	r3, [r3, #0]
10005218:	2b58      	cmp	r3, #88	; 0x58
1000521a:	d102      	bne.n	10005222 <_vsnprintf+0x26a>
1000521c:	2310      	movs	r3, #16
1000521e:	65bb      	str	r3, [r7, #88]	; 0x58
10005220:	e013      	b.n	1000524a <_vsnprintf+0x292>
10005222:	69bb      	ldr	r3, [r7, #24]
10005224:	781b      	ldrb	r3, [r3, #0]
10005226:	2b6f      	cmp	r3, #111	; 0x6f
10005228:	d102      	bne.n	10005230 <_vsnprintf+0x278>
1000522a:	2308      	movs	r3, #8
1000522c:	65bb      	str	r3, [r7, #88]	; 0x58
1000522e:	e00c      	b.n	1000524a <_vsnprintf+0x292>
10005230:	69bb      	ldr	r3, [r7, #24]
10005232:	781b      	ldrb	r3, [r3, #0]
10005234:	2b62      	cmp	r3, #98	; 0x62
10005236:	d102      	bne.n	1000523e <_vsnprintf+0x286>
10005238:	2302      	movs	r3, #2
1000523a:	65bb      	str	r3, [r7, #88]	; 0x58
1000523c:	e005      	b.n	1000524a <_vsnprintf+0x292>
1000523e:	230a      	movs	r3, #10
10005240:	65bb      	str	r3, [r7, #88]	; 0x58
10005242:	6efb      	ldr	r3, [r7, #108]	; 0x6c
10005244:	2210      	movs	r2, #16
10005246:	4393      	bics	r3, r2
10005248:	66fb      	str	r3, [r7, #108]	; 0x6c
1000524a:	69bb      	ldr	r3, [r7, #24]
1000524c:	781b      	ldrb	r3, [r3, #0]
1000524e:	2b58      	cmp	r3, #88	; 0x58
10005250:	d103      	bne.n	1000525a <_vsnprintf+0x2a2>
10005252:	6efb      	ldr	r3, [r7, #108]	; 0x6c
10005254:	2220      	movs	r2, #32
10005256:	4313      	orrs	r3, r2
10005258:	66fb      	str	r3, [r7, #108]	; 0x6c
1000525a:	69bb      	ldr	r3, [r7, #24]
1000525c:	781b      	ldrb	r3, [r3, #0]
1000525e:	2b69      	cmp	r3, #105	; 0x69
10005260:	d007      	beq.n	10005272 <_vsnprintf+0x2ba>
10005262:	69bb      	ldr	r3, [r7, #24]
10005264:	781b      	ldrb	r3, [r3, #0]
10005266:	2b64      	cmp	r3, #100	; 0x64
10005268:	d003      	beq.n	10005272 <_vsnprintf+0x2ba>
1000526a:	6efb      	ldr	r3, [r7, #108]	; 0x6c
1000526c:	220c      	movs	r2, #12
1000526e:	4393      	bics	r3, r2
10005270:	66fb      	str	r3, [r7, #108]	; 0x6c
10005272:	6efa      	ldr	r2, [r7, #108]	; 0x6c
10005274:	2380      	movs	r3, #128	; 0x80
10005276:	00db      	lsls	r3, r3, #3
10005278:	4013      	ands	r3, r2
1000527a:	d003      	beq.n	10005284 <_vsnprintf+0x2cc>
1000527c:	6efb      	ldr	r3, [r7, #108]	; 0x6c
1000527e:	2201      	movs	r2, #1
10005280:	4393      	bics	r3, r2
10005282:	66fb      	str	r3, [r7, #108]	; 0x6c
10005284:	69bb      	ldr	r3, [r7, #24]
10005286:	781b      	ldrb	r3, [r3, #0]
10005288:	2b69      	cmp	r3, #105	; 0x69
1000528a:	d004      	beq.n	10005296 <_vsnprintf+0x2de>
1000528c:	69bb      	ldr	r3, [r7, #24]
1000528e:	781b      	ldrb	r3, [r3, #0]
10005290:	2b64      	cmp	r3, #100	; 0x64
10005292:	d000      	beq.n	10005296 <_vsnprintf+0x2de>
10005294:	e0b7      	b.n	10005406 <_vsnprintf+0x44e>
10005296:	6efa      	ldr	r2, [r7, #108]	; 0x6c
10005298:	2380      	movs	r3, #128	; 0x80
1000529a:	009b      	lsls	r3, r3, #2
1000529c:	4013      	ands	r3, r2
1000529e:	d045      	beq.n	1000532c <_vsnprintf+0x374>
100052a0:	2388      	movs	r3, #136	; 0x88
100052a2:	18fb      	adds	r3, r7, r3
100052a4:	681b      	ldr	r3, [r3, #0]
100052a6:	3307      	adds	r3, #7
100052a8:	2207      	movs	r2, #7
100052aa:	4393      	bics	r3, r2
100052ac:	001a      	movs	r2, r3
100052ae:	3208      	adds	r2, #8
100052b0:	2188      	movs	r1, #136	; 0x88
100052b2:	1879      	adds	r1, r7, r1
100052b4:	600a      	str	r2, [r1, #0]
100052b6:	685c      	ldr	r4, [r3, #4]
100052b8:	681b      	ldr	r3, [r3, #0]
100052ba:	63bb      	str	r3, [r7, #56]	; 0x38
100052bc:	63fc      	str	r4, [r7, #60]	; 0x3c
100052be:	6bbb      	ldr	r3, [r7, #56]	; 0x38
100052c0:	6bfc      	ldr	r4, [r7, #60]	; 0x3c
100052c2:	2c00      	cmp	r4, #0
100052c4:	da04      	bge.n	100052d0 <_vsnprintf+0x318>
100052c6:	0019      	movs	r1, r3
100052c8:	0022      	movs	r2, r4
100052ca:	2400      	movs	r4, #0
100052cc:	424b      	negs	r3, r1
100052ce:	4194      	sbcs	r4, r2
100052d0:	0019      	movs	r1, r3
100052d2:	0022      	movs	r2, r4
100052d4:	6bfb      	ldr	r3, [r7, #60]	; 0x3c
100052d6:	0fdb      	lsrs	r3, r3, #31
100052d8:	b2d8      	uxtb	r0, r3
100052da:	6dbb      	ldr	r3, [r7, #88]	; 0x58
100052dc:	60bb      	str	r3, [r7, #8]
100052de:	2300      	movs	r3, #0
100052e0:	60fb      	str	r3, [r7, #12]
100052e2:	69fb      	ldr	r3, [r7, #28]
100052e4:	469c      	mov	ip, r3
100052e6:	6dfe      	ldr	r6, [r7, #92]	; 0x5c
100052e8:	6a3d      	ldr	r5, [r7, #32]
100052ea:	6a7b      	ldr	r3, [r7, #36]	; 0x24
100052ec:	4698      	mov	r8, r3
100052ee:	6efb      	ldr	r3, [r7, #108]	; 0x6c
100052f0:	9308      	str	r3, [sp, #32]
100052f2:	6ebb      	ldr	r3, [r7, #104]	; 0x68
100052f4:	9307      	str	r3, [sp, #28]
100052f6:	6e7b      	ldr	r3, [r7, #100]	; 0x64
100052f8:	9306      	str	r3, [sp, #24]
100052fa:	68bb      	ldr	r3, [r7, #8]
100052fc:	68fc      	ldr	r4, [r7, #12]
100052fe:	9304      	str	r3, [sp, #16]
10005300:	9405      	str	r4, [sp, #20]
10005302:	9002      	str	r0, [sp, #8]
10005304:	9100      	str	r1, [sp, #0]
10005306:	9201      	str	r2, [sp, #4]
10005308:	4663      	mov	r3, ip
1000530a:	0032      	movs	r2, r6
1000530c:	0029      	movs	r1, r5
1000530e:	4640      	mov	r0, r8
10005310:	f7ff f8b7 	bl	10004482 <_ntoa_long_long>
10005314:	0003      	movs	r3, r0
10005316:	65fb      	str	r3, [r7, #92]	; 0x5c
10005318:	e103      	b.n	10005522 <_vsnprintf+0x56a>
1000531a:	46c0      	nop			; (mov r8, r8)
1000531c:	10004067 	.word	0x10004067
10005320:	10008970 	.word	0x10008970
10005324:	100089b4 	.word	0x100089b4
10005328:	10008a00 	.word	0x10008a00
1000532c:	6efa      	ldr	r2, [r7, #108]	; 0x6c
1000532e:	2380      	movs	r3, #128	; 0x80
10005330:	005b      	lsls	r3, r3, #1
10005332:	4013      	ands	r3, r2
10005334:	d025      	beq.n	10005382 <_vsnprintf+0x3ca>
10005336:	2388      	movs	r3, #136	; 0x88
10005338:	18fb      	adds	r3, r7, r3
1000533a:	681b      	ldr	r3, [r3, #0]
1000533c:	1d1a      	adds	r2, r3, #4
1000533e:	2188      	movs	r1, #136	; 0x88
10005340:	1879      	adds	r1, r7, r1
10005342:	600a      	str	r2, [r1, #0]
10005344:	681b      	ldr	r3, [r3, #0]
10005346:	637b      	str	r3, [r7, #52]	; 0x34
10005348:	6b7b      	ldr	r3, [r7, #52]	; 0x34
1000534a:	17da      	asrs	r2, r3, #31
1000534c:	189b      	adds	r3, r3, r2
1000534e:	4053      	eors	r3, r2
10005350:	001e      	movs	r6, r3
10005352:	6b7b      	ldr	r3, [r7, #52]	; 0x34
10005354:	0fdb      	lsrs	r3, r3, #31
10005356:	b2da      	uxtb	r2, r3
10005358:	69fd      	ldr	r5, [r7, #28]
1000535a:	6dfc      	ldr	r4, [r7, #92]	; 0x5c
1000535c:	6a39      	ldr	r1, [r7, #32]
1000535e:	6a78      	ldr	r0, [r7, #36]	; 0x24
10005360:	6efb      	ldr	r3, [r7, #108]	; 0x6c
10005362:	9305      	str	r3, [sp, #20]
10005364:	6ebb      	ldr	r3, [r7, #104]	; 0x68
10005366:	9304      	str	r3, [sp, #16]
10005368:	6e7b      	ldr	r3, [r7, #100]	; 0x64
1000536a:	9303      	str	r3, [sp, #12]
1000536c:	6dbb      	ldr	r3, [r7, #88]	; 0x58
1000536e:	9302      	str	r3, [sp, #8]
10005370:	9201      	str	r2, [sp, #4]
10005372:	9600      	str	r6, [sp, #0]
10005374:	002b      	movs	r3, r5
10005376:	0022      	movs	r2, r4
10005378:	f7ff f819 	bl	100043ae <_ntoa_long>
1000537c:	0003      	movs	r3, r0
1000537e:	65fb      	str	r3, [r7, #92]	; 0x5c
10005380:	e0cf      	b.n	10005522 <_vsnprintf+0x56a>
10005382:	6efb      	ldr	r3, [r7, #108]	; 0x6c
10005384:	2240      	movs	r2, #64	; 0x40
10005386:	4013      	ands	r3, r2
10005388:	d009      	beq.n	1000539e <_vsnprintf+0x3e6>
1000538a:	2388      	movs	r3, #136	; 0x88
1000538c:	18fb      	adds	r3, r7, r3
1000538e:	681b      	ldr	r3, [r3, #0]
10005390:	1d1a      	adds	r2, r3, #4
10005392:	2188      	movs	r1, #136	; 0x88
10005394:	1879      	adds	r1, r7, r1
10005396:	600a      	str	r2, [r1, #0]
10005398:	681b      	ldr	r3, [r3, #0]
1000539a:	b2db      	uxtb	r3, r3
1000539c:	e015      	b.n	100053ca <_vsnprintf+0x412>
1000539e:	6efb      	ldr	r3, [r7, #108]	; 0x6c
100053a0:	2280      	movs	r2, #128	; 0x80
100053a2:	4013      	ands	r3, r2
100053a4:	d009      	beq.n	100053ba <_vsnprintf+0x402>
100053a6:	2388      	movs	r3, #136	; 0x88
100053a8:	18fb      	adds	r3, r7, r3
100053aa:	681b      	ldr	r3, [r3, #0]
100053ac:	1d1a      	adds	r2, r3, #4
100053ae:	2188      	movs	r1, #136	; 0x88
100053b0:	1879      	adds	r1, r7, r1
100053b2:	600a      	str	r2, [r1, #0]
100053b4:	681b      	ldr	r3, [r3, #0]
100053b6:	b21b      	sxth	r3, r3
100053b8:	e007      	b.n	100053ca <_vsnprintf+0x412>
100053ba:	2388      	movs	r3, #136	; 0x88
100053bc:	18fb      	adds	r3, r7, r3
100053be:	681b      	ldr	r3, [r3, #0]
100053c0:	1d1a      	adds	r2, r3, #4
100053c2:	2188      	movs	r1, #136	; 0x88
100053c4:	1879      	adds	r1, r7, r1
100053c6:	600a      	str	r2, [r1, #0]
100053c8:	681b      	ldr	r3, [r3, #0]
100053ca:	633b      	str	r3, [r7, #48]	; 0x30
100053cc:	6b3b      	ldr	r3, [r7, #48]	; 0x30
100053ce:	17da      	asrs	r2, r3, #31
100053d0:	189b      	adds	r3, r3, r2
100053d2:	4053      	eors	r3, r2
100053d4:	001e      	movs	r6, r3
100053d6:	6b3b      	ldr	r3, [r7, #48]	; 0x30
100053d8:	0fdb      	lsrs	r3, r3, #31
100053da:	b2da      	uxtb	r2, r3
100053dc:	69fd      	ldr	r5, [r7, #28]
100053de:	6dfc      	ldr	r4, [r7, #92]	; 0x5c
100053e0:	6a39      	ldr	r1, [r7, #32]
100053e2:	6a78      	ldr	r0, [r7, #36]	; 0x24
100053e4:	6efb      	ldr	r3, [r7, #108]	; 0x6c
100053e6:	9305      	str	r3, [sp, #20]
100053e8:	6ebb      	ldr	r3, [r7, #104]	; 0x68
100053ea:	9304      	str	r3, [sp, #16]
100053ec:	6e7b      	ldr	r3, [r7, #100]	; 0x64
100053ee:	9303      	str	r3, [sp, #12]
100053f0:	6dbb      	ldr	r3, [r7, #88]	; 0x58
100053f2:	9302      	str	r3, [sp, #8]
100053f4:	9201      	str	r2, [sp, #4]
100053f6:	9600      	str	r6, [sp, #0]
100053f8:	002b      	movs	r3, r5
100053fa:	0022      	movs	r2, r4
100053fc:	f7fe ffd7 	bl	100043ae <_ntoa_long>
10005400:	0003      	movs	r3, r0
10005402:	65fb      	str	r3, [r7, #92]	; 0x5c
10005404:	e08d      	b.n	10005522 <_vsnprintf+0x56a>
10005406:	6efa      	ldr	r2, [r7, #108]	; 0x6c
10005408:	2380      	movs	r3, #128	; 0x80
1000540a:	009b      	lsls	r3, r3, #2
1000540c:	4013      	ands	r3, r2
1000540e:	d02b      	beq.n	10005468 <_vsnprintf+0x4b0>
10005410:	2388      	movs	r3, #136	; 0x88
10005412:	18fb      	adds	r3, r7, r3
10005414:	681b      	ldr	r3, [r3, #0]
10005416:	3307      	adds	r3, #7
10005418:	2207      	movs	r2, #7
1000541a:	4393      	bics	r3, r2
1000541c:	001a      	movs	r2, r3
1000541e:	3208      	adds	r2, #8
10005420:	2188      	movs	r1, #136	; 0x88
10005422:	1879      	adds	r1, r7, r1
10005424:	600a      	str	r2, [r1, #0]
10005426:	6819      	ldr	r1, [r3, #0]
10005428:	685a      	ldr	r2, [r3, #4]
1000542a:	6dbb      	ldr	r3, [r7, #88]	; 0x58
1000542c:	613b      	str	r3, [r7, #16]
1000542e:	2300      	movs	r3, #0
10005430:	617b      	str	r3, [r7, #20]
10005432:	69fe      	ldr	r6, [r7, #28]
10005434:	6dfd      	ldr	r5, [r7, #92]	; 0x5c
10005436:	6a3b      	ldr	r3, [r7, #32]
10005438:	469c      	mov	ip, r3
1000543a:	6a78      	ldr	r0, [r7, #36]	; 0x24
1000543c:	6efb      	ldr	r3, [r7, #108]	; 0x6c
1000543e:	9308      	str	r3, [sp, #32]
10005440:	6ebb      	ldr	r3, [r7, #104]	; 0x68
10005442:	9307      	str	r3, [sp, #28]
10005444:	6e7b      	ldr	r3, [r7, #100]	; 0x64
10005446:	9306      	str	r3, [sp, #24]
10005448:	693b      	ldr	r3, [r7, #16]
1000544a:	697c      	ldr	r4, [r7, #20]
1000544c:	9304      	str	r3, [sp, #16]
1000544e:	9405      	str	r4, [sp, #20]
10005450:	2300      	movs	r3, #0
10005452:	9302      	str	r3, [sp, #8]
10005454:	9100      	str	r1, [sp, #0]
10005456:	9201      	str	r2, [sp, #4]
10005458:	0033      	movs	r3, r6
1000545a:	002a      	movs	r2, r5
1000545c:	4661      	mov	r1, ip
1000545e:	f7ff f810 	bl	10004482 <_ntoa_long_long>
10005462:	0003      	movs	r3, r0
10005464:	65fb      	str	r3, [r7, #92]	; 0x5c
10005466:	e05c      	b.n	10005522 <_vsnprintf+0x56a>
10005468:	6efa      	ldr	r2, [r7, #108]	; 0x6c
1000546a:	2380      	movs	r3, #128	; 0x80
1000546c:	005b      	lsls	r3, r3, #1
1000546e:	4013      	ands	r3, r2
10005470:	d01d      	beq.n	100054ae <_vsnprintf+0x4f6>
10005472:	2388      	movs	r3, #136	; 0x88
10005474:	18fb      	adds	r3, r7, r3
10005476:	681b      	ldr	r3, [r3, #0]
10005478:	1d1a      	adds	r2, r3, #4
1000547a:	2188      	movs	r1, #136	; 0x88
1000547c:	1879      	adds	r1, r7, r1
1000547e:	600a      	str	r2, [r1, #0]
10005480:	681b      	ldr	r3, [r3, #0]
10005482:	69fd      	ldr	r5, [r7, #28]
10005484:	6dfc      	ldr	r4, [r7, #92]	; 0x5c
10005486:	6a39      	ldr	r1, [r7, #32]
10005488:	6a78      	ldr	r0, [r7, #36]	; 0x24
1000548a:	6efa      	ldr	r2, [r7, #108]	; 0x6c
1000548c:	9205      	str	r2, [sp, #20]
1000548e:	6eba      	ldr	r2, [r7, #104]	; 0x68
10005490:	9204      	str	r2, [sp, #16]
10005492:	6e7a      	ldr	r2, [r7, #100]	; 0x64
10005494:	9203      	str	r2, [sp, #12]
10005496:	6dba      	ldr	r2, [r7, #88]	; 0x58
10005498:	9202      	str	r2, [sp, #8]
1000549a:	2200      	movs	r2, #0
1000549c:	9201      	str	r2, [sp, #4]
1000549e:	9300      	str	r3, [sp, #0]
100054a0:	002b      	movs	r3, r5
100054a2:	0022      	movs	r2, r4
100054a4:	f7fe ff83 	bl	100043ae <_ntoa_long>
100054a8:	0003      	movs	r3, r0
100054aa:	65fb      	str	r3, [r7, #92]	; 0x5c
100054ac:	e039      	b.n	10005522 <_vsnprintf+0x56a>
100054ae:	6efb      	ldr	r3, [r7, #108]	; 0x6c
100054b0:	2240      	movs	r2, #64	; 0x40
100054b2:	4013      	ands	r3, r2
100054b4:	d009      	beq.n	100054ca <_vsnprintf+0x512>
100054b6:	2388      	movs	r3, #136	; 0x88
100054b8:	18fb      	adds	r3, r7, r3
100054ba:	681b      	ldr	r3, [r3, #0]
100054bc:	1d1a      	adds	r2, r3, #4
100054be:	2188      	movs	r1, #136	; 0x88
100054c0:	1879      	adds	r1, r7, r1
100054c2:	600a      	str	r2, [r1, #0]
100054c4:	681b      	ldr	r3, [r3, #0]
100054c6:	b2db      	uxtb	r3, r3
100054c8:	e015      	b.n	100054f6 <_vsnprintf+0x53e>
100054ca:	6efb      	ldr	r3, [r7, #108]	; 0x6c
100054cc:	2280      	movs	r2, #128	; 0x80
100054ce:	4013      	ands	r3, r2
100054d0:	d009      	beq.n	100054e6 <_vsnprintf+0x52e>
100054d2:	2388      	movs	r3, #136	; 0x88
100054d4:	18fb      	adds	r3, r7, r3
100054d6:	681b      	ldr	r3, [r3, #0]
100054d8:	1d1a      	adds	r2, r3, #4
100054da:	2188      	movs	r1, #136	; 0x88
100054dc:	1879      	adds	r1, r7, r1
100054de:	600a      	str	r2, [r1, #0]
100054e0:	681b      	ldr	r3, [r3, #0]
100054e2:	b29b      	uxth	r3, r3
100054e4:	e007      	b.n	100054f6 <_vsnprintf+0x53e>
100054e6:	2388      	movs	r3, #136	; 0x88
100054e8:	18fb      	adds	r3, r7, r3
100054ea:	681b      	ldr	r3, [r3, #0]
100054ec:	1d1a      	adds	r2, r3, #4
100054ee:	2188      	movs	r1, #136	; 0x88
100054f0:	1879      	adds	r1, r7, r1
100054f2:	600a      	str	r2, [r1, #0]
100054f4:	681b      	ldr	r3, [r3, #0]
100054f6:	643b      	str	r3, [r7, #64]	; 0x40
100054f8:	69fc      	ldr	r4, [r7, #28]
100054fa:	6dfa      	ldr	r2, [r7, #92]	; 0x5c
100054fc:	6a39      	ldr	r1, [r7, #32]
100054fe:	6a78      	ldr	r0, [r7, #36]	; 0x24
10005500:	6efb      	ldr	r3, [r7, #108]	; 0x6c
10005502:	9305      	str	r3, [sp, #20]
10005504:	6ebb      	ldr	r3, [r7, #104]	; 0x68
10005506:	9304      	str	r3, [sp, #16]
10005508:	6e7b      	ldr	r3, [r7, #100]	; 0x64
1000550a:	9303      	str	r3, [sp, #12]
1000550c:	6dbb      	ldr	r3, [r7, #88]	; 0x58
1000550e:	9302      	str	r3, [sp, #8]
10005510:	2300      	movs	r3, #0
10005512:	9301      	str	r3, [sp, #4]
10005514:	6c3b      	ldr	r3, [r7, #64]	; 0x40
10005516:	9300      	str	r3, [sp, #0]
10005518:	0023      	movs	r3, r4
1000551a:	f7fe ff48 	bl	100043ae <_ntoa_long>
1000551e:	0003      	movs	r3, r0
10005520:	65fb      	str	r3, [r7, #92]	; 0x5c
10005522:	69bb      	ldr	r3, [r7, #24]
10005524:	3301      	adds	r3, #1
10005526:	61bb      	str	r3, [r7, #24]
10005528:	e17c      	b.n	10005824 <_vsnprintf+0x86c>
1000552a:	69bb      	ldr	r3, [r7, #24]
1000552c:	781b      	ldrb	r3, [r3, #0]
1000552e:	2b46      	cmp	r3, #70	; 0x46
10005530:	d103      	bne.n	1000553a <_vsnprintf+0x582>
10005532:	6efb      	ldr	r3, [r7, #108]	; 0x6c
10005534:	2220      	movs	r2, #32
10005536:	4313      	orrs	r3, r2
10005538:	66fb      	str	r3, [r7, #108]	; 0x6c
1000553a:	2388      	movs	r3, #136	; 0x88
1000553c:	18fb      	adds	r3, r7, r3
1000553e:	681b      	ldr	r3, [r3, #0]
10005540:	3307      	adds	r3, #7
10005542:	2207      	movs	r2, #7
10005544:	4393      	bics	r3, r2
10005546:	001a      	movs	r2, r3
10005548:	3208      	adds	r2, #8
1000554a:	2188      	movs	r1, #136	; 0x88
1000554c:	1879      	adds	r1, r7, r1
1000554e:	600a      	str	r2, [r1, #0]
10005550:	685c      	ldr	r4, [r3, #4]
10005552:	681b      	ldr	r3, [r3, #0]
10005554:	69fe      	ldr	r6, [r7, #28]
10005556:	6dfd      	ldr	r5, [r7, #92]	; 0x5c
10005558:	6a39      	ldr	r1, [r7, #32]
1000555a:	6a78      	ldr	r0, [r7, #36]	; 0x24
1000555c:	6efa      	ldr	r2, [r7, #108]	; 0x6c
1000555e:	9204      	str	r2, [sp, #16]
10005560:	6eba      	ldr	r2, [r7, #104]	; 0x68
10005562:	9203      	str	r2, [sp, #12]
10005564:	6e7a      	ldr	r2, [r7, #100]	; 0x64
10005566:	9202      	str	r2, [sp, #8]
10005568:	9300      	str	r3, [sp, #0]
1000556a:	9401      	str	r4, [sp, #4]
1000556c:	0033      	movs	r3, r6
1000556e:	002a      	movs	r2, r5
10005570:	f7fe fffe 	bl	10004570 <_ftoa>
10005574:	0003      	movs	r3, r0
10005576:	65fb      	str	r3, [r7, #92]	; 0x5c
10005578:	69bb      	ldr	r3, [r7, #24]
1000557a:	3301      	adds	r3, #1
1000557c:	61bb      	str	r3, [r7, #24]
1000557e:	e151      	b.n	10005824 <_vsnprintf+0x86c>
10005580:	69bb      	ldr	r3, [r7, #24]
10005582:	781b      	ldrb	r3, [r3, #0]
10005584:	2b67      	cmp	r3, #103	; 0x67
10005586:	d003      	beq.n	10005590 <_vsnprintf+0x5d8>
10005588:	69bb      	ldr	r3, [r7, #24]
1000558a:	781b      	ldrb	r3, [r3, #0]
1000558c:	2b47      	cmp	r3, #71	; 0x47
1000558e:	d104      	bne.n	1000559a <_vsnprintf+0x5e2>
10005590:	6efb      	ldr	r3, [r7, #108]	; 0x6c
10005592:	2280      	movs	r2, #128	; 0x80
10005594:	0112      	lsls	r2, r2, #4
10005596:	4313      	orrs	r3, r2
10005598:	66fb      	str	r3, [r7, #108]	; 0x6c
1000559a:	69bb      	ldr	r3, [r7, #24]
1000559c:	781b      	ldrb	r3, [r3, #0]
1000559e:	2b45      	cmp	r3, #69	; 0x45
100055a0:	d003      	beq.n	100055aa <_vsnprintf+0x5f2>
100055a2:	69bb      	ldr	r3, [r7, #24]
100055a4:	781b      	ldrb	r3, [r3, #0]
100055a6:	2b47      	cmp	r3, #71	; 0x47
100055a8:	d103      	bne.n	100055b2 <_vsnprintf+0x5fa>
100055aa:	6efb      	ldr	r3, [r7, #108]	; 0x6c
100055ac:	2220      	movs	r2, #32
100055ae:	4313      	orrs	r3, r2
100055b0:	66fb      	str	r3, [r7, #108]	; 0x6c
100055b2:	2388      	movs	r3, #136	; 0x88
100055b4:	18fb      	adds	r3, r7, r3
100055b6:	681b      	ldr	r3, [r3, #0]
100055b8:	3307      	adds	r3, #7
100055ba:	2207      	movs	r2, #7
100055bc:	4393      	bics	r3, r2
100055be:	001a      	movs	r2, r3
100055c0:	3208      	adds	r2, #8
100055c2:	2188      	movs	r1, #136	; 0x88
100055c4:	1879      	adds	r1, r7, r1
100055c6:	600a      	str	r2, [r1, #0]
100055c8:	685c      	ldr	r4, [r3, #4]
100055ca:	681b      	ldr	r3, [r3, #0]
100055cc:	69fe      	ldr	r6, [r7, #28]
100055ce:	6dfd      	ldr	r5, [r7, #92]	; 0x5c
100055d0:	6a39      	ldr	r1, [r7, #32]
100055d2:	6a78      	ldr	r0, [r7, #36]	; 0x24
100055d4:	6efa      	ldr	r2, [r7, #108]	; 0x6c
100055d6:	9204      	str	r2, [sp, #16]
100055d8:	6eba      	ldr	r2, [r7, #104]	; 0x68
100055da:	9203      	str	r2, [sp, #12]
100055dc:	6e7a      	ldr	r2, [r7, #100]	; 0x64
100055de:	9202      	str	r2, [sp, #8]
100055e0:	9300      	str	r3, [sp, #0]
100055e2:	9401      	str	r4, [sp, #4]
100055e4:	0033      	movs	r3, r6
100055e6:	002a      	movs	r2, r5
100055e8:	f7ff fa18 	bl	10004a1c <_etoa>
100055ec:	0003      	movs	r3, r0
100055ee:	65fb      	str	r3, [r7, #92]	; 0x5c
100055f0:	69bb      	ldr	r3, [r7, #24]
100055f2:	3301      	adds	r3, #1
100055f4:	61bb      	str	r3, [r7, #24]
100055f6:	e115      	b.n	10005824 <_vsnprintf+0x86c>
100055f8:	2301      	movs	r3, #1
100055fa:	657b      	str	r3, [r7, #84]	; 0x54
100055fc:	6efb      	ldr	r3, [r7, #108]	; 0x6c
100055fe:	2202      	movs	r2, #2
10005600:	4013      	ands	r3, r2
10005602:	d10e      	bne.n	10005622 <_vsnprintf+0x66a>
10005604:	e007      	b.n	10005616 <_vsnprintf+0x65e>
10005606:	6dfa      	ldr	r2, [r7, #92]	; 0x5c
10005608:	1c53      	adds	r3, r2, #1
1000560a:	65fb      	str	r3, [r7, #92]	; 0x5c
1000560c:	69fb      	ldr	r3, [r7, #28]
1000560e:	6a39      	ldr	r1, [r7, #32]
10005610:	6a7c      	ldr	r4, [r7, #36]	; 0x24
10005612:	2020      	movs	r0, #32
10005614:	47a0      	blx	r4
10005616:	6d7b      	ldr	r3, [r7, #84]	; 0x54
10005618:	1c5a      	adds	r2, r3, #1
1000561a:	657a      	str	r2, [r7, #84]	; 0x54
1000561c:	6eba      	ldr	r2, [r7, #104]	; 0x68
1000561e:	4293      	cmp	r3, r2
10005620:	d3f1      	bcc.n	10005606 <_vsnprintf+0x64e>
10005622:	2388      	movs	r3, #136	; 0x88
10005624:	18fb      	adds	r3, r7, r3
10005626:	681b      	ldr	r3, [r3, #0]
10005628:	1d1a      	adds	r2, r3, #4
1000562a:	2188      	movs	r1, #136	; 0x88
1000562c:	1879      	adds	r1, r7, r1
1000562e:	600a      	str	r2, [r1, #0]
10005630:	681b      	ldr	r3, [r3, #0]
10005632:	b2d8      	uxtb	r0, r3
10005634:	6dfa      	ldr	r2, [r7, #92]	; 0x5c
10005636:	1c53      	adds	r3, r2, #1
10005638:	65fb      	str	r3, [r7, #92]	; 0x5c
1000563a:	69fb      	ldr	r3, [r7, #28]
1000563c:	6a39      	ldr	r1, [r7, #32]
1000563e:	6a7c      	ldr	r4, [r7, #36]	; 0x24
10005640:	47a0      	blx	r4
10005642:	6efb      	ldr	r3, [r7, #108]	; 0x6c
10005644:	2202      	movs	r2, #2
10005646:	4013      	ands	r3, r2
10005648:	d00e      	beq.n	10005668 <_vsnprintf+0x6b0>
1000564a:	e007      	b.n	1000565c <_vsnprintf+0x6a4>
1000564c:	6dfa      	ldr	r2, [r7, #92]	; 0x5c
1000564e:	1c53      	adds	r3, r2, #1
10005650:	65fb      	str	r3, [r7, #92]	; 0x5c
10005652:	69fb      	ldr	r3, [r7, #28]
10005654:	6a39      	ldr	r1, [r7, #32]
10005656:	6a7c      	ldr	r4, [r7, #36]	; 0x24
10005658:	2020      	movs	r0, #32
1000565a:	47a0      	blx	r4
1000565c:	6d7b      	ldr	r3, [r7, #84]	; 0x54
1000565e:	1c5a      	adds	r2, r3, #1
10005660:	657a      	str	r2, [r7, #84]	; 0x54
10005662:	6eba      	ldr	r2, [r7, #104]	; 0x68
10005664:	4293      	cmp	r3, r2
10005666:	d3f1      	bcc.n	1000564c <_vsnprintf+0x694>
10005668:	69bb      	ldr	r3, [r7, #24]
1000566a:	3301      	adds	r3, #1
1000566c:	61bb      	str	r3, [r7, #24]
1000566e:	e0d9      	b.n	10005824 <_vsnprintf+0x86c>
10005670:	2388      	movs	r3, #136	; 0x88
10005672:	18fb      	adds	r3, r7, r3
10005674:	681b      	ldr	r3, [r3, #0]
10005676:	1d1a      	adds	r2, r3, #4
10005678:	2188      	movs	r1, #136	; 0x88
1000567a:	1879      	adds	r1, r7, r1
1000567c:	600a      	str	r2, [r1, #0]
1000567e:	681b      	ldr	r3, [r3, #0]
10005680:	653b      	str	r3, [r7, #80]	; 0x50
10005682:	6e7b      	ldr	r3, [r7, #100]	; 0x64
10005684:	2b00      	cmp	r3, #0
10005686:	d001      	beq.n	1000568c <_vsnprintf+0x6d4>
10005688:	6e7b      	ldr	r3, [r7, #100]	; 0x64
1000568a:	e001      	b.n	10005690 <_vsnprintf+0x6d8>
1000568c:	2301      	movs	r3, #1
1000568e:	425b      	negs	r3, r3
10005690:	6d3a      	ldr	r2, [r7, #80]	; 0x50
10005692:	0019      	movs	r1, r3
10005694:	0010      	movs	r0, r2
10005696:	f7fe fd10 	bl	100040ba <_strnlen_s>
1000569a:	0003      	movs	r3, r0
1000569c:	64fb      	str	r3, [r7, #76]	; 0x4c
1000569e:	6efa      	ldr	r2, [r7, #108]	; 0x6c
100056a0:	2380      	movs	r3, #128	; 0x80
100056a2:	00db      	lsls	r3, r3, #3
100056a4:	4013      	ands	r3, r2
100056a6:	d005      	beq.n	100056b4 <_vsnprintf+0x6fc>
100056a8:	6cfa      	ldr	r2, [r7, #76]	; 0x4c
100056aa:	6e7b      	ldr	r3, [r7, #100]	; 0x64
100056ac:	4293      	cmp	r3, r2
100056ae:	d900      	bls.n	100056b2 <_vsnprintf+0x6fa>
100056b0:	0013      	movs	r3, r2
100056b2:	64fb      	str	r3, [r7, #76]	; 0x4c
100056b4:	6efb      	ldr	r3, [r7, #108]	; 0x6c
100056b6:	2202      	movs	r2, #2
100056b8:	4013      	ands	r3, r2
100056ba:	d11a      	bne.n	100056f2 <_vsnprintf+0x73a>
100056bc:	e007      	b.n	100056ce <_vsnprintf+0x716>
100056be:	6dfa      	ldr	r2, [r7, #92]	; 0x5c
100056c0:	1c53      	adds	r3, r2, #1
100056c2:	65fb      	str	r3, [r7, #92]	; 0x5c
100056c4:	69fb      	ldr	r3, [r7, #28]
100056c6:	6a39      	ldr	r1, [r7, #32]
100056c8:	6a7c      	ldr	r4, [r7, #36]	; 0x24
100056ca:	2020      	movs	r0, #32
100056cc:	47a0      	blx	r4
100056ce:	6cfb      	ldr	r3, [r7, #76]	; 0x4c
100056d0:	1c5a      	adds	r2, r3, #1
100056d2:	64fa      	str	r2, [r7, #76]	; 0x4c
100056d4:	6eba      	ldr	r2, [r7, #104]	; 0x68
100056d6:	4293      	cmp	r3, r2
100056d8:	d3f1      	bcc.n	100056be <_vsnprintf+0x706>
100056da:	e00a      	b.n	100056f2 <_vsnprintf+0x73a>
100056dc:	6d3b      	ldr	r3, [r7, #80]	; 0x50
100056de:	1c5a      	adds	r2, r3, #1
100056e0:	653a      	str	r2, [r7, #80]	; 0x50
100056e2:	7818      	ldrb	r0, [r3, #0]
100056e4:	6dfa      	ldr	r2, [r7, #92]	; 0x5c
100056e6:	1c53      	adds	r3, r2, #1
100056e8:	65fb      	str	r3, [r7, #92]	; 0x5c
100056ea:	69fb      	ldr	r3, [r7, #28]
100056ec:	6a39      	ldr	r1, [r7, #32]
100056ee:	6a7c      	ldr	r4, [r7, #36]	; 0x24
100056f0:	47a0      	blx	r4
100056f2:	6d3b      	ldr	r3, [r7, #80]	; 0x50
100056f4:	781b      	ldrb	r3, [r3, #0]
100056f6:	2b00      	cmp	r3, #0
100056f8:	d009      	beq.n	1000570e <_vsnprintf+0x756>
100056fa:	6efa      	ldr	r2, [r7, #108]	; 0x6c
100056fc:	2380      	movs	r3, #128	; 0x80
100056fe:	00db      	lsls	r3, r3, #3
10005700:	4013      	ands	r3, r2
10005702:	d0eb      	beq.n	100056dc <_vsnprintf+0x724>
10005704:	6e7b      	ldr	r3, [r7, #100]	; 0x64
10005706:	1e5a      	subs	r2, r3, #1
10005708:	667a      	str	r2, [r7, #100]	; 0x64
1000570a:	2b00      	cmp	r3, #0
1000570c:	d1e6      	bne.n	100056dc <_vsnprintf+0x724>
1000570e:	6efb      	ldr	r3, [r7, #108]	; 0x6c
10005710:	2202      	movs	r2, #2
10005712:	4013      	ands	r3, r2
10005714:	d00e      	beq.n	10005734 <_vsnprintf+0x77c>
10005716:	e007      	b.n	10005728 <_vsnprintf+0x770>
10005718:	6dfa      	ldr	r2, [r7, #92]	; 0x5c
1000571a:	1c53      	adds	r3, r2, #1
1000571c:	65fb      	str	r3, [r7, #92]	; 0x5c
1000571e:	69fb      	ldr	r3, [r7, #28]
10005720:	6a39      	ldr	r1, [r7, #32]
10005722:	6a7c      	ldr	r4, [r7, #36]	; 0x24
10005724:	2020      	movs	r0, #32
10005726:	47a0      	blx	r4
10005728:	6cfb      	ldr	r3, [r7, #76]	; 0x4c
1000572a:	1c5a      	adds	r2, r3, #1
1000572c:	64fa      	str	r2, [r7, #76]	; 0x4c
1000572e:	6eba      	ldr	r2, [r7, #104]	; 0x68
10005730:	4293      	cmp	r3, r2
10005732:	d3f1      	bcc.n	10005718 <_vsnprintf+0x760>
10005734:	69bb      	ldr	r3, [r7, #24]
10005736:	3301      	adds	r3, #1
10005738:	61bb      	str	r3, [r7, #24]
1000573a:	e073      	b.n	10005824 <_vsnprintf+0x86c>
1000573c:	2308      	movs	r3, #8
1000573e:	66bb      	str	r3, [r7, #104]	; 0x68
10005740:	6efb      	ldr	r3, [r7, #108]	; 0x6c
10005742:	2221      	movs	r2, #33	; 0x21
10005744:	4313      	orrs	r3, r2
10005746:	66fb      	str	r3, [r7, #108]	; 0x6c
10005748:	2317      	movs	r3, #23
1000574a:	2218      	movs	r2, #24
1000574c:	4694      	mov	ip, r2
1000574e:	44bc      	add	ip, r7
10005750:	4463      	add	r3, ip
10005752:	2200      	movs	r2, #0
10005754:	701a      	strb	r2, [r3, #0]
10005756:	2317      	movs	r3, #23
10005758:	2218      	movs	r2, #24
1000575a:	4694      	mov	ip, r2
1000575c:	44bc      	add	ip, r7
1000575e:	4463      	add	r3, ip
10005760:	781b      	ldrb	r3, [r3, #0]
10005762:	2b00      	cmp	r3, #0
10005764:	d024      	beq.n	100057b0 <_vsnprintf+0x7f8>
10005766:	2388      	movs	r3, #136	; 0x88
10005768:	18fb      	adds	r3, r7, r3
1000576a:	681b      	ldr	r3, [r3, #0]
1000576c:	1d1a      	adds	r2, r3, #4
1000576e:	2188      	movs	r1, #136	; 0x88
10005770:	1879      	adds	r1, r7, r1
10005772:	600a      	str	r2, [r1, #0]
10005774:	681b      	ldr	r3, [r3, #0]
10005776:	603b      	str	r3, [r7, #0]
10005778:	2300      	movs	r3, #0
1000577a:	607b      	str	r3, [r7, #4]
1000577c:	69fd      	ldr	r5, [r7, #28]
1000577e:	6dfa      	ldr	r2, [r7, #92]	; 0x5c
10005780:	6a39      	ldr	r1, [r7, #32]
10005782:	6a78      	ldr	r0, [r7, #36]	; 0x24
10005784:	6efb      	ldr	r3, [r7, #108]	; 0x6c
10005786:	9308      	str	r3, [sp, #32]
10005788:	6ebb      	ldr	r3, [r7, #104]	; 0x68
1000578a:	9307      	str	r3, [sp, #28]
1000578c:	6e7b      	ldr	r3, [r7, #100]	; 0x64
1000578e:	9306      	str	r3, [sp, #24]
10005790:	2310      	movs	r3, #16
10005792:	2400      	movs	r4, #0
10005794:	9304      	str	r3, [sp, #16]
10005796:	9405      	str	r4, [sp, #20]
10005798:	2300      	movs	r3, #0
1000579a:	9302      	str	r3, [sp, #8]
1000579c:	683b      	ldr	r3, [r7, #0]
1000579e:	687c      	ldr	r4, [r7, #4]
100057a0:	9300      	str	r3, [sp, #0]
100057a2:	9401      	str	r4, [sp, #4]
100057a4:	002b      	movs	r3, r5
100057a6:	f7fe fe6c 	bl	10004482 <_ntoa_long_long>
100057aa:	0003      	movs	r3, r0
100057ac:	65fb      	str	r3, [r7, #92]	; 0x5c
100057ae:	e01c      	b.n	100057ea <_vsnprintf+0x832>
100057b0:	2388      	movs	r3, #136	; 0x88
100057b2:	18fb      	adds	r3, r7, r3
100057b4:	681b      	ldr	r3, [r3, #0]
100057b6:	1d1a      	adds	r2, r3, #4
100057b8:	2188      	movs	r1, #136	; 0x88
100057ba:	1879      	adds	r1, r7, r1
100057bc:	600a      	str	r2, [r1, #0]
100057be:	681b      	ldr	r3, [r3, #0]
100057c0:	001d      	movs	r5, r3
100057c2:	69fc      	ldr	r4, [r7, #28]
100057c4:	6dfa      	ldr	r2, [r7, #92]	; 0x5c
100057c6:	6a39      	ldr	r1, [r7, #32]
100057c8:	6a78      	ldr	r0, [r7, #36]	; 0x24
100057ca:	6efb      	ldr	r3, [r7, #108]	; 0x6c
100057cc:	9305      	str	r3, [sp, #20]
100057ce:	6ebb      	ldr	r3, [r7, #104]	; 0x68
100057d0:	9304      	str	r3, [sp, #16]
100057d2:	6e7b      	ldr	r3, [r7, #100]	; 0x64
100057d4:	9303      	str	r3, [sp, #12]
100057d6:	2310      	movs	r3, #16
100057d8:	9302      	str	r3, [sp, #8]
100057da:	2300      	movs	r3, #0
100057dc:	9301      	str	r3, [sp, #4]
100057de:	9500      	str	r5, [sp, #0]
100057e0:	0023      	movs	r3, r4
100057e2:	f7fe fde4 	bl	100043ae <_ntoa_long>
100057e6:	0003      	movs	r3, r0
100057e8:	65fb      	str	r3, [r7, #92]	; 0x5c
100057ea:	69bb      	ldr	r3, [r7, #24]
100057ec:	3301      	adds	r3, #1
100057ee:	61bb      	str	r3, [r7, #24]
100057f0:	e018      	b.n	10005824 <_vsnprintf+0x86c>
100057f2:	6dfa      	ldr	r2, [r7, #92]	; 0x5c
100057f4:	1c53      	adds	r3, r2, #1
100057f6:	65fb      	str	r3, [r7, #92]	; 0x5c
100057f8:	69fb      	ldr	r3, [r7, #28]
100057fa:	6a39      	ldr	r1, [r7, #32]
100057fc:	6a7c      	ldr	r4, [r7, #36]	; 0x24
100057fe:	2025      	movs	r0, #37	; 0x25
10005800:	47a0      	blx	r4
10005802:	69bb      	ldr	r3, [r7, #24]
10005804:	3301      	adds	r3, #1
10005806:	61bb      	str	r3, [r7, #24]
10005808:	e00c      	b.n	10005824 <_vsnprintf+0x86c>
1000580a:	69bb      	ldr	r3, [r7, #24]
1000580c:	7818      	ldrb	r0, [r3, #0]
1000580e:	6dfa      	ldr	r2, [r7, #92]	; 0x5c
10005810:	1c53      	adds	r3, r2, #1
10005812:	65fb      	str	r3, [r7, #92]	; 0x5c
10005814:	69fb      	ldr	r3, [r7, #28]
10005816:	6a39      	ldr	r1, [r7, #32]
10005818:	6a7c      	ldr	r4, [r7, #36]	; 0x24
1000581a:	47a0      	blx	r4
1000581c:	69bb      	ldr	r3, [r7, #24]
1000581e:	3301      	adds	r3, #1
10005820:	61bb      	str	r3, [r7, #24]
10005822:	46c0      	nop			; (mov r8, r8)
10005824:	69bb      	ldr	r3, [r7, #24]
10005826:	781b      	ldrb	r3, [r3, #0]
10005828:	2b00      	cmp	r3, #0
1000582a:	d001      	beq.n	10005830 <_vsnprintf+0x878>
1000582c:	f7ff fbd8 	bl	10004fe0 <_vsnprintf+0x28>
10005830:	6dfa      	ldr	r2, [r7, #92]	; 0x5c
10005832:	69fb      	ldr	r3, [r7, #28]
10005834:	429a      	cmp	r2, r3
10005836:	d302      	bcc.n	1000583e <_vsnprintf+0x886>
10005838:	69fb      	ldr	r3, [r7, #28]
1000583a:	1e5a      	subs	r2, r3, #1
1000583c:	e000      	b.n	10005840 <_vsnprintf+0x888>
1000583e:	6dfa      	ldr	r2, [r7, #92]	; 0x5c
10005840:	69fb      	ldr	r3, [r7, #28]
10005842:	6a39      	ldr	r1, [r7, #32]
10005844:	6a7c      	ldr	r4, [r7, #36]	; 0x24
10005846:	2000      	movs	r0, #0
10005848:	47a0      	blx	r4
1000584a:	6dfb      	ldr	r3, [r7, #92]	; 0x5c
1000584c:	0018      	movs	r0, r3
1000584e:	46bd      	mov	sp, r7
10005850:	b01c      	add	sp, #112	; 0x70
10005852:	bc04      	pop	{r2}
10005854:	4690      	mov	r8, r2
10005856:	bdf0      	pop	{r4, r5, r6, r7, pc}

10005858 <vfctprintf>:
10005858:	b590      	push	{r4, r7, lr}
1000585a:	b089      	sub	sp, #36	; 0x24
1000585c:	af02      	add	r7, sp, #8
1000585e:	60f8      	str	r0, [r7, #12]
10005860:	60b9      	str	r1, [r7, #8]
10005862:	607a      	str	r2, [r7, #4]
10005864:	603b      	str	r3, [r7, #0]
10005866:	2310      	movs	r3, #16
10005868:	18fb      	adds	r3, r7, r3
1000586a:	68fa      	ldr	r2, [r7, #12]
1000586c:	601a      	str	r2, [r3, #0]
1000586e:	2310      	movs	r3, #16
10005870:	18fb      	adds	r3, r7, r3
10005872:	68ba      	ldr	r2, [r7, #8]
10005874:	605a      	str	r2, [r3, #4]
10005876:	687c      	ldr	r4, [r7, #4]
10005878:	2301      	movs	r3, #1
1000587a:	425a      	negs	r2, r3
1000587c:	2310      	movs	r3, #16
1000587e:	18f9      	adds	r1, r7, r3
10005880:	4805      	ldr	r0, [pc, #20]	; (10005898 <vfctprintf+0x40>)
10005882:	683b      	ldr	r3, [r7, #0]
10005884:	9300      	str	r3, [sp, #0]
10005886:	0023      	movs	r3, r4
10005888:	f7ff fb96 	bl	10004fb8 <_vsnprintf>
1000588c:	0003      	movs	r3, r0
1000588e:	0018      	movs	r0, r3
10005890:	46bd      	mov	sp, r7
10005892:	b007      	add	sp, #28
10005894:	bd90      	pop	{r4, r7, pc}
10005896:	46c0      	nop			; (mov r8, r8)
10005898:	10004083 	.word	0x10004083

1000589c <__aeabi_bits_init>:
1000589c:	4801      	ldr	r0, [pc, #4]	; (100058a4 <__aeabi_bits_init+0x8>)
1000589e:	2104      	movs	r1, #4
100058a0:	4b01      	ldr	r3, [pc, #4]	; (100058a8 <__aeabi_bits_init+0xc>)
100058a2:	4718      	bx	r3
100058a4:	200002d0 	.word	0x200002d0
100058a8:	100058fd 	.word	0x100058fd

100058ac <rom_func_lookup>:
100058ac:	b580      	push	{r7, lr}
100058ae:	b084      	sub	sp, #16
100058b0:	af00      	add	r7, sp, #0
100058b2:	6078      	str	r0, [r7, #4]
100058b4:	2318      	movs	r3, #24
100058b6:	881b      	ldrh	r3, [r3, #0]
100058b8:	60fb      	str	r3, [r7, #12]
100058ba:	2314      	movs	r3, #20
100058bc:	881b      	ldrh	r3, [r3, #0]
100058be:	60bb      	str	r3, [r7, #8]
100058c0:	6879      	ldr	r1, [r7, #4]
100058c2:	68ba      	ldr	r2, [r7, #8]
100058c4:	68fb      	ldr	r3, [r7, #12]
100058c6:	0010      	movs	r0, r2
100058c8:	4798      	blx	r3
100058ca:	0003      	movs	r3, r0
100058cc:	0018      	movs	r0, r3
100058ce:	46bd      	mov	sp, r7
100058d0:	b004      	add	sp, #16
100058d2:	bd80      	pop	{r7, pc}

100058d4 <rom_data_lookup>:
100058d4:	b580      	push	{r7, lr}
100058d6:	b084      	sub	sp, #16
100058d8:	af00      	add	r7, sp, #0
100058da:	6078      	str	r0, [r7, #4]
100058dc:	2318      	movs	r3, #24
100058de:	881b      	ldrh	r3, [r3, #0]
100058e0:	60fb      	str	r3, [r7, #12]
100058e2:	2316      	movs	r3, #22
100058e4:	881b      	ldrh	r3, [r3, #0]
100058e6:	60bb      	str	r3, [r7, #8]
100058e8:	6879      	ldr	r1, [r7, #4]
100058ea:	68ba      	ldr	r2, [r7, #8]
100058ec:	68fb      	ldr	r3, [r7, #12]
100058ee:	0010      	movs	r0, r2
100058f0:	4798      	blx	r3
100058f2:	0003      	movs	r3, r0
100058f4:	0018      	movs	r0, r3
100058f6:	46bd      	mov	sp, r7
100058f8:	b004      	add	sp, #16
100058fa:	bd80      	pop	{r7, pc}

100058fc <rom_funcs_lookup>:
100058fc:	b590      	push	{r4, r7, lr}
100058fe:	b085      	sub	sp, #20
10005900:	af00      	add	r7, sp, #0
10005902:	6078      	str	r0, [r7, #4]
10005904:	6039      	str	r1, [r7, #0]
10005906:	230f      	movs	r3, #15
10005908:	18fb      	adds	r3, r7, r3
1000590a:	2201      	movs	r2, #1
1000590c:	701a      	strb	r2, [r3, #0]
1000590e:	2300      	movs	r3, #0
10005910:	60bb      	str	r3, [r7, #8]
10005912:	e01b      	b.n	1000594c <rom_funcs_lookup+0x50>
10005914:	68bb      	ldr	r3, [r7, #8]
10005916:	009b      	lsls	r3, r3, #2
10005918:	687a      	ldr	r2, [r7, #4]
1000591a:	18d4      	adds	r4, r2, r3
1000591c:	68bb      	ldr	r3, [r7, #8]
1000591e:	009b      	lsls	r3, r3, #2
10005920:	687a      	ldr	r2, [r7, #4]
10005922:	18d3      	adds	r3, r2, r3
10005924:	681b      	ldr	r3, [r3, #0]
10005926:	0018      	movs	r0, r3
10005928:	f7ff ffc0 	bl	100058ac <rom_func_lookup>
1000592c:	0003      	movs	r3, r0
1000592e:	6023      	str	r3, [r4, #0]
10005930:	68bb      	ldr	r3, [r7, #8]
10005932:	009b      	lsls	r3, r3, #2
10005934:	687a      	ldr	r2, [r7, #4]
10005936:	18d3      	adds	r3, r2, r3
10005938:	681b      	ldr	r3, [r3, #0]
1000593a:	2b00      	cmp	r3, #0
1000593c:	d103      	bne.n	10005946 <rom_funcs_lookup+0x4a>
1000593e:	230f      	movs	r3, #15
10005940:	18fb      	adds	r3, r7, r3
10005942:	2200      	movs	r2, #0
10005944:	701a      	strb	r2, [r3, #0]
10005946:	68bb      	ldr	r3, [r7, #8]
10005948:	3301      	adds	r3, #1
1000594a:	60bb      	str	r3, [r7, #8]
1000594c:	68ba      	ldr	r2, [r7, #8]
1000594e:	683b      	ldr	r3, [r7, #0]
10005950:	429a      	cmp	r2, r3
10005952:	d3df      	bcc.n	10005914 <rom_funcs_lookup+0x18>
10005954:	230f      	movs	r3, #15
10005956:	18fb      	adds	r3, r7, r3
10005958:	781b      	ldrb	r3, [r3, #0]
1000595a:	0018      	movs	r0, r3
1000595c:	46bd      	mov	sp, r7
1000595e:	b005      	add	sp, #20
10005960:	bd90      	pop	{r4, r7, pc}
	...

10005964 <__wrap___aeabi_idiv>:
10005964:	4a14      	ldr	r2, [pc, #80]	; (100059b8 <divmod_s32s32_savestate+0x20>)
10005966:	6f93      	ldr	r3, [r2, #120]	; 0x78
10005968:	089b      	lsrs	r3, r3, #2
1000596a:	d215      	bcs.n	10005998 <divmod_s32s32_savestate>

1000596c <divmod_s32s32_unsafe>:
1000596c:	6690      	str	r0, [r2, #104]	; 0x68
1000596e:	66d1      	str	r1, [r2, #108]	; 0x6c
10005970:	2900      	cmp	r1, #0
10005972:	d005      	beq.n	10005980 <divmod_s32s32_unsafe+0x14>
10005974:	e7ff      	b.n	10005976 <divmod_s32s32_unsafe+0xa>
10005976:	e7ff      	b.n	10005978 <divmod_s32s32_unsafe+0xc>
10005978:	e7ff      	b.n	1000597a <divmod_s32s32_unsafe+0xe>
1000597a:	6f51      	ldr	r1, [r2, #116]	; 0x74
1000597c:	6f10      	ldr	r0, [r2, #112]	; 0x70
1000597e:	4770      	bx	lr
10005980:	b504      	push	{r2, lr}
10005982:	2180      	movs	r1, #128	; 0x80
10005984:	0609      	lsls	r1, r1, #24
10005986:	17c2      	asrs	r2, r0, #31
10005988:	4051      	eors	r1, r2
1000598a:	2800      	cmp	r0, #0
1000598c:	d000      	beq.n	10005990 <divmod_s32s32_unsafe+0x24>
1000598e:	43c8      	mvns	r0, r1
10005990:	f002 f9e6 	bl	10007d60 <____aeabi_idiv0_veneer>
10005994:	2100      	movs	r1, #0
10005996:	bd04      	pop	{r2, pc}

10005998 <divmod_s32s32_savestate>:
10005998:	6f93      	ldr	r3, [r2, #120]	; 0x78
1000599a:	085b      	lsrs	r3, r3, #1
1000599c:	d3fd      	bcc.n	1000599a <divmod_s32s32_savestate+0x2>
1000599e:	b5f0      	push	{r4, r5, r6, r7, lr}
100059a0:	6e94      	ldr	r4, [r2, #104]	; 0x68
100059a2:	6ed5      	ldr	r5, [r2, #108]	; 0x6c
100059a4:	6f57      	ldr	r7, [r2, #116]	; 0x74
100059a6:	6f16      	ldr	r6, [r2, #112]	; 0x70
100059a8:	f7ff ffe0 	bl	1000596c <divmod_s32s32_unsafe>
100059ac:	6694      	str	r4, [r2, #104]	; 0x68
100059ae:	66d5      	str	r5, [r2, #108]	; 0x6c
100059b0:	6757      	str	r7, [r2, #116]	; 0x74
100059b2:	6716      	str	r6, [r2, #112]	; 0x70
100059b4:	bdf0      	pop	{r4, r5, r6, r7, pc}
100059b6:	0000      	.short	0x0000
100059b8:	d0000000 	.word	0xd0000000

100059bc <__wrap___aeabi_uidiv>:
100059bc:	4a13      	ldr	r2, [pc, #76]	; (10005a0c <divmod_u32u32_savestate+0x20>)
100059be:	6f93      	ldr	r3, [r2, #120]	; 0x78
100059c0:	089b      	lsrs	r3, r3, #2
100059c2:	d213      	bcs.n	100059ec <divmod_u32u32_savestate>

100059c4 <divmod_u32u32_unsafe>:
100059c4:	6610      	str	r0, [r2, #96]	; 0x60
100059c6:	6651      	str	r1, [r2, #100]	; 0x64
100059c8:	2900      	cmp	r1, #0
100059ca:	d005      	beq.n	100059d8 <divmod_u32u32_unsafe+0x14>
100059cc:	e7ff      	b.n	100059ce <divmod_u32u32_unsafe+0xa>
100059ce:	e7ff      	b.n	100059d0 <divmod_u32u32_unsafe+0xc>
100059d0:	e7ff      	b.n	100059d2 <divmod_u32u32_unsafe+0xe>
100059d2:	6f51      	ldr	r1, [r2, #116]	; 0x74
100059d4:	6f10      	ldr	r0, [r2, #112]	; 0x70
100059d6:	4770      	bx	lr
100059d8:	b504      	push	{r2, lr}
100059da:	2800      	cmp	r0, #0
100059dc:	d001      	beq.n	100059e2 <divmod_u32u32_unsafe+0x1e>
100059de:	2000      	movs	r0, #0
100059e0:	43c0      	mvns	r0, r0
100059e2:	f002 f9bd 	bl	10007d60 <____aeabi_idiv0_veneer>
100059e6:	2100      	movs	r1, #0
100059e8:	bd04      	pop	{r2, pc}
100059ea:	46c0      	nop			; (mov r8, r8)

100059ec <divmod_u32u32_savestate>:
100059ec:	6f93      	ldr	r3, [r2, #120]	; 0x78
100059ee:	085b      	lsrs	r3, r3, #1
100059f0:	d3fd      	bcc.n	100059ee <divmod_u32u32_savestate+0x2>
100059f2:	b5f0      	push	{r4, r5, r6, r7, lr}
100059f4:	6e94      	ldr	r4, [r2, #104]	; 0x68
100059f6:	6ed5      	ldr	r5, [r2, #108]	; 0x6c
100059f8:	6f57      	ldr	r7, [r2, #116]	; 0x74
100059fa:	6f16      	ldr	r6, [r2, #112]	; 0x70
100059fc:	f7ff ffe2 	bl	100059c4 <divmod_u32u32_unsafe>
10005a00:	6694      	str	r4, [r2, #104]	; 0x68
10005a02:	66d5      	str	r5, [r2, #108]	; 0x6c
10005a04:	6757      	str	r7, [r2, #116]	; 0x74
10005a06:	6716      	str	r6, [r2, #112]	; 0x70
10005a08:	bdf0      	pop	{r4, r5, r6, r7, pc}
10005a0a:	0000      	.short	0x0000
10005a0c:	d0000000 	.word	0xd0000000

10005a10 <__wrap___aeabi_ldivmod>:
10005a10:	4694      	mov	ip, r2
10005a12:	4a4e      	ldr	r2, [pc, #312]	; (10005b4c <udiv0+0x1a>)
10005a14:	6f92      	ldr	r2, [r2, #120]	; 0x78
10005a16:	0892      	lsrs	r2, r2, #2
10005a18:	4662      	mov	r2, ip
10005a1a:	d201      	bcs.n	10005a20 <divmod_s64s64_savestate>
10005a1c:	e030      	b.n	10005a80 <divmod_s64s64_unsafe>
10005a1e:	46c0      	nop			; (mov r8, r8)

10005a20 <divmod_s64s64_savestate>:
10005a20:	b5f0      	push	{r4, r5, r6, r7, lr}
10005a22:	4e4a      	ldr	r6, [pc, #296]	; (10005b4c <udiv0+0x1a>)
10005a24:	6fb5      	ldr	r5, [r6, #120]	; 0x78
10005a26:	086d      	lsrs	r5, r5, #1
10005a28:	d3fc      	bcc.n	10005a24 <divmod_s64s64_savestate+0x4>
10005a2a:	6e34      	ldr	r4, [r6, #96]	; 0x60
10005a2c:	6e75      	ldr	r5, [r6, #100]	; 0x64
10005a2e:	6f77      	ldr	r7, [r6, #116]	; 0x74
10005a30:	6f36      	ldr	r6, [r6, #112]	; 0x70
10005a32:	f000 f825 	bl	10005a80 <divmod_s64s64_unsafe>
10005a36:	4694      	mov	ip, r2
10005a38:	4a44      	ldr	r2, [pc, #272]	; (10005b4c <udiv0+0x1a>)
10005a3a:	6614      	str	r4, [r2, #96]	; 0x60
10005a3c:	6655      	str	r5, [r2, #100]	; 0x64
10005a3e:	6757      	str	r7, [r2, #116]	; 0x74
10005a40:	6716      	str	r6, [r2, #112]	; 0x70
10005a42:	4662      	mov	r2, ip
10005a44:	bdf0      	pop	{r4, r5, r6, r7, pc}
10005a46:	46c0      	nop			; (mov r8, r8)

10005a48 <__wrap___aeabi_uldivmod>:
10005a48:	4694      	mov	ip, r2
10005a4a:	4a40      	ldr	r2, [pc, #256]	; (10005b4c <udiv0+0x1a>)
10005a4c:	6f92      	ldr	r2, [r2, #120]	; 0x78
10005a4e:	0892      	lsrs	r2, r2, #2
10005a50:	4662      	mov	r2, ip
10005a52:	d201      	bcs.n	10005a58 <divmod_u64u64_savestate>
10005a54:	e058      	b.n	10005b08 <divmod_u64u64_unsafe>
10005a56:	46c0      	nop			; (mov r8, r8)

10005a58 <divmod_u64u64_savestate>:
10005a58:	b5f0      	push	{r4, r5, r6, r7, lr}
10005a5a:	4e3c      	ldr	r6, [pc, #240]	; (10005b4c <udiv0+0x1a>)
10005a5c:	6fb5      	ldr	r5, [r6, #120]	; 0x78
10005a5e:	086d      	lsrs	r5, r5, #1
10005a60:	d3fc      	bcc.n	10005a5c <divmod_u64u64_savestate+0x4>
10005a62:	6e34      	ldr	r4, [r6, #96]	; 0x60
10005a64:	6e75      	ldr	r5, [r6, #100]	; 0x64
10005a66:	6f77      	ldr	r7, [r6, #116]	; 0x74
10005a68:	6f36      	ldr	r6, [r6, #112]	; 0x70
10005a6a:	f000 f84d 	bl	10005b08 <divmod_u64u64_unsafe>
10005a6e:	4694      	mov	ip, r2
10005a70:	4a36      	ldr	r2, [pc, #216]	; (10005b4c <udiv0+0x1a>)
10005a72:	6614      	str	r4, [r2, #96]	; 0x60
10005a74:	6655      	str	r5, [r2, #100]	; 0x64
10005a76:	6757      	str	r7, [r2, #116]	; 0x74
10005a78:	6716      	str	r6, [r2, #112]	; 0x70
10005a7a:	4662      	mov	r2, ip
10005a7c:	bdf0      	pop	{r4, r5, r6, r7, pc}
10005a7e:	46c0      	nop			; (mov r8, r8)

10005a80 <divmod_s64s64_unsafe>:
10005a80:	2b00      	cmp	r3, #0
10005a82:	db24      	blt.n	10005ace <l41_1+0x26>
10005a84:	d011      	beq.n	10005aaa <l41_1+0x2>
10005a86:	2900      	cmp	r1, #0
10005a88:	da3e      	bge.n	10005b08 <divmod_u64u64_unsafe>
10005a8a:	b500      	push	{lr}
10005a8c:	43c9      	mvns	r1, r1
10005a8e:	4240      	negs	r0, r0
10005a90:	d100      	bne.n	10005a94 <l39_1>
10005a92:	3101      	adds	r1, #1

10005a94 <l39_1>:
10005a94:	f000 f838 	bl	10005b08 <divmod_u64u64_unsafe>
10005a98:	43c9      	mvns	r1, r1
10005a9a:	4240      	negs	r0, r0
10005a9c:	d100      	bne.n	10005aa0 <l40_1>
10005a9e:	3101      	adds	r1, #1

10005aa0 <l40_1>:
10005aa0:	43db      	mvns	r3, r3
10005aa2:	4252      	negs	r2, r2
10005aa4:	d100      	bne.n	10005aa8 <l41_1>
10005aa6:	3301      	adds	r3, #1

10005aa8 <l41_1>:
10005aa8:	bd00      	pop	{pc}
10005aaa:	2a00      	cmp	r2, #0
10005aac:	d1eb      	bne.n	10005a86 <divmod_s64s64_unsafe+0x6>
10005aae:	2800      	cmp	r0, #0
10005ab0:	d101      	bne.n	10005ab6 <l41_1+0xe>
10005ab2:	2900      	cmp	r1, #0
10005ab4:	d005      	beq.n	10005ac2 <l41_1+0x1a>
10005ab6:	2000      	movs	r0, #0
10005ab8:	0fc9      	lsrs	r1, r1, #31
10005aba:	07c9      	lsls	r1, r1, #31
10005abc:	d101      	bne.n	10005ac2 <l41_1+0x1a>
10005abe:	43c0      	mvns	r0, r0
10005ac0:	0841      	lsrs	r1, r0, #1
10005ac2:	b500      	push	{lr}
10005ac4:	f002 f944 	bl	10007d50 <____aeabi_ldiv0_veneer>
10005ac8:	2200      	movs	r2, #0
10005aca:	2300      	movs	r3, #0
10005acc:	bd00      	pop	{pc}
10005ace:	b500      	push	{lr}
10005ad0:	2900      	cmp	r1, #0
10005ad2:	db0a      	blt.n	10005aea <l43_1+0x2>
10005ad4:	43db      	mvns	r3, r3
10005ad6:	4252      	negs	r2, r2
10005ad8:	d100      	bne.n	10005adc <l42_1>
10005ada:	3301      	adds	r3, #1

10005adc <l42_1>:
10005adc:	f000 f814 	bl	10005b08 <divmod_u64u64_unsafe>
10005ae0:	43c9      	mvns	r1, r1
10005ae2:	4240      	negs	r0, r0
10005ae4:	d100      	bne.n	10005ae8 <l43_1>
10005ae6:	3101      	adds	r1, #1

10005ae8 <l43_1>:
10005ae8:	bd00      	pop	{pc}
10005aea:	43c9      	mvns	r1, r1
10005aec:	4240      	negs	r0, r0
10005aee:	d100      	bne.n	10005af2 <l44_1>
10005af0:	3101      	adds	r1, #1

10005af2 <l44_1>:
10005af2:	43db      	mvns	r3, r3
10005af4:	4252      	negs	r2, r2
10005af6:	d100      	bne.n	10005afa <l45_1>
10005af8:	3301      	adds	r3, #1

10005afa <l45_1>:
10005afa:	f000 f805 	bl	10005b08 <divmod_u64u64_unsafe>
10005afe:	43db      	mvns	r3, r3
10005b00:	4252      	negs	r2, r2
10005b02:	d100      	bne.n	10005b06 <l46_1>
10005b04:	3301      	adds	r3, #1

10005b06 <l46_1>:
10005b06:	bd00      	pop	{pc}

10005b08 <divmod_u64u64_unsafe>:
10005b08:	2900      	cmp	r1, #0
10005b0a:	d123      	bne.n	10005b54 <y64>
10005b0c:	2b00      	cmp	r3, #0
10005b0e:	d118      	bne.n	10005b42 <udiv0+0x10>
10005b10:	2a00      	cmp	r2, #0
10005b12:	d00c      	beq.n	10005b2e <divmod_u64u64_unsafe+0x26>
10005b14:	46bc      	mov	ip, r7
10005b16:	4f0d      	ldr	r7, [pc, #52]	; (10005b4c <udiv0+0x1a>)
10005b18:	6638      	str	r0, [r7, #96]	; 0x60
10005b1a:	667a      	str	r2, [r7, #100]	; 0x64
10005b1c:	2100      	movs	r1, #0
10005b1e:	2300      	movs	r3, #0
10005b20:	e7ff      	b.n	10005b22 <divmod_u64u64_unsafe+0x1a>
10005b22:	e7ff      	b.n	10005b24 <divmod_u64u64_unsafe+0x1c>
10005b24:	e7ff      	b.n	10005b26 <divmod_u64u64_unsafe+0x1e>
10005b26:	6f7a      	ldr	r2, [r7, #116]	; 0x74
10005b28:	6f38      	ldr	r0, [r7, #112]	; 0x70
10005b2a:	4667      	mov	r7, ip
10005b2c:	4770      	bx	lr
10005b2e:	2800      	cmp	r0, #0
10005b30:	d001      	beq.n	10005b36 <udiv0+0x4>

10005b32 <udiv0>:
10005b32:	4807      	ldr	r0, [pc, #28]	; (10005b50 <udiv0+0x1e>)
10005b34:	0001      	movs	r1, r0
10005b36:	b500      	push	{lr}
10005b38:	f002 f90a 	bl	10007d50 <____aeabi_ldiv0_veneer>
10005b3c:	2200      	movs	r2, #0
10005b3e:	2300      	movs	r3, #0
10005b40:	bd00      	pop	{pc}
10005b42:	0002      	movs	r2, r0
10005b44:	000b      	movs	r3, r1
10005b46:	2000      	movs	r0, #0
10005b48:	2100      	movs	r1, #0
10005b4a:	4770      	bx	lr
10005b4c:	d0000000 	.word	0xd0000000
10005b50:	ffffffff 	.word	0xffffffff

10005b54 <y64>:
10005b54:	2b00      	cmp	r3, #0
10005b56:	d000      	beq.n	10005b5a <y64+0x6>
10005b58:	e0bd      	b.n	10005cd6 <y64_x48>
10005b5a:	0c13      	lsrs	r3, r2, #16
10005b5c:	d126      	bne.n	10005bac <y64_x32>
10005b5e:	2a00      	cmp	r2, #0
10005b60:	d0e7      	beq.n	10005b32 <udiv0>
10005b62:	b480      	push	{r7}
10005b64:	4f10      	ldr	r7, [pc, #64]	; (10005ba8 <y64+0x54>)
10005b66:	6639      	str	r1, [r7, #96]	; 0x60
10005b68:	667a      	str	r2, [r7, #100]	; 0x64
10005b6a:	e7ff      	b.n	10005b6c <y64+0x18>
10005b6c:	e7ff      	b.n	10005b6e <y64+0x1a>
10005b6e:	b430      	push	{r4, r5}
10005b70:	0c04      	lsrs	r4, r0, #16
10005b72:	6f7b      	ldr	r3, [r7, #116]	; 0x74
10005b74:	6f39      	ldr	r1, [r7, #112]	; 0x70
10005b76:	041b      	lsls	r3, r3, #16
10005b78:	4323      	orrs	r3, r4
10005b7a:	663b      	str	r3, [r7, #96]	; 0x60
10005b7c:	e7ff      	b.n	10005b7e <y64+0x2a>
10005b7e:	e7ff      	b.n	10005b80 <y64+0x2c>
10005b80:	e7ff      	b.n	10005b82 <y64+0x2e>
10005b82:	46c0      	nop			; (mov r8, r8)
10005b84:	b284      	uxth	r4, r0
10005b86:	6f7b      	ldr	r3, [r7, #116]	; 0x74
10005b88:	6f3d      	ldr	r5, [r7, #112]	; 0x70
10005b8a:	041b      	lsls	r3, r3, #16
10005b8c:	4323      	orrs	r3, r4
10005b8e:	663b      	str	r3, [r7, #96]	; 0x60
10005b90:	e7ff      	b.n	10005b92 <y64+0x3e>
10005b92:	e7ff      	b.n	10005b94 <y64+0x40>
10005b94:	46c0      	nop			; (mov r8, r8)
10005b96:	2300      	movs	r3, #0
10005b98:	042c      	lsls	r4, r5, #16
10005b9a:	0c2d      	lsrs	r5, r5, #16
10005b9c:	6f7a      	ldr	r2, [r7, #116]	; 0x74
10005b9e:	6f38      	ldr	r0, [r7, #112]	; 0x70
10005ba0:	1900      	adds	r0, r0, r4
10005ba2:	4169      	adcs	r1, r5
10005ba4:	bcb0      	pop	{r4, r5, r7}
10005ba6:	4770      	bx	lr
10005ba8:	d0000000 	.word	0xd0000000

10005bac <y64_x32>:
10005bac:	b5f0      	push	{r4, r5, r6, r7, lr}
10005bae:	4694      	mov	ip, r2
10005bb0:	2500      	movs	r5, #0
10005bb2:	0e14      	lsrs	r4, r2, #24
10005bb4:	d101      	bne.n	10005bba <y64_x32+0xe>
10005bb6:	0212      	lsls	r2, r2, #8
10005bb8:	3508      	adds	r5, #8
10005bba:	0f14      	lsrs	r4, r2, #28
10005bbc:	d101      	bne.n	10005bc2 <y64_x32+0x16>
10005bbe:	0112      	lsls	r2, r2, #4
10005bc0:	3504      	adds	r5, #4
10005bc2:	0f94      	lsrs	r4, r2, #30
10005bc4:	d101      	bne.n	10005bca <y64_x32+0x1e>
10005bc6:	0092      	lsls	r2, r2, #2
10005bc8:	3502      	adds	r5, #2
10005bca:	0fd4      	lsrs	r4, r2, #31
10005bcc:	d101      	bne.n	10005bd2 <y64_x32+0x26>
10005bce:	0052      	lsls	r2, r2, #1
10005bd0:	3501      	adds	r5, #1
10005bd2:	0bd4      	lsrs	r4, r2, #15
10005bd4:	3401      	adds	r4, #1
10005bd6:	4f25      	ldr	r7, [pc, #148]	; (10005c6c <y64_x32+0xc0>)
10005bd8:	667c      	str	r4, [r7, #100]	; 0x64
10005bda:	4c25      	ldr	r4, [pc, #148]	; (10005c70 <y64_x32+0xc4>)
10005bdc:	663c      	str	r4, [r7, #96]	; 0x60
10005bde:	0c0e      	lsrs	r6, r1, #16
10005be0:	b293      	uxth	r3, r2
10005be2:	e7ff      	b.n	10005be4 <y64_x32+0x38>
10005be4:	e7ff      	b.n	10005be6 <y64_x32+0x3a>
10005be6:	e7ff      	b.n	10005be8 <y64_x32+0x3c>
10005be8:	6f3c      	ldr	r4, [r7, #112]	; 0x70
10005bea:	4366      	muls	r6, r4
10005bec:	0c36      	lsrs	r6, r6, #16
10005bee:	0377      	lsls	r7, r6, #13
10005bf0:	46be      	mov	lr, r7
10005bf2:	4373      	muls	r3, r6
10005bf4:	0bdf      	lsrs	r7, r3, #15
10005bf6:	045b      	lsls	r3, r3, #17
10005bf8:	1ac0      	subs	r0, r0, r3
10005bfa:	41b9      	sbcs	r1, r7
10005bfc:	0c13      	lsrs	r3, r2, #16
10005bfe:	4373      	muls	r3, r6
10005c00:	18db      	adds	r3, r3, r3
10005c02:	1ac9      	subs	r1, r1, r3
10005c04:	08ce      	lsrs	r6, r1, #3
10005c06:	4366      	muls	r6, r4
10005c08:	0c36      	lsrs	r6, r6, #16
10005c0a:	44b6      	add	lr, r6
10005c0c:	b293      	uxth	r3, r2
10005c0e:	4373      	muls	r3, r6
10005c10:	0f1f      	lsrs	r7, r3, #28
10005c12:	011b      	lsls	r3, r3, #4
10005c14:	1ac0      	subs	r0, r0, r3
10005c16:	41b9      	sbcs	r1, r7
10005c18:	0c13      	lsrs	r3, r2, #16
10005c1a:	4373      	muls	r3, r6
10005c1c:	0b1f      	lsrs	r7, r3, #12
10005c1e:	051b      	lsls	r3, r3, #20
10005c20:	1ac0      	subs	r0, r0, r3
10005c22:	41b9      	sbcs	r1, r7
10005c24:	0d86      	lsrs	r6, r0, #22
10005c26:	028f      	lsls	r7, r1, #10
10005c28:	433e      	orrs	r6, r7
10005c2a:	4366      	muls	r6, r4
10005c2c:	0c36      	lsrs	r6, r6, #16
10005c2e:	2d09      	cmp	r5, #9
10005c30:	db24      	blt.n	10005c7c <last0>
10005c32:	0a52      	lsrs	r2, r2, #9
10005c34:	4372      	muls	r2, r6
10005c36:	1a80      	subs	r0, r0, r2
10005c38:	0377      	lsls	r7, r6, #13
10005c3a:	0a46      	lsrs	r6, r0, #9
10005c3c:	4366      	muls	r6, r4
10005c3e:	0c36      	lsrs	r6, r6, #16
10005c40:	2316      	movs	r3, #22
10005c42:	1b5b      	subs	r3, r3, r5
10005c44:	40de      	lsrs	r6, r3
10005c46:	40df      	lsrs	r7, r3
10005c48:	19bf      	adds	r7, r7, r6
10005c4a:	4664      	mov	r4, ip
10005c4c:	4366      	muls	r6, r4
10005c4e:	1b82      	subs	r2, r0, r6
10005c50:	4670      	mov	r0, lr
10005c52:	3504      	adds	r5, #4
10005c54:	3306      	adds	r3, #6
10005c56:	0001      	movs	r1, r0
10005c58:	40d9      	lsrs	r1, r3
10005c5a:	40a8      	lsls	r0, r5
10005c5c:	19c0      	adds	r0, r0, r7
10005c5e:	d300      	bcc.n	10005c62 <y64_x32+0xb6>
10005c60:	3101      	adds	r1, #1
10005c62:	42a2      	cmp	r2, r4
10005c64:	d206      	bcs.n	10005c74 <y64_x32+0xc8>
10005c66:	2300      	movs	r3, #0
10005c68:	bdf0      	pop	{r4, r5, r6, r7, pc}
10005c6a:	0000      	.short	0x0000
10005c6c:	d0000000 	.word	0xd0000000
10005c70:	ffffffff 	.word	0xffffffff
10005c74:	1b12      	subs	r2, r2, r4
10005c76:	3001      	adds	r0, #1
10005c78:	d3f3      	bcc.n	10005c62 <y64_x32+0xb6>
10005c7a:	e7f1      	b.n	10005c60 <y64_x32+0xb4>

10005c7c <last0>:
10005c7c:	2709      	movs	r7, #9
10005c7e:	1b7f      	subs	r7, r7, r5
10005c80:	40fe      	lsrs	r6, r7
10005c82:	4664      	mov	r4, ip
10005c84:	b2a2      	uxth	r2, r4
10005c86:	4372      	muls	r2, r6
10005c88:	1a80      	subs	r0, r0, r2
10005c8a:	d200      	bcs.n	10005c8e <last0+0x12>
10005c8c:	3901      	subs	r1, #1
10005c8e:	0c22      	lsrs	r2, r4, #16
10005c90:	4372      	muls	r2, r6
10005c92:	0c13      	lsrs	r3, r2, #16
10005c94:	0412      	lsls	r2, r2, #16
10005c96:	1a82      	subs	r2, r0, r2
10005c98:	4199      	sbcs	r1, r3
10005c9a:	000b      	movs	r3, r1
10005c9c:	4670      	mov	r0, lr
10005c9e:	3504      	adds	r5, #4
10005ca0:	3713      	adds	r7, #19
10005ca2:	0001      	movs	r1, r0
10005ca4:	40f9      	lsrs	r1, r7
10005ca6:	40a8      	lsls	r0, r5
10005ca8:	1980      	adds	r0, r0, r6
10005caa:	d300      	bcc.n	10005cae <last0+0x32>
10005cac:	3101      	adds	r1, #1
10005cae:	2b00      	cmp	r3, #0
10005cb0:	d102      	bne.n	10005cb8 <last0+0x3c>
10005cb2:	42a2      	cmp	r2, r4
10005cb4:	d20a      	bcs.n	10005ccc <last0+0x50>
10005cb6:	bdf0      	pop	{r4, r5, r6, r7, pc}
10005cb8:	3001      	adds	r0, #1
10005cba:	d300      	bcc.n	10005cbe <last0+0x42>
10005cbc:	3101      	adds	r1, #1
10005cbe:	1b12      	subs	r2, r2, r4
10005cc0:	d2fa      	bcs.n	10005cb8 <last0+0x3c>
10005cc2:	3b01      	subs	r3, #1
10005cc4:	d1f8      	bne.n	10005cb8 <last0+0x3c>
10005cc6:	42a2      	cmp	r2, r4
10005cc8:	d200      	bcs.n	10005ccc <last0+0x50>
10005cca:	bdf0      	pop	{r4, r5, r6, r7, pc}
10005ccc:	3001      	adds	r0, #1
10005cce:	d300      	bcc.n	10005cd2 <last0+0x56>
10005cd0:	3101      	adds	r1, #1
10005cd2:	1b12      	subs	r2, r2, r4
10005cd4:	e7f7      	b.n	10005cc6 <last0+0x4a>

10005cd6 <y64_x48>:
10005cd6:	b5f0      	push	{r4, r5, r6, r7, lr}
10005cd8:	0c1c      	lsrs	r4, r3, #16
10005cda:	d000      	beq.n	10005cde <y64_x48+0x8>
10005cdc:	e080      	b.n	10005de0 <y64_x64>
10005cde:	b40c      	push	{r2, r3}
10005ce0:	2500      	movs	r5, #0
10005ce2:	0a1c      	lsrs	r4, r3, #8
10005ce4:	d104      	bne.n	10005cf0 <y64_x48+0x1a>
10005ce6:	021b      	lsls	r3, r3, #8
10005ce8:	0e16      	lsrs	r6, r2, #24
10005cea:	4333      	orrs	r3, r6
10005cec:	0212      	lsls	r2, r2, #8
10005cee:	3508      	adds	r5, #8
10005cf0:	0b1c      	lsrs	r4, r3, #12
10005cf2:	d104      	bne.n	10005cfe <y64_x48+0x28>
10005cf4:	011b      	lsls	r3, r3, #4
10005cf6:	0f16      	lsrs	r6, r2, #28
10005cf8:	4333      	orrs	r3, r6
10005cfa:	0112      	lsls	r2, r2, #4
10005cfc:	3504      	adds	r5, #4
10005cfe:	0b9c      	lsrs	r4, r3, #14
10005d00:	d104      	bne.n	10005d0c <y64_x48+0x36>
10005d02:	009b      	lsls	r3, r3, #2
10005d04:	0f96      	lsrs	r6, r2, #30
10005d06:	4333      	orrs	r3, r6
10005d08:	0092      	lsls	r2, r2, #2
10005d0a:	3502      	adds	r5, #2
10005d0c:	0bdc      	lsrs	r4, r3, #15
10005d0e:	d102      	bne.n	10005d16 <y64_x48+0x40>
10005d10:	1892      	adds	r2, r2, r2
10005d12:	415b      	adcs	r3, r3
10005d14:	3501      	adds	r5, #1
10005d16:	001c      	movs	r4, r3
10005d18:	1897      	adds	r7, r2, r2
10005d1a:	4164      	adcs	r4, r4
10005d1c:	3401      	adds	r4, #1
10005d1e:	4f46      	ldr	r7, [pc, #280]	; (10005e38 <y64_x64+0x58>)
10005d20:	667c      	str	r4, [r7, #100]	; 0x64
10005d22:	4c46      	ldr	r4, [pc, #280]	; (10005e3c <y64_x64+0x5c>)
10005d24:	663c      	str	r4, [r7, #96]	; 0x60
10005d26:	0c0e      	lsrs	r6, r1, #16
10005d28:	e7ff      	b.n	10005d2a <y64_x48+0x54>
10005d2a:	e7ff      	b.n	10005d2c <y64_x48+0x56>
10005d2c:	e7ff      	b.n	10005d2e <y64_x48+0x58>
10005d2e:	46c0      	nop			; (mov r8, r8)
10005d30:	6f3c      	ldr	r4, [r7, #112]	; 0x70
10005d32:	4366      	muls	r6, r4
10005d34:	0c36      	lsrs	r6, r6, #16
10005d36:	0377      	lsls	r7, r6, #13
10005d38:	46be      	mov	lr, r7
10005d3a:	b297      	uxth	r7, r2
10005d3c:	4377      	muls	r7, r6
10005d3e:	1bc0      	subs	r0, r0, r7
10005d40:	d200      	bcs.n	10005d44 <y64_x48+0x6e>
10005d42:	3901      	subs	r1, #1
10005d44:	1bc0      	subs	r0, r0, r7
10005d46:	d200      	bcs.n	10005d4a <y64_x48+0x74>
10005d48:	3901      	subs	r1, #1
10005d4a:	b29f      	uxth	r7, r3
10005d4c:	4377      	muls	r7, r6
10005d4e:	1bc9      	subs	r1, r1, r7
10005d50:	1bc9      	subs	r1, r1, r7
10005d52:	0c17      	lsrs	r7, r2, #16
10005d54:	4377      	muls	r7, r6
10005d56:	047e      	lsls	r6, r7, #17
10005d58:	0bff      	lsrs	r7, r7, #15
10005d5a:	1b80      	subs	r0, r0, r6
10005d5c:	41b9      	sbcs	r1, r7
10005d5e:	08ce      	lsrs	r6, r1, #3
10005d60:	4366      	muls	r6, r4
10005d62:	0c36      	lsrs	r6, r6, #16
10005d64:	2d0c      	cmp	r5, #12
10005d66:	db33      	blt.n	10005dd0 <last1>
10005d68:	44b6      	add	lr, r6
10005d6a:	0b12      	lsrs	r2, r2, #12
10005d6c:	051f      	lsls	r7, r3, #20
10005d6e:	433a      	orrs	r2, r7
10005d70:	0b1b      	lsrs	r3, r3, #12
10005d72:	b297      	uxth	r7, r2
10005d74:	4377      	muls	r7, r6
10005d76:	1bc0      	subs	r0, r0, r7
10005d78:	d200      	bcs.n	10005d7c <y64_x48+0xa6>
10005d7a:	3901      	subs	r1, #1
10005d7c:	b29f      	uxth	r7, r3
10005d7e:	4377      	muls	r7, r6
10005d80:	1bc9      	subs	r1, r1, r7
10005d82:	0c17      	lsrs	r7, r2, #16
10005d84:	4377      	muls	r7, r6
10005d86:	043e      	lsls	r6, r7, #16
10005d88:	0c3f      	lsrs	r7, r7, #16
10005d8a:	1b80      	subs	r0, r0, r6
10005d8c:	41b9      	sbcs	r1, r7
10005d8e:	0d86      	lsrs	r6, r0, #22
10005d90:	028f      	lsls	r7, r1, #10
10005d92:	433e      	orrs	r6, r7
10005d94:	4366      	muls	r6, r4
10005d96:	2729      	movs	r7, #41	; 0x29
10005d98:	1b7f      	subs	r7, r7, r5
10005d9a:	40fe      	lsrs	r6, r7
10005d9c:	3d0c      	subs	r5, #12
10005d9e:	4677      	mov	r7, lr
10005da0:	40af      	lsls	r7, r5
10005da2:	19bf      	adds	r7, r7, r6
10005da4:	bc30      	pop	{r4, r5}
10005da6:	b2a2      	uxth	r2, r4
10005da8:	b2ab      	uxth	r3, r5
10005daa:	4372      	muls	r2, r6
10005dac:	4373      	muls	r3, r6
10005dae:	1a80      	subs	r0, r0, r2
10005db0:	4199      	sbcs	r1, r3
10005db2:	0c22      	lsrs	r2, r4, #16
10005db4:	4372      	muls	r2, r6
10005db6:	0c13      	lsrs	r3, r2, #16
10005db8:	0412      	lsls	r2, r2, #16
10005dba:	1a80      	subs	r0, r0, r2
10005dbc:	4199      	sbcs	r1, r3
10005dbe:	0002      	movs	r2, r0
10005dc0:	000b      	movs	r3, r1
10005dc2:	3701      	adds	r7, #1
10005dc4:	1b00      	subs	r0, r0, r4
10005dc6:	41a9      	sbcs	r1, r5
10005dc8:	d2f9      	bcs.n	10005dbe <y64_x48+0xe8>
10005dca:	1e78      	subs	r0, r7, #1
10005dcc:	2100      	movs	r1, #0
10005dce:	bdf0      	pop	{r4, r5, r6, r7, pc}

10005dd0 <last1>:
10005dd0:	270c      	movs	r7, #12
10005dd2:	1b7f      	subs	r7, r7, r5
10005dd4:	40fe      	lsrs	r6, r7
10005dd6:	4677      	mov	r7, lr
10005dd8:	0b7f      	lsrs	r7, r7, #13
10005dda:	40af      	lsls	r7, r5
10005ddc:	19ff      	adds	r7, r7, r7
10005dde:	e7e0      	b.n	10005da2 <y64_x48+0xcc>

10005de0 <y64_x64>:
10005de0:	2400      	movs	r4, #0
10005de2:	1c5d      	adds	r5, r3, #1
10005de4:	d007      	beq.n	10005df6 <y64_x64+0x16>
10005de6:	4f14      	ldr	r7, [pc, #80]	; (10005e38 <y64_x64+0x58>)
10005de8:	667d      	str	r5, [r7, #100]	; 0x64
10005dea:	6639      	str	r1, [r7, #96]	; 0x60
10005dec:	e7ff      	b.n	10005dee <y64_x64+0xe>
10005dee:	e7ff      	b.n	10005df0 <y64_x64+0x10>
10005df0:	e7ff      	b.n	10005df2 <y64_x64+0x12>
10005df2:	e7ff      	b.n	10005df4 <y64_x64+0x14>
10005df4:	6f3c      	ldr	r4, [r7, #112]	; 0x70
10005df6:	b295      	uxth	r5, r2
10005df8:	b29e      	uxth	r6, r3
10005dfa:	4365      	muls	r5, r4
10005dfc:	4366      	muls	r6, r4
10005dfe:	1b40      	subs	r0, r0, r5
10005e00:	41b1      	sbcs	r1, r6
10005e02:	0c15      	lsrs	r5, r2, #16
10005e04:	0c1e      	lsrs	r6, r3, #16
10005e06:	4365      	muls	r5, r4
10005e08:	4366      	muls	r6, r4
10005e0a:	0436      	lsls	r6, r6, #16
10005e0c:	0c2f      	lsrs	r7, r5, #16
10005e0e:	433e      	orrs	r6, r7
10005e10:	042d      	lsls	r5, r5, #16
10005e12:	1b40      	subs	r0, r0, r5
10005e14:	41b1      	sbcs	r1, r6
10005e16:	4299      	cmp	r1, r3
10005e18:	d204      	bcs.n	10005e24 <y64_x64+0x44>
10005e1a:	0002      	movs	r2, r0
10005e1c:	000b      	movs	r3, r1
10005e1e:	0020      	movs	r0, r4
10005e20:	2100      	movs	r1, #0
10005e22:	bdf0      	pop	{r4, r5, r6, r7, pc}
10005e24:	d101      	bne.n	10005e2a <y64_x64+0x4a>
10005e26:	4290      	cmp	r0, r2
10005e28:	d3f7      	bcc.n	10005e1a <y64_x64+0x3a>
10005e2a:	1a80      	subs	r0, r0, r2
10005e2c:	4199      	sbcs	r1, r3
10005e2e:	3401      	adds	r4, #1
10005e30:	4299      	cmp	r1, r3
10005e32:	d3f2      	bcc.n	10005e1a <y64_x64+0x3a>
10005e34:	e7f6      	b.n	10005e24 <y64_x64+0x44>
10005e36:	0000      	.short	0x0000
10005e38:	d0000000 	.word	0xd0000000
10005e3c:	ffffffff 	.word	0xffffffff

10005e40 <__wrap___aeabi_drsub>:
10005e40:	4048      	eors	r0, r1
10005e42:	4041      	eors	r1, r0
10005e44:	4048      	eors	r0, r1

10005e46 <__wrap___aeabi_dsub>:
10005e46:	b418      	push	{r3, r4}
10005e48:	4b11      	ldr	r3, [pc, #68]	; (10005e90 <__wrap___aeabi_dmul+0x14>)
10005e4a:	685b      	ldr	r3, [r3, #4]
10005e4c:	46fc      	mov	ip, pc
10005e4e:	9301      	str	r3, [sp, #4]
10005e50:	bd08      	pop	{r3, pc}
10005e52:	df04      	.short	0xdf04
10005e54:	10006163 	.word	0x10006163

10005e58 <__wrap___aeabi_dadd>:
10005e58:	b418      	push	{r3, r4}
10005e5a:	4b0d      	ldr	r3, [pc, #52]	; (10005e90 <__wrap___aeabi_dmul+0x14>)
10005e5c:	681b      	ldr	r3, [r3, #0]
10005e5e:	46fc      	mov	ip, pc
10005e60:	9301      	str	r3, [sp, #4]
10005e62:	bd08      	pop	{r3, pc}
10005e64:	616ddf00 	.word	0x616ddf00
10005e68:	1000      	.short	0x1000

10005e6a <__wrap___aeabi_ddiv>:
10005e6a:	b418      	push	{r3, r4}
10005e6c:	4b08      	ldr	r3, [pc, #32]	; (10005e90 <__wrap___aeabi_dmul+0x14>)
10005e6e:	68db      	ldr	r3, [r3, #12]
10005e70:	46fc      	mov	ip, pc
10005e72:	9301      	str	r3, [sp, #4]
10005e74:	bd08      	pop	{r3, pc}
10005e76:	df0c      	.short	0xdf0c
10005e78:	10006425 	.word	0x10006425

10005e7c <__wrap___aeabi_dmul>:
10005e7c:	b418      	push	{r3, r4}
10005e7e:	4b04      	ldr	r3, [pc, #16]	; (10005e90 <__wrap___aeabi_dmul+0x14>)
10005e80:	689b      	ldr	r3, [r3, #8]
10005e82:	46fc      	mov	ip, pc
10005e84:	9301      	str	r3, [sp, #4]
10005e86:	bd08      	pop	{r3, pc}
10005e88:	62c9df08 	.word	0x62c9df08
10005e8c:	00001000 	.word	0x00001000
10005e90:	20001a64 	.word	0x20001a64

10005e94 <__wrap___aeabi_cdrcmple>:
10005e94:	b5ff      	push	{r0, r1, r2, r3, r4, r5, r6, r7, lr}
10005e96:	4050      	eors	r0, r2
10005e98:	4042      	eors	r2, r0
10005e9a:	4050      	eors	r0, r2
10005e9c:	4059      	eors	r1, r3
10005e9e:	404b      	eors	r3, r1
10005ea0:	4059      	eors	r1, r3
10005ea2:	e000      	b.n	10005ea6 <__aeabi_dfcmple_guts>

10005ea4 <__wrap___aeabi_cdcmpeq>:
10005ea4:	b5ff      	push	{r0, r1, r2, r3, r4, r5, r6, r7, lr}

10005ea6 <__aeabi_dfcmple_guts>:
10005ea6:	4f15      	ldr	r7, [pc, #84]	; (10005efc <__aeabi_dfcmple_guts+0x56>)
10005ea8:	004c      	lsls	r4, r1, #1
10005eaa:	0d64      	lsrs	r4, r4, #21
10005eac:	d003      	beq.n	10005eb6 <__aeabi_dfcmple_guts+0x10>
10005eae:	42bc      	cmp	r4, r7
10005eb0:	d104      	bne.n	10005ebc <__aeabi_dfcmple_guts+0x16>
10005eb2:	030c      	lsls	r4, r1, #12
10005eb4:	d814      	bhi.n	10005ee0 <__aeabi_dfcmple_guts+0x3a>
10005eb6:	2000      	movs	r0, #0
10005eb8:	0d09      	lsrs	r1, r1, #20
10005eba:	0509      	lsls	r1, r1, #20
10005ebc:	005c      	lsls	r4, r3, #1
10005ebe:	0d64      	lsrs	r4, r4, #21
10005ec0:	d003      	beq.n	10005eca <__aeabi_dfcmple_guts+0x24>
10005ec2:	42bc      	cmp	r4, r7
10005ec4:	d104      	bne.n	10005ed0 <__aeabi_dfcmple_guts+0x2a>
10005ec6:	031c      	lsls	r4, r3, #12
10005ec8:	d80a      	bhi.n	10005ee0 <__aeabi_dfcmple_guts+0x3a>
10005eca:	2200      	movs	r2, #0
10005ecc:	0d1b      	lsrs	r3, r3, #20
10005ece:	051b      	lsls	r3, r3, #20
10005ed0:	2601      	movs	r6, #1
10005ed2:	404b      	eors	r3, r1
10005ed4:	d409      	bmi.n	10005eea <__aeabi_dfcmple_guts+0x44>
10005ed6:	404b      	eors	r3, r1
10005ed8:	d503      	bpl.n	10005ee2 <__aeabi_dfcmple_guts+0x3c>
10005eda:	428b      	cmp	r3, r1
10005edc:	d100      	bne.n	10005ee0 <__aeabi_dfcmple_guts+0x3a>
10005ede:	4282      	cmp	r2, r0
10005ee0:	bdff      	pop	{r0, r1, r2, r3, r4, r5, r6, r7, pc}
10005ee2:	4299      	cmp	r1, r3
10005ee4:	d1fc      	bne.n	10005ee0 <__aeabi_dfcmple_guts+0x3a>
10005ee6:	4290      	cmp	r0, r2
10005ee8:	bdff      	pop	{r0, r1, r2, r3, r4, r5, r6, r7, pc}
10005eea:	430b      	orrs	r3, r1
10005eec:	18db      	adds	r3, r3, r3
10005eee:	4303      	orrs	r3, r0
10005ef0:	4313      	orrs	r3, r2
10005ef2:	d0f5      	beq.n	10005ee0 <__aeabi_dfcmple_guts+0x3a>
10005ef4:	43c9      	mvns	r1, r1
10005ef6:	1849      	adds	r1, r1, r1
10005ef8:	bdff      	pop	{r0, r1, r2, r3, r4, r5, r6, r7, pc}
10005efa:	0000      	.short	0x0000
10005efc:	000007ff 	.word	0x000007ff

10005f00 <__wrap___aeabi_dcmplt>:
10005f00:	b500      	push	{lr}
10005f02:	f7ff ffcf 	bl	10005ea4 <__wrap___aeabi_cdcmpeq>
10005f06:	4180      	sbcs	r0, r0
10005f08:	bd00      	pop	{pc}
10005f0a:	46c0      	nop			; (mov r8, r8)

10005f0c <__wrap___aeabi_dcmpge>:
10005f0c:	b500      	push	{lr}
10005f0e:	f7ff ffc1 	bl	10005e94 <__wrap___aeabi_cdrcmple>
10005f12:	d901      	bls.n	10005f18 <__wrap___aeabi_dcmpge+0xc>
10005f14:	2000      	movs	r0, #0
10005f16:	bd00      	pop	{pc}
10005f18:	2001      	movs	r0, #1
10005f1a:	bd00      	pop	{pc}

10005f1c <__wrap___aeabi_dcmpgt>:
10005f1c:	b500      	push	{lr}
10005f1e:	f7ff ffb9 	bl	10005e94 <__wrap___aeabi_cdrcmple>
10005f22:	4180      	sbcs	r0, r0
10005f24:	bd00      	pop	{pc}

10005f26 <__wrap___aeabi_dcmpun>:
10005f26:	2001      	movs	r0, #1
10005f28:	0540      	lsls	r0, r0, #21
10005f2a:	004a      	lsls	r2, r1, #1
10005f2c:	1812      	adds	r2, r2, r0
10005f2e:	d804      	bhi.n	10005f3a <__wrap___aeabi_dcmpun+0x14>
10005f30:	005a      	lsls	r2, r3, #1
10005f32:	1812      	adds	r2, r2, r0
10005f34:	d801      	bhi.n	10005f3a <__wrap___aeabi_dcmpun+0x14>
10005f36:	2000      	movs	r0, #0
10005f38:	4770      	bx	lr
10005f3a:	2001      	movs	r0, #1
10005f3c:	4770      	bx	lr
10005f3e:	2000      	movs	r0, #0
10005f40:	4770      	bx	lr
	...

10005f44 <__wrap___aeabi_ui2d>:
10005f44:	2100      	movs	r1, #0
10005f46:	2800      	cmp	r0, #0
10005f48:	d105      	bne.n	10005f56 <__wrap___aeabi_i2d+0xa>
10005f4a:	4770      	bx	lr

10005f4c <__wrap___aeabi_i2d>:
10005f4c:	17c1      	asrs	r1, r0, #31
10005f4e:	4048      	eors	r0, r1
10005f50:	1a40      	subs	r0, r0, r1
10005f52:	d0fa      	beq.n	10005f4a <__wrap___aeabi_ui2d+0x6>
10005f54:	07c9      	lsls	r1, r1, #31
10005f56:	b513      	push	{r0, r1, r4, lr}
10005f58:	4b06      	ldr	r3, [pc, #24]	; (10005f74 <__wrap___aeabi_i2d+0x28>)
10005f5a:	681b      	ldr	r3, [r3, #0]
10005f5c:	4798      	blx	r3
10005f5e:	bc0c      	pop	{r2, r3}
10005f60:	1c44      	adds	r4, r0, #1
10005f62:	40a2      	lsls	r2, r4
10005f64:	0510      	lsls	r0, r2, #20
10005f66:	0b12      	lsrs	r2, r2, #12
10005f68:	4903      	ldr	r1, [pc, #12]	; (10005f78 <__wrap___aeabi_i2d+0x2c>)
10005f6a:	1b09      	subs	r1, r1, r4
10005f6c:	0509      	lsls	r1, r1, #20
10005f6e:	4319      	orrs	r1, r3
10005f70:	4311      	orrs	r1, r2
10005f72:	bd10      	pop	{r4, pc}
10005f74:	20001c64 	.word	0x20001c64
10005f78:	0000041f 	.word	0x0000041f

10005f7c <__wrap___aeabi_d2iz>:
10005f7c:	b510      	push	{r4, lr}
10005f7e:	004c      	lsls	r4, r1, #1
10005f80:	0d62      	lsrs	r2, r4, #21
10005f82:	2380      	movs	r3, #128	; 0x80
10005f84:	18d2      	adds	r2, r2, r3
10005f86:	00db      	lsls	r3, r3, #3
10005f88:	1ad2      	subs	r2, r2, r3
10005f8a:	055b      	lsls	r3, r3, #21
10005f8c:	2a7e      	cmp	r2, #126	; 0x7e
10005f8e:	dd10      	ble.n	10005fb2 <__wrap___aeabi_d2iz+0x36>
10005f90:	3a9e      	subs	r2, #158	; 0x9e
10005f92:	da13      	bge.n	10005fbc <__wrap___aeabi_d2iz+0x40>
10005f94:	17cc      	asrs	r4, r1, #31
10005f96:	0309      	lsls	r1, r1, #12
10005f98:	0849      	lsrs	r1, r1, #1
10005f9a:	4319      	orrs	r1, r3
10005f9c:	4252      	negs	r2, r2
10005f9e:	40d1      	lsrs	r1, r2
10005fa0:	0064      	lsls	r4, r4, #1
10005fa2:	3401      	adds	r4, #1
10005fa4:	3215      	adds	r2, #21
10005fa6:	2a20      	cmp	r2, #32
10005fa8:	da05      	bge.n	10005fb6 <__wrap___aeabi_d2iz+0x3a>
10005faa:	40d0      	lsrs	r0, r2
10005fac:	4308      	orrs	r0, r1
10005fae:	4360      	muls	r0, r4
10005fb0:	bd10      	pop	{r4, pc}
10005fb2:	2000      	movs	r0, #0
10005fb4:	bd10      	pop	{r4, pc}
10005fb6:	4608      	mov	r0, r1
10005fb8:	4360      	muls	r0, r4
10005fba:	bd10      	pop	{r4, pc}
10005fbc:	0fc8      	lsrs	r0, r1, #31
10005fbe:	18c0      	adds	r0, r0, r3
10005fc0:	3801      	subs	r0, #1
10005fc2:	bd10      	pop	{r4, pc}

10005fc4 <__wrap___aeabi_d2uiz>:
10005fc4:	b418      	push	{r3, r4}
10005fc6:	4b04      	ldr	r3, [pc, #16]	; (10005fd8 <__wrap___aeabi_d2uiz+0x14>)
10005fc8:	6a5b      	ldr	r3, [r3, #36]	; 0x24
10005fca:	46fc      	mov	ip, pc
10005fcc:	9301      	str	r3, [sp, #4]
10005fce:	bd08      	pop	{r3, pc}
10005fd0:	6651df24 	.word	0x6651df24
10005fd4:	00001000 	.word	0x00001000
10005fd8:	20001a64 	.word	0x20001a64

10005fdc <__wrap___aeabi_ul2d>:
10005fdc:	b418      	push	{r3, r4}
10005fde:	4b04      	ldr	r3, [pc, #16]	; (10005ff0 <__wrap___aeabi_ul2d+0x14>)
10005fe0:	6e5b      	ldr	r3, [r3, #100]	; 0x64
10005fe2:	46fc      	mov	ip, pc
10005fe4:	9301      	str	r3, [sp, #4]
10005fe6:	bd08      	pop	{r3, pc}
10005fe8:	6739df64 	.word	0x6739df64
10005fec:	00001000 	.word	0x00001000
10005ff0:	20001a64 	.word	0x20001a64

10005ff4 <__wrap___aeabi_d2f>:
10005ff4:	b418      	push	{r3, r4}
10005ff6:	4b04      	ldr	r3, [pc, #16]	; (10006008 <__wrap___aeabi_d2f+0x14>)
10005ff8:	6fdb      	ldr	r3, [r3, #124]	; 0x7c
10005ffa:	46fc      	mov	ip, pc
10005ffc:	9301      	str	r3, [sp, #4]
10005ffe:	bd08      	pop	{r3, pc}
10006000:	66cddf7c 	.word	0x66cddf7c
10006004:	00001000 	.word	0x00001000
10006008:	20001a64 	.word	0x20001a64

1000600c <rp2040_rom_version>:
1000600c:	b580      	push	{r7, lr}
1000600e:	af00      	add	r7, sp, #0
10006010:	2313      	movs	r3, #19
10006012:	781b      	ldrb	r3, [r3, #0]
10006014:	0018      	movs	r0, r3
10006016:	46bd      	mov	sp, r7
10006018:	bd80      	pop	{r7, pc}

1000601a <rom_table_code>:
1000601a:	b580      	push	{r7, lr}
1000601c:	b082      	sub	sp, #8
1000601e:	af00      	add	r7, sp, #0
10006020:	0002      	movs	r2, r0
10006022:	1dfb      	adds	r3, r7, #7
10006024:	701a      	strb	r2, [r3, #0]
10006026:	1dbb      	adds	r3, r7, #6
10006028:	1c0a      	adds	r2, r1, #0
1000602a:	701a      	strb	r2, [r3, #0]
1000602c:	1dbb      	adds	r3, r7, #6
1000602e:	781b      	ldrb	r3, [r3, #0]
10006030:	021a      	lsls	r2, r3, #8
10006032:	1dfb      	adds	r3, r7, #7
10006034:	781b      	ldrb	r3, [r3, #0]
10006036:	4313      	orrs	r3, r2
10006038:	0018      	movs	r0, r3
1000603a:	46bd      	mov	sp, r7
1000603c:	b002      	add	sp, #8
1000603e:	bd80      	pop	{r7, pc}

10006040 <__aeabi_double_init>:
10006040:	b580      	push	{r7, lr}
10006042:	b084      	sub	sp, #16
10006044:	af00      	add	r7, sp, #0
10006046:	f7ff ffe1 	bl	1000600c <rp2040_rom_version>
1000604a:	0003      	movs	r3, r0
1000604c:	60bb      	str	r3, [r7, #8]
1000604e:	68bb      	ldr	r3, [r7, #8]
10006050:	2b01      	cmp	r3, #1
10006052:	d10d      	bne.n	10006070 <__aeabi_double_init+0x30>
10006054:	2300      	movs	r3, #0
10006056:	60fb      	str	r3, [r7, #12]
10006058:	e007      	b.n	1000606a <__aeabi_double_init+0x2a>
1000605a:	4929      	ldr	r1, [pc, #164]	; (10006100 <__aeabi_double_init+0xc0>)
1000605c:	4b29      	ldr	r3, [pc, #164]	; (10006104 <__aeabi_double_init+0xc4>)
1000605e:	68fa      	ldr	r2, [r7, #12]
10006060:	0092      	lsls	r2, r2, #2
10006062:	50d1      	str	r1, [r2, r3]
10006064:	68fb      	ldr	r3, [r7, #12]
10006066:	3301      	adds	r3, #1
10006068:	60fb      	str	r3, [r7, #12]
1000606a:	68fb      	ldr	r3, [r7, #12]
1000606c:	2b1f      	cmp	r3, #31
1000606e:	d9f4      	bls.n	1000605a <__aeabi_double_init+0x1a>
10006070:	68bb      	ldr	r3, [r7, #8]
10006072:	2b01      	cmp	r3, #1
10006074:	dd39      	ble.n	100060ea <__aeabi_double_init+0xaa>
10006076:	2144      	movs	r1, #68	; 0x44
10006078:	2053      	movs	r0, #83	; 0x53
1000607a:	f7ff ffce 	bl	1000601a <rom_table_code>
1000607e:	0003      	movs	r3, r0
10006080:	0018      	movs	r0, r3
10006082:	f7ff fc27 	bl	100058d4 <rom_data_lookup>
10006086:	0003      	movs	r3, r0
10006088:	607b      	str	r3, [r7, #4]
1000608a:	2146      	movs	r1, #70	; 0x46
1000608c:	2053      	movs	r0, #83	; 0x53
1000608e:	f7ff ffc4 	bl	1000601a <rom_table_code>
10006092:	0003      	movs	r3, r0
10006094:	0018      	movs	r0, r3
10006096:	f7ff fc1d 	bl	100058d4 <rom_data_lookup>
1000609a:	0003      	movs	r3, r0
1000609c:	3b02      	subs	r3, #2
1000609e:	781b      	ldrb	r3, [r3, #0]
100060a0:	009b      	lsls	r3, r3, #2
100060a2:	2b7f      	cmp	r3, #127	; 0x7f
100060a4:	dc05      	bgt.n	100060b2 <__aeabi_double_init+0x72>
100060a6:	4b18      	ldr	r3, [pc, #96]	; (10006108 <__aeabi_double_init+0xc8>)
100060a8:	4a18      	ldr	r2, [pc, #96]	; (1000610c <__aeabi_double_init+0xcc>)
100060aa:	4819      	ldr	r0, [pc, #100]	; (10006110 <__aeabi_double_init+0xd0>)
100060ac:	2130      	movs	r1, #48	; 0x30
100060ae:	f7fd f889 	bl	100031c4 <__assert_func>
100060b2:	6879      	ldr	r1, [r7, #4]
100060b4:	4b13      	ldr	r3, [pc, #76]	; (10006104 <__aeabi_double_init+0xc4>)
100060b6:	2280      	movs	r2, #128	; 0x80
100060b8:	0018      	movs	r0, r3
100060ba:	f000 fced 	bl	10006a98 <__wrap___aeabi_memcpy>
100060be:	68bb      	ldr	r3, [r7, #8]
100060c0:	2b02      	cmp	r3, #2
100060c2:	d112      	bne.n	100060ea <__aeabi_double_init+0xaa>
100060c4:	4b13      	ldr	r3, [pc, #76]	; (10006114 <__aeabi_double_init+0xd4>)
100060c6:	881a      	ldrh	r2, [r3, #0]
100060c8:	23b5      	movs	r3, #181	; 0xb5
100060ca:	021b      	lsls	r3, r3, #8
100060cc:	429a      	cmp	r2, r3
100060ce:	d109      	bne.n	100060e4 <__aeabi_double_init+0xa4>
100060d0:	4b11      	ldr	r3, [pc, #68]	; (10006118 <__aeabi_double_init+0xd8>)
100060d2:	881b      	ldrh	r3, [r3, #0]
100060d4:	4a11      	ldr	r2, [pc, #68]	; (1000611c <__aeabi_double_init+0xdc>)
100060d6:	4293      	cmp	r3, r2
100060d8:	d104      	bne.n	100060e4 <__aeabi_double_init+0xa4>
100060da:	4b11      	ldr	r3, [pc, #68]	; (10006120 <__aeabi_double_init+0xe0>)
100060dc:	881b      	ldrh	r3, [r3, #0]
100060de:	4a11      	ldr	r2, [pc, #68]	; (10006124 <__aeabi_double_init+0xe4>)
100060e0:	4293      	cmp	r3, r2
100060e2:	d002      	beq.n	100060ea <__aeabi_double_init+0xaa>
100060e4:	2000      	movs	r0, #0
100060e6:	f7fd f893 	bl	10003210 <panic>
100060ea:	68bb      	ldr	r3, [r7, #8]
100060ec:	2b02      	cmp	r3, #2
100060ee:	dc02      	bgt.n	100060f6 <__aeabi_double_init+0xb6>
100060f0:	4a03      	ldr	r2, [pc, #12]	; (10006100 <__aeabi_double_init+0xc0>)
100060f2:	4b04      	ldr	r3, [pc, #16]	; (10006104 <__aeabi_double_init+0xc4>)
100060f4:	649a      	str	r2, [r3, #72]	; 0x48
100060f6:	46c0      	nop			; (mov r8, r8)
100060f8:	46bd      	mov	sp, r7
100060fa:	b004      	add	sp, #16
100060fc:	bd80      	pop	{r7, pc}
100060fe:	46c0      	nop			; (mov r8, r8)
10006100:	10006129 	.word	0x10006129
10006104:	20001a64 	.word	0x20001a64
10006108:	10008ba0 	.word	0x10008ba0
1000610c:	10008c50 	.word	0x10008c50
10006110:	10008c00 	.word	0x10008c00
10006114:	00003854 	.word	0x00003854
10006118:	000038d8 	.word	0x000038d8
1000611c:	00004649 	.word	0x00004649
10006120:	0000389c 	.word	0x0000389c
10006124:	00004659 	.word	0x00004659

10006128 <double_table_shim_on_use_helper>:
10006128:	b507      	push	{r0, r1, r2, lr}
1000612a:	4660      	mov	r0, ip
1000612c:	2800      	cmp	r0, #0
1000612e:	d100      	bne.n	10006132 <double_table_shim_on_use_helper+0xa>
10006130:	be00      	bkpt	0x0000
10006132:	8801      	ldrh	r1, [r0, #0]
10006134:	0a0a      	lsrs	r2, r1, #8
10006136:	3002      	adds	r0, #2
10006138:	2adf      	cmp	r2, #223	; 0xdf
1000613a:	d1fa      	bne.n	10006132 <double_table_shim_on_use_helper+0xa>
1000613c:	b2c9      	uxtb	r1, r1
1000613e:	0882      	lsrs	r2, r0, #2
10006140:	d304      	bcc.n	1000614c <double_table_shim_on_use_helper+0x24>
10006142:	8802      	ldrh	r2, [r0, #0]
10006144:	8840      	ldrh	r0, [r0, #2]
10006146:	0400      	lsls	r0, r0, #16
10006148:	4310      	orrs	r0, r2
1000614a:	e000      	b.n	1000614e <double_table_shim_on_use_helper+0x26>
1000614c:	6800      	ldr	r0, [r0, #0]
1000614e:	4a02      	ldr	r2, [pc, #8]	; (10006158 <double_table_shim_on_use_helper+0x30>)
10006150:	5050      	str	r0, [r2, r1]
10006152:	9003      	str	r0, [sp, #12]
10006154:	bd07      	pop	{r0, r1, r2, pc}
10006156:	0000      	.short	0x0000
10006158:	20001a64 	.word	0x20001a64

1000615c <drsub_shim>:
1000615c:	b40f      	push	{r0, r1, r2, r3}
1000615e:	bc03      	pop	{r0, r1}
10006160:	bc0c      	pop	{r2, r3}

10006162 <dsub_shim>:
10006162:	b5f0      	push	{r4, r5, r6, r7, lr}
10006164:	2401      	movs	r4, #1
10006166:	07e4      	lsls	r4, r4, #31
10006168:	4063      	eors	r3, r4
1000616a:	e000      	b.n	1000616e <da_entry>

1000616c <dadd_shim>:
1000616c:	b5f0      	push	{r4, r5, r6, r7, lr}

1000616e <da_entry>:
1000616e:	0d0c      	lsrs	r4, r1, #20
10006170:	0fcf      	lsrs	r7, r1, #31
10006172:	1e66      	subs	r6, r4, #1
10006174:	0536      	lsls	r6, r6, #20
10006176:	1b89      	subs	r1, r1, r6
10006178:	0564      	lsls	r4, r4, #21
1000617a:	d303      	bcc.n	10006184 <l7_1>
1000617c:	43c9      	mvns	r1, r1
1000617e:	4240      	negs	r0, r0
10006180:	d300      	bcc.n	10006184 <l7_1>
10006182:	3101      	adds	r1, #1

10006184 <l7_1>:
10006184:	0d64      	lsrs	r4, r4, #21
10006186:	d003      	beq.n	10006190 <l7_2>
10006188:	1c66      	adds	r6, r4, #1
1000618a:	0af6      	lsrs	r6, r6, #11
1000618c:	d007      	beq.n	1000619e <l7_3>
1000618e:	1be4      	subs	r4, r4, r7

10006190 <l7_2>:
10006190:	2000      	movs	r0, #0
10006192:	007f      	lsls	r7, r7, #1
10006194:	1c79      	adds	r1, r7, #1
10006196:	0789      	lsls	r1, r1, #30
10006198:	1289      	asrs	r1, r1, #10
1000619a:	3c80      	subs	r4, #128	; 0x80
1000619c:	0324      	lsls	r4, r4, #12

1000619e <l7_3>:
1000619e:	0d1d      	lsrs	r5, r3, #20
100061a0:	0fdf      	lsrs	r7, r3, #31
100061a2:	1e6e      	subs	r6, r5, #1
100061a4:	0536      	lsls	r6, r6, #20
100061a6:	1b9b      	subs	r3, r3, r6
100061a8:	056d      	lsls	r5, r5, #21
100061aa:	d303      	bcc.n	100061b4 <l8_1>
100061ac:	43db      	mvns	r3, r3
100061ae:	4252      	negs	r2, r2
100061b0:	d300      	bcc.n	100061b4 <l8_1>
100061b2:	3301      	adds	r3, #1

100061b4 <l8_1>:
100061b4:	0d6d      	lsrs	r5, r5, #21
100061b6:	d003      	beq.n	100061c0 <l8_2>
100061b8:	1c6e      	adds	r6, r5, #1
100061ba:	0af6      	lsrs	r6, r6, #11
100061bc:	d007      	beq.n	100061ce <l8_3>
100061be:	1bed      	subs	r5, r5, r7

100061c0 <l8_2>:
100061c0:	2200      	movs	r2, #0
100061c2:	007f      	lsls	r7, r7, #1
100061c4:	1c7b      	adds	r3, r7, #1
100061c6:	079b      	lsls	r3, r3, #30
100061c8:	129b      	asrs	r3, r3, #10
100061ca:	3d80      	subs	r5, #128	; 0x80
100061cc:	032d      	lsls	r5, r5, #12

100061ce <l8_3>:
100061ce:	1b2f      	subs	r7, r5, r4
100061d0:	1b66      	subs	r6, r4, r5
100061d2:	d458      	bmi.n	10006286 <da_ygtx>
100061d4:	46a4      	mov	ip, r4
100061d6:	2e20      	cmp	r6, #32
100061d8:	da46      	bge.n	10006268 <da_xrgty>
100061da:	3720      	adds	r7, #32
100061dc:	0014      	movs	r4, r2
100061de:	40bc      	lsls	r4, r7

100061e0 <da_xgty0>:
100061e0:	001d      	movs	r5, r3
100061e2:	40bd      	lsls	r5, r7
100061e4:	40f2      	lsrs	r2, r6
100061e6:	4133      	asrs	r3, r6
100061e8:	432a      	orrs	r2, r5

100061ea <da_add>:
100061ea:	1880      	adds	r0, r0, r2
100061ec:	4159      	adcs	r1, r3

100061ee <da_pack>:
100061ee:	0fcb      	lsrs	r3, r1, #31
100061f0:	d005      	beq.n	100061fe <da_pack+0x10>
100061f2:	43c9      	mvns	r1, r1
100061f4:	43c0      	mvns	r0, r0
100061f6:	2200      	movs	r2, #0
100061f8:	4264      	negs	r4, r4
100061fa:	4150      	adcs	r0, r2
100061fc:	4151      	adcs	r1, r2
100061fe:	4662      	mov	r2, ip
10006200:	0d4d      	lsrs	r5, r1, #21
10006202:	d128      	bne.n	10006256 <da_0>
10006204:	0d0d      	lsrs	r5, r1, #20
10006206:	d107      	bne.n	10006218 <da_1>
10006208:	2800      	cmp	r0, #0
1000620a:	d01f      	beq.n	1000624c <da_5>

1000620c <da_2>:
1000620c:	1924      	adds	r4, r4, r4
1000620e:	4140      	adcs	r0, r0
10006210:	4149      	adcs	r1, r1
10006212:	3a01      	subs	r2, #1
10006214:	0d0d      	lsrs	r5, r1, #20
10006216:	d0f9      	beq.n	1000620c <da_2>

10006218 <da_1>:
10006218:	0064      	lsls	r4, r4, #1
1000621a:	d306      	bcc.n	1000622a <da_3>

1000621c <da_4>:
1000621c:	3001      	adds	r0, #1
1000621e:	d300      	bcc.n	10006222 <da_4+0x6>
10006220:	3101      	adds	r1, #1
10006222:	2c00      	cmp	r4, #0
10006224:	d101      	bne.n	1000622a <da_3>
10006226:	0840      	lsrs	r0, r0, #1
10006228:	0040      	lsls	r0, r0, #1

1000622a <da_3>:
1000622a:	3a01      	subs	r2, #1
1000622c:	d40b      	bmi.n	10006246 <da_6>
1000622e:	1c94      	adds	r4, r2, #2
10006230:	0ae4      	lsrs	r4, r4, #11
10006232:	d104      	bne.n	1000623e <da_7>
10006234:	0512      	lsls	r2, r2, #20
10006236:	4411      	add	r1, r2
10006238:	07db      	lsls	r3, r3, #31
1000623a:	4419      	add	r1, r3
1000623c:	bdf0      	pop	{r4, r5, r6, r7, pc}

1000623e <da_7>:
1000623e:	07d9      	lsls	r1, r3, #31
10006240:	4b20      	ldr	r3, [pc, #128]	; (100062c4 <da_xmgty+0x4>)
10006242:	4319      	orrs	r1, r3
10006244:	e000      	b.n	10006248 <da_6+0x2>

10006246 <da_6>:
10006246:	07d9      	lsls	r1, r3, #31
10006248:	2000      	movs	r0, #0
1000624a:	bdf0      	pop	{r4, r5, r6, r7, pc}

1000624c <da_5>:
1000624c:	2900      	cmp	r1, #0
1000624e:	d1dd      	bne.n	1000620c <da_2>
10006250:	2c00      	cmp	r4, #0
10006252:	d1db      	bne.n	1000620c <da_2>
10006254:	bdf0      	pop	{r4, r5, r6, r7, pc}

10006256 <da_0>:
10006256:	3201      	adds	r2, #1
10006258:	07c6      	lsls	r6, r0, #31
1000625a:	0840      	lsrs	r0, r0, #1
1000625c:	07cd      	lsls	r5, r1, #31
1000625e:	4328      	orrs	r0, r5
10006260:	0849      	lsrs	r1, r1, #1
10006262:	2e00      	cmp	r6, #0
10006264:	d0e1      	beq.n	1000622a <da_3>
10006266:	e7d9      	b.n	1000621c <da_4>

10006268 <da_xrgty>:
10006268:	2e3c      	cmp	r6, #60	; 0x3c
1000626a:	da29      	bge.n	100062c0 <da_xmgty>
1000626c:	3e20      	subs	r6, #32
1000626e:	3740      	adds	r7, #64	; 0x40
10006270:	0014      	movs	r4, r2
10006272:	40bc      	lsls	r4, r7
10006274:	d000      	beq.n	10006278 <da_xrgty+0x10>
10006276:	2401      	movs	r4, #1
10006278:	40f2      	lsrs	r2, r6
1000627a:	4314      	orrs	r4, r2
1000627c:	001a      	movs	r2, r3
1000627e:	40bb      	lsls	r3, r7
10006280:	431c      	orrs	r4, r3
10006282:	17d3      	asrs	r3, r2, #31
10006284:	e7ac      	b.n	100061e0 <da_xgty0>

10006286 <da_ygtx>:
10006286:	46ac      	mov	ip, r5
10006288:	2f20      	cmp	r7, #32
1000628a:	da08      	bge.n	1000629e <da_yrgtx>
1000628c:	3620      	adds	r6, #32
1000628e:	0004      	movs	r4, r0
10006290:	40b4      	lsls	r4, r6

10006292 <da_ygtx0>:
10006292:	000d      	movs	r5, r1
10006294:	40b5      	lsls	r5, r6
10006296:	40f8      	lsrs	r0, r7
10006298:	4139      	asrs	r1, r7
1000629a:	4328      	orrs	r0, r5
1000629c:	e7a5      	b.n	100061ea <da_add>

1000629e <da_yrgtx>:
1000629e:	2f3c      	cmp	r7, #60	; 0x3c
100062a0:	da0c      	bge.n	100062bc <da_ymgtx>
100062a2:	3f20      	subs	r7, #32
100062a4:	3640      	adds	r6, #64	; 0x40
100062a6:	0004      	movs	r4, r0
100062a8:	40b4      	lsls	r4, r6
100062aa:	d000      	beq.n	100062ae <da_yrgtx+0x10>
100062ac:	2401      	movs	r4, #1
100062ae:	40f8      	lsrs	r0, r7
100062b0:	4304      	orrs	r4, r0
100062b2:	0008      	movs	r0, r1
100062b4:	40b1      	lsls	r1, r6
100062b6:	430c      	orrs	r4, r1
100062b8:	17c1      	asrs	r1, r0, #31
100062ba:	e7ea      	b.n	10006292 <da_ygtx0>

100062bc <da_ymgtx>:
100062bc:	0010      	movs	r0, r2
100062be:	0019      	movs	r1, r3

100062c0 <da_xmgty>:
100062c0:	2400      	movs	r4, #0
100062c2:	e794      	b.n	100061ee <da_pack>
100062c4:	7ff00000 	.word	0x7ff00000

100062c8 <dmul_shim>:
100062c8:	b5f0      	push	{r4, r5, r6, r7, lr}
100062ca:	0d0c      	lsrs	r4, r1, #20
100062cc:	1e66      	subs	r6, r4, #1
100062ce:	0536      	lsls	r6, r6, #20
100062d0:	1b89      	subs	r1, r1, r6
100062d2:	0ae6      	lsrs	r6, r4, #11
100062d4:	0564      	lsls	r4, r4, #21
100062d6:	0d64      	lsrs	r4, r4, #21
100062d8:	d002      	beq.n	100062e0 <l11_1>
100062da:	1c65      	adds	r5, r4, #1
100062dc:	0aed      	lsrs	r5, r5, #11
100062de:	d004      	beq.n	100062ea <l11_2>

100062e0 <l11_1>:
100062e0:	2000      	movs	r0, #0
100062e2:	2101      	movs	r1, #1
100062e4:	0509      	lsls	r1, r1, #20
100062e6:	3c80      	subs	r4, #128	; 0x80
100062e8:	0324      	lsls	r4, r4, #12

100062ea <l11_2>:
100062ea:	46a4      	mov	ip, r4
100062ec:	0d1c      	lsrs	r4, r3, #20
100062ee:	1e67      	subs	r7, r4, #1
100062f0:	053f      	lsls	r7, r7, #20
100062f2:	1bdb      	subs	r3, r3, r7
100062f4:	0ae7      	lsrs	r7, r4, #11
100062f6:	0564      	lsls	r4, r4, #21
100062f8:	0d64      	lsrs	r4, r4, #21
100062fa:	d002      	beq.n	10006302 <l12_1>
100062fc:	1c65      	adds	r5, r4, #1
100062fe:	0aed      	lsrs	r5, r5, #11
10006300:	d004      	beq.n	1000630c <l12_2>

10006302 <l12_1>:
10006302:	2200      	movs	r2, #0
10006304:	2301      	movs	r3, #1
10006306:	051b      	lsls	r3, r3, #20
10006308:	3c80      	subs	r4, #128	; 0x80
1000630a:	0324      	lsls	r4, r4, #12

1000630c <l12_2>:
1000630c:	4077      	eors	r7, r6
1000630e:	4464      	add	r4, ip
10006310:	b497      	push	{r0, r1, r2, r4, r7}
10006312:	b284      	uxth	r4, r0
10006314:	b296      	uxth	r6, r2
10006316:	4374      	muls	r4, r6
10006318:	0c07      	lsrs	r7, r0, #16
1000631a:	437e      	muls	r6, r7
1000631c:	0c15      	lsrs	r5, r2, #16
1000631e:	436f      	muls	r7, r5
10006320:	b280      	uxth	r0, r0
10006322:	4368      	muls	r0, r5
10006324:	1836      	adds	r6, r6, r0
10006326:	d302      	bcc.n	1000632e <l13_1>
10006328:	2001      	movs	r0, #1
1000632a:	0400      	lsls	r0, r0, #16
1000632c:	183f      	adds	r7, r7, r0

1000632e <l13_1>:
1000632e:	0430      	lsls	r0, r6, #16
10006330:	0c35      	lsrs	r5, r6, #16
10006332:	1900      	adds	r0, r0, r4
10006334:	417d      	adcs	r5, r7
10006336:	4684      	mov	ip, r0
10006338:	b288      	uxth	r0, r1
1000633a:	b29a      	uxth	r2, r3
1000633c:	4350      	muls	r0, r2
1000633e:	0c0c      	lsrs	r4, r1, #16
10006340:	4362      	muls	r2, r4
10006342:	0c1f      	lsrs	r7, r3, #16
10006344:	437c      	muls	r4, r7
10006346:	b28e      	uxth	r6, r1
10006348:	437e      	muls	r6, r7
1000634a:	1992      	adds	r2, r2, r6
1000634c:	d302      	bcc.n	10006354 <l14_1>
1000634e:	2601      	movs	r6, #1
10006350:	0436      	lsls	r6, r6, #16
10006352:	19a4      	adds	r4, r4, r6

10006354 <l14_1>:
10006354:	0416      	lsls	r6, r2, #16
10006356:	0c17      	lsrs	r7, r2, #16
10006358:	1836      	adds	r6, r6, r0
1000635a:	4167      	adcs	r7, r4
1000635c:	bc01      	pop	{r0}
1000635e:	b281      	uxth	r1, r0
10006360:	b29a      	uxth	r2, r3
10006362:	4351      	muls	r1, r2
10006364:	0c04      	lsrs	r4, r0, #16
10006366:	4362      	muls	r2, r4
10006368:	0c1b      	lsrs	r3, r3, #16
1000636a:	435c      	muls	r4, r3
1000636c:	b280      	uxth	r0, r0
1000636e:	4358      	muls	r0, r3
10006370:	1812      	adds	r2, r2, r0
10006372:	d302      	bcc.n	1000637a <l15_1>
10006374:	2001      	movs	r0, #1
10006376:	0400      	lsls	r0, r0, #16
10006378:	1824      	adds	r4, r4, r0

1000637a <l15_1>:
1000637a:	0410      	lsls	r0, r2, #16
1000637c:	0c13      	lsrs	r3, r2, #16
1000637e:	1840      	adds	r0, r0, r1
10006380:	4163      	adcs	r3, r4
10006382:	182d      	adds	r5, r5, r0
10006384:	415e      	adcs	r6, r3
10006386:	2000      	movs	r0, #0
10006388:	4147      	adcs	r7, r0
1000638a:	bc06      	pop	{r1, r2}
1000638c:	b288      	uxth	r0, r1
1000638e:	b293      	uxth	r3, r2
10006390:	4358      	muls	r0, r3
10006392:	0c0c      	lsrs	r4, r1, #16
10006394:	4363      	muls	r3, r4
10006396:	0c12      	lsrs	r2, r2, #16
10006398:	4354      	muls	r4, r2
1000639a:	b289      	uxth	r1, r1
1000639c:	4351      	muls	r1, r2
1000639e:	185b      	adds	r3, r3, r1
100063a0:	d302      	bcc.n	100063a8 <l16_1>
100063a2:	2101      	movs	r1, #1
100063a4:	0409      	lsls	r1, r1, #16
100063a6:	1864      	adds	r4, r4, r1

100063a8 <l16_1>:
100063a8:	0419      	lsls	r1, r3, #16
100063aa:	0c1a      	lsrs	r2, r3, #16
100063ac:	1809      	adds	r1, r1, r0
100063ae:	4162      	adcs	r2, r4
100063b0:	186d      	adds	r5, r5, r1
100063b2:	4156      	adcs	r6, r2
100063b4:	2000      	movs	r0, #0
100063b6:	4147      	adcs	r7, r0
100063b8:	bc18      	pop	{r3, r4}
100063ba:	02f9      	lsls	r1, r7, #11
100063bc:	0d72      	lsrs	r2, r6, #21
100063be:	4311      	orrs	r1, r2
100063c0:	02f0      	lsls	r0, r6, #11
100063c2:	0d6a      	lsrs	r2, r5, #21
100063c4:	4310      	orrs	r0, r2
100063c6:	02ed      	lsls	r5, r5, #11
100063c8:	0d0a      	lsrs	r2, r1, #20
100063ca:	d103      	bne.n	100063d4 <l16_1+0x2c>
100063cc:	196d      	adds	r5, r5, r5
100063ce:	4140      	adcs	r0, r0
100063d0:	4149      	adcs	r1, r1
100063d2:	3b01      	subs	r3, #1
100063d4:	4e12      	ldr	r6, [pc, #72]	; (10006420 <dm_1+0xa>)
100063d6:	1b9b      	subs	r3, r3, r6
100063d8:	0076      	lsls	r6, r6, #1
100063da:	42b3      	cmp	r3, r6
100063dc:	d20e      	bcs.n	100063fc <dm_0>
100063de:	006d      	lsls	r5, r5, #1
100063e0:	d307      	bcc.n	100063f2 <l16_1+0x4a>
100063e2:	3001      	adds	r0, #1
100063e4:	2600      	movs	r6, #0
100063e6:	4171      	adcs	r1, r6
100063e8:	4666      	mov	r6, ip
100063ea:	4335      	orrs	r5, r6
100063ec:	d101      	bne.n	100063f2 <l16_1+0x4a>
100063ee:	0840      	lsrs	r0, r0, #1
100063f0:	0040      	lsls	r0, r0, #1
100063f2:	051b      	lsls	r3, r3, #20
100063f4:	18c9      	adds	r1, r1, r3

100063f6 <dm_2>:
100063f6:	07e4      	lsls	r4, r4, #31
100063f8:	4421      	add	r1, r4
100063fa:	bdf0      	pop	{r4, r5, r6, r7, pc}

100063fc <dm_0>:
100063fc:	da0b      	bge.n	10006416 <dm_1>
100063fe:	3301      	adds	r3, #1
10006400:	d106      	bne.n	10006410 <dm_0+0x14>
10006402:	3001      	adds	r0, #1
10006404:	d104      	bne.n	10006410 <dm_0+0x14>
10006406:	3101      	adds	r1, #1
10006408:	0d4f      	lsrs	r7, r1, #21
1000640a:	d001      	beq.n	10006410 <dm_0+0x14>
1000640c:	0849      	lsrs	r1, r1, #1
1000640e:	e7f2      	b.n	100063f6 <dm_2>
10006410:	07e1      	lsls	r1, r4, #31
10006412:	2000      	movs	r0, #0
10006414:	bdf0      	pop	{r4, r5, r6, r7, pc}

10006416 <dm_1>:
10006416:	3601      	adds	r6, #1
10006418:	0531      	lsls	r1, r6, #20
1000641a:	2000      	movs	r0, #0
1000641c:	e7eb      	b.n	100063f6 <dm_2>
1000641e:	0000      	.short	0x0000
10006420:	000003ff 	.word	0x000003ff

10006424 <ddiv_shim>:
10006424:	b5f0      	push	{r4, r5, r6, r7, lr}

10006426 <ddiv0>:
10006426:	0d1c      	lsrs	r4, r3, #20
10006428:	1e67      	subs	r7, r4, #1
1000642a:	053f      	lsls	r7, r7, #20
1000642c:	1bdb      	subs	r3, r3, r7
1000642e:	0ae7      	lsrs	r7, r4, #11
10006430:	0564      	lsls	r4, r4, #21
10006432:	0d64      	lsrs	r4, r4, #21
10006434:	d002      	beq.n	1000643c <l19_1>
10006436:	1c66      	adds	r6, r4, #1
10006438:	0af6      	lsrs	r6, r6, #11
1000643a:	d004      	beq.n	10006446 <l19_2>

1000643c <l19_1>:
1000643c:	2200      	movs	r2, #0
1000643e:	2301      	movs	r3, #1
10006440:	051b      	lsls	r3, r3, #20
10006442:	3c80      	subs	r4, #128	; 0x80
10006444:	0324      	lsls	r4, r4, #12

10006446 <l19_2>:
10006446:	25d0      	movs	r5, #208	; 0xd0
10006448:	062d      	lsls	r5, r5, #24
1000644a:	2600      	movs	r6, #0
1000644c:	43f6      	mvns	r6, r6
1000644e:	662e      	str	r6, [r5, #96]	; 0x60
10006450:	091e      	lsrs	r6, r3, #4
10006452:	666e      	str	r6, [r5, #100]	; 0x64
10006454:	0fce      	lsrs	r6, r1, #31
10006456:	19f6      	adds	r6, r6, r7
10006458:	46b4      	mov	ip, r6
1000645a:	0049      	lsls	r1, r1, #1
1000645c:	0d4f      	lsrs	r7, r1, #21
1000645e:	d002      	beq.n	10006466 <l19_2+0x20>
10006460:	1c7e      	adds	r6, r7, #1
10006462:	0af6      	lsrs	r6, r6, #11
10006464:	d003      	beq.n	1000646e <l19_2+0x28>
10006466:	2000      	movs	r0, #0
10006468:	2100      	movs	r1, #0
1000646a:	3f40      	subs	r7, #64	; 0x40
1000646c:	033f      	lsls	r7, r7, #12
1000646e:	1b3e      	subs	r6, r7, r4
10006470:	00b6      	lsls	r6, r6, #2
10006472:	44b4      	add	ip, r6
10006474:	3f01      	subs	r7, #1
10006476:	057f      	lsls	r7, r7, #21
10006478:	1bc9      	subs	r1, r1, r7
1000647a:	0849      	lsrs	r1, r1, #1
1000647c:	6f2e      	ldr	r6, [r5, #112]	; 0x70
1000647e:	3601      	adds	r6, #1
10006480:	0876      	lsrs	r6, r6, #1
10006482:	029c      	lsls	r4, r3, #10
10006484:	0d95      	lsrs	r5, r2, #22
10006486:	4325      	orrs	r5, r4
10006488:	4375      	muls	r5, r6
1000648a:	13ed      	asrs	r5, r5, #15
1000648c:	4375      	muls	r5, r6
1000648e:	13ad      	asrs	r5, r5, #14
10006490:	3501      	adds	r5, #1
10006492:	106d      	asrs	r5, r5, #1
10006494:	03f6      	lsls	r6, r6, #15
10006496:	1b76      	subs	r6, r6, r5
10006498:	b40c      	push	{r2, r3}
1000649a:	02cc      	lsls	r4, r1, #11
1000649c:	0d45      	lsrs	r5, r0, #21
1000649e:	432c      	orrs	r4, r5
100064a0:	b2a2      	uxth	r2, r4
100064a2:	b2b3      	uxth	r3, r6
100064a4:	435a      	muls	r2, r3
100064a6:	0c27      	lsrs	r7, r4, #16
100064a8:	437b      	muls	r3, r7
100064aa:	0c35      	lsrs	r5, r6, #16
100064ac:	436f      	muls	r7, r5
100064ae:	b2a4      	uxth	r4, r4
100064b0:	436c      	muls	r4, r5
100064b2:	191b      	adds	r3, r3, r4
100064b4:	d302      	bcc.n	100064bc <l20_1>
100064b6:	2401      	movs	r4, #1
100064b8:	0424      	lsls	r4, r4, #16
100064ba:	193f      	adds	r7, r7, r4

100064bc <l20_1>:
100064bc:	041c      	lsls	r4, r3, #16
100064be:	0c1d      	lsrs	r5, r3, #16
100064c0:	18a4      	adds	r4, r4, r2
100064c2:	417d      	adcs	r5, r7
100064c4:	1924      	adds	r4, r4, r4
100064c6:	416d      	adcs	r5, r5
100064c8:	9a00      	ldr	r2, [sp, #0]
100064ca:	b291      	uxth	r1, r2
100064cc:	b2ac      	uxth	r4, r5
100064ce:	4361      	muls	r1, r4
100064d0:	0c17      	lsrs	r7, r2, #16
100064d2:	437c      	muls	r4, r7
100064d4:	0c2b      	lsrs	r3, r5, #16
100064d6:	435f      	muls	r7, r3
100064d8:	b292      	uxth	r2, r2
100064da:	435a      	muls	r2, r3
100064dc:	18a4      	adds	r4, r4, r2
100064de:	d302      	bcc.n	100064e6 <l21_1>
100064e0:	2201      	movs	r2, #1
100064e2:	0412      	lsls	r2, r2, #16
100064e4:	18bf      	adds	r7, r7, r2

100064e6 <l21_1>:
100064e6:	0422      	lsls	r2, r4, #16
100064e8:	0c23      	lsrs	r3, r4, #16
100064ea:	1852      	adds	r2, r2, r1
100064ec:	417b      	adcs	r3, r7
100064ee:	9c01      	ldr	r4, [sp, #4]
100064f0:	436c      	muls	r4, r5
100064f2:	191b      	adds	r3, r3, r4
100064f4:	0e52      	lsrs	r2, r2, #25
100064f6:	01d9      	lsls	r1, r3, #7
100064f8:	430a      	orrs	r2, r1
100064fa:	0144      	lsls	r4, r0, #5
100064fc:	1aa0      	subs	r0, r4, r2
100064fe:	b281      	uxth	r1, r0
10006500:	b2b2      	uxth	r2, r6
10006502:	4351      	muls	r1, r2
10006504:	1403      	asrs	r3, r0, #16
10006506:	435a      	muls	r2, r3
10006508:	0c36      	lsrs	r6, r6, #16
1000650a:	4373      	muls	r3, r6
1000650c:	b287      	uxth	r7, r0
1000650e:	4377      	muls	r7, r6
10006510:	17d6      	asrs	r6, r2, #31
10006512:	19d2      	adds	r2, r2, r7
10006514:	2700      	movs	r7, #0
10006516:	417e      	adcs	r6, r7
10006518:	0436      	lsls	r6, r6, #16
1000651a:	199b      	adds	r3, r3, r6
1000651c:	0417      	lsls	r7, r2, #16
1000651e:	0c16      	lsrs	r6, r2, #16
10006520:	187f      	adds	r7, r7, r1
10006522:	415e      	adcs	r6, r3
10006524:	1673      	asrs	r3, r6, #25
10006526:	18ed      	adds	r5, r5, r3
10006528:	01f3      	lsls	r3, r6, #7
1000652a:	2600      	movs	r6, #0
1000652c:	3380      	adds	r3, #128	; 0x80
1000652e:	4175      	adcs	r5, r6
10006530:	0fa9      	lsrs	r1, r5, #30
10006532:	d106      	bne.n	10006542 <dd_0>
10006534:	0064      	lsls	r4, r4, #1
10006536:	0a69      	lsrs	r1, r5, #9
10006538:	05e8      	lsls	r0, r5, #23
1000653a:	0a5b      	lsrs	r3, r3, #9
1000653c:	4318      	orrs	r0, r3
1000653e:	d209      	bcs.n	10006554 <dd_1>
10006540:	e02f      	b.n	100065a2 <dd_2>

10006542 <dd_0>:
10006542:	2204      	movs	r2, #4
10006544:	4494      	add	ip, r2
10006546:	3380      	adds	r3, #128	; 0x80
10006548:	4175      	adcs	r5, r6
1000654a:	0aa9      	lsrs	r1, r5, #10
1000654c:	05a8      	lsls	r0, r5, #22
1000654e:	0a9b      	lsrs	r3, r3, #10
10006550:	4318      	orrs	r0, r3
10006552:	d326      	bcc.n	100065a2 <dd_2>

10006554 <dd_1>:
10006554:	4140      	adcs	r0, r0
10006556:	4149      	adcs	r1, r1
10006558:	0424      	lsls	r4, r4, #16
1000655a:	9a00      	ldr	r2, [sp, #0]
1000655c:	9b01      	ldr	r3, [sp, #4]
1000655e:	000d      	movs	r5, r1
10006560:	4355      	muls	r5, r2
10006562:	1b64      	subs	r4, r4, r5
10006564:	4343      	muls	r3, r0
10006566:	1ae4      	subs	r4, r4, r3
10006568:	b295      	uxth	r5, r2
1000656a:	b286      	uxth	r6, r0
1000656c:	4375      	muls	r5, r6
1000656e:	0c17      	lsrs	r7, r2, #16
10006570:	437e      	muls	r6, r7
10006572:	0c03      	lsrs	r3, r0, #16
10006574:	435f      	muls	r7, r3
10006576:	b292      	uxth	r2, r2
10006578:	435a      	muls	r2, r3
1000657a:	18b6      	adds	r6, r6, r2
1000657c:	d302      	bcc.n	10006584 <l23_1>
1000657e:	2201      	movs	r2, #1
10006580:	0412      	lsls	r2, r2, #16
10006582:	18bf      	adds	r7, r7, r2

10006584 <l23_1>:
10006584:	0432      	lsls	r2, r6, #16
10006586:	0c33      	lsrs	r3, r6, #16
10006588:	1952      	adds	r2, r2, r5
1000658a:	417b      	adcs	r3, r7
1000658c:	4252      	negs	r2, r2
1000658e:	419c      	sbcs	r4, r3
10006590:	2c00      	cmp	r4, #0
10006592:	d402      	bmi.n	1000659a <l23_1+0x16>
10006594:	2200      	movs	r2, #0
10006596:	3001      	adds	r0, #1
10006598:	4151      	adcs	r1, r2
1000659a:	0840      	lsrs	r0, r0, #1
1000659c:	07ca      	lsls	r2, r1, #31
1000659e:	4310      	orrs	r0, r2
100065a0:	0849      	lsrs	r1, r1, #1

100065a2 <dd_2>:
100065a2:	b002      	add	sp, #8
100065a4:	4662      	mov	r2, ip
100065a6:	07d7      	lsls	r7, r2, #31
100065a8:	1092      	asrs	r2, r2, #2
100065aa:	4b08      	ldr	r3, [pc, #32]	; (100065cc <dd_4+0x6>)
100065ac:	18d2      	adds	r2, r2, r3
100065ae:	4b08      	ldr	r3, [pc, #32]	; (100065d0 <dd_4+0xa>)
100065b0:	429a      	cmp	r2, r3
100065b2:	d203      	bcs.n	100065bc <dd_3>
100065b4:	0512      	lsls	r2, r2, #20
100065b6:	1889      	adds	r1, r1, r2

100065b8 <dd_5>:
100065b8:	19c9      	adds	r1, r1, r7
100065ba:	bdf0      	pop	{r4, r5, r6, r7, pc}

100065bc <dd_3>:
100065bc:	2000      	movs	r0, #0
100065be:	2a00      	cmp	r2, #0
100065c0:	dc01      	bgt.n	100065c6 <dd_4>
100065c2:	0039      	movs	r1, r7
100065c4:	bdf0      	pop	{r4, r5, r6, r7, pc}

100065c6 <dd_4>:
100065c6:	3301      	adds	r3, #1
100065c8:	0519      	lsls	r1, r3, #20
100065ca:	e7f5      	b.n	100065b8 <dd_5>
100065cc:	000003fd 	.word	0x000003fd
100065d0:	000007fe 	.word	0x000007fe

100065d4 <dcordic_rot_step>:
100065d4:	4662      	mov	r2, ip
100065d6:	ca18      	ldmia	r2!, {r3, r4}
100065d8:	4694      	mov	ip, r2
100065da:	2900      	cmp	r1, #0
100065dc:	da1a      	bge.n	10006614 <dcordic_rot_step+0x40>
100065de:	18c0      	adds	r0, r0, r3
100065e0:	4161      	adcs	r1, r4
100065e2:	465b      	mov	r3, fp
100065e4:	413b      	asrs	r3, r7
100065e6:	465c      	mov	r4, fp
100065e8:	40b4      	lsls	r4, r6
100065ea:	4652      	mov	r2, sl
100065ec:	40fa      	lsrs	r2, r7
100065ee:	4322      	orrs	r2, r4
100065f0:	4644      	mov	r4, r8
100065f2:	464d      	mov	r5, r9
100065f4:	4162      	adcs	r2, r4
100065f6:	416b      	adcs	r3, r5
100065f8:	4690      	mov	r8, r2
100065fa:	4699      	mov	r9, r3
100065fc:	462b      	mov	r3, r5
100065fe:	40b3      	lsls	r3, r6
10006600:	413d      	asrs	r5, r7
10006602:	40fc      	lsrs	r4, r7
10006604:	431c      	orrs	r4, r3
10006606:	4652      	mov	r2, sl
10006608:	465b      	mov	r3, fp
1000660a:	41a2      	sbcs	r2, r4
1000660c:	41ab      	sbcs	r3, r5
1000660e:	4692      	mov	sl, r2
10006610:	469b      	mov	fp, r3
10006612:	4770      	bx	lr
10006614:	1ac0      	subs	r0, r0, r3
10006616:	41a1      	sbcs	r1, r4
10006618:	464b      	mov	r3, r9
1000661a:	413b      	asrs	r3, r7
1000661c:	464c      	mov	r4, r9
1000661e:	40b4      	lsls	r4, r6
10006620:	4642      	mov	r2, r8
10006622:	40fa      	lsrs	r2, r7
10006624:	4322      	orrs	r2, r4
10006626:	4654      	mov	r4, sl
10006628:	465d      	mov	r5, fp
1000662a:	4162      	adcs	r2, r4
1000662c:	416b      	adcs	r3, r5
1000662e:	4692      	mov	sl, r2
10006630:	469b      	mov	fp, r3
10006632:	462b      	mov	r3, r5
10006634:	40b3      	lsls	r3, r6
10006636:	413d      	asrs	r5, r7
10006638:	40fc      	lsrs	r4, r7
1000663a:	431c      	orrs	r4, r3
1000663c:	4642      	mov	r2, r8
1000663e:	464b      	mov	r3, r9
10006640:	41a2      	sbcs	r2, r4
10006642:	41ab      	sbcs	r3, r5
10006644:	4690      	mov	r8, r2
10006646:	4699      	mov	r9, r3
10006648:	4770      	bx	lr

1000664a <ret_dzero>:
1000664a:	2000      	movs	r0, #0
1000664c:	2100      	movs	r1, #0
1000664e:	4770      	bx	lr

10006650 <double2uint_shim>:
10006650:	2200      	movs	r2, #0

10006652 <double2ufix_shim>:
10006652:	b500      	push	{lr}
10006654:	3220      	adds	r2, #32
10006656:	f000 f804 	bl	10006662 <double2ufix64_shim>
1000665a:	0008      	movs	r0, r1
1000665c:	bd00      	pop	{pc}
	...

10006660 <double2uint64_shim>:
10006660:	2200      	movs	r2, #0

10006662 <double2ufix64_shim>:
10006662:	150b      	asrs	r3, r1, #20
10006664:	d4f1      	bmi.n	1000664a <ret_dzero>

10006666 <d2fix>:
10006666:	b510      	push	{r4, lr}
10006668:	4694      	mov	ip, r2
1000666a:	f000 f8a5 	bl	100067b8 <dunpacks>
1000666e:	1414      	asrs	r4, r2, #16
10006670:	3401      	adds	r4, #1
10006672:	da00      	bge.n	10006676 <d2fix+0x10>
10006674:	2100      	movs	r1, #0
10006676:	17cb      	asrs	r3, r1, #31
10006678:	4c13      	ldr	r4, [pc, #76]	; (100066c8 <d2fix_a+0x4c>)
1000667a:	4720      	bx	r4

1000667c <d2fix_a>:
1000667c:	4462      	add	r2, ip
1000667e:	3a34      	subs	r2, #52	; 0x34
10006680:	d40c      	bmi.n	1000669c <d2fix_a+0x20>
10006682:	2a0c      	cmp	r2, #12
10006684:	da07      	bge.n	10006696 <d2fix_a+0x1a>
10006686:	0004      	movs	r4, r0
10006688:	4091      	lsls	r1, r2
1000668a:	4090      	lsls	r0, r2
1000668c:	4252      	negs	r2, r2
1000668e:	3220      	adds	r2, #32
10006690:	40d4      	lsrs	r4, r2
10006692:	4321      	orrs	r1, r4
10006694:	bd10      	pop	{r4, pc}
10006696:	43d8      	mvns	r0, r3
10006698:	43d9      	mvns	r1, r3
1000669a:	bd10      	pop	{r4, pc}
1000669c:	3220      	adds	r2, #32
1000669e:	d407      	bmi.n	100066b0 <d2fix_a+0x34>
100066a0:	460c      	mov	r4, r1
100066a2:	4094      	lsls	r4, r2
100066a4:	4252      	negs	r2, r2
100066a6:	3220      	adds	r2, #32
100066a8:	4111      	asrs	r1, r2
100066aa:	40d0      	lsrs	r0, r2
100066ac:	4320      	orrs	r0, r4
100066ae:	bd10      	pop	{r4, pc}
100066b0:	0008      	movs	r0, r1
100066b2:	17c9      	asrs	r1, r1, #31
100066b4:	3220      	adds	r2, #32
100066b6:	d403      	bmi.n	100066c0 <d2fix_a+0x44>
100066b8:	4252      	negs	r2, r2
100066ba:	3220      	adds	r2, #32
100066bc:	4110      	asrs	r0, r2
100066be:	bd10      	pop	{r4, pc}
100066c0:	0018      	movs	r0, r3
100066c2:	0019      	movs	r1, r3
100066c4:	bd10      	pop	{r4, pc}
100066c6:	0000      	.short	0x0000
100066c8:	1000667d 	.word	0x1000667d

100066cc <double2float_shim>:
100066cc:	004a      	lsls	r2, r1, #1
100066ce:	0d52      	lsrs	r2, r2, #21
100066d0:	4b14      	ldr	r3, [pc, #80]	; (10006724 <double2float_shim+0x58>)
100066d2:	1ad2      	subs	r2, r2, r3
100066d4:	dd13      	ble.n	100066fe <double2float_shim+0x32>
100066d6:	2aff      	cmp	r2, #255	; 0xff
100066d8:	da1e      	bge.n	10006718 <double2float_shim+0x4c>
100066da:	05d2      	lsls	r2, r2, #23
100066dc:	0fcb      	lsrs	r3, r1, #31
100066de:	07db      	lsls	r3, r3, #31
100066e0:	431a      	orrs	r2, r3
100066e2:	00c3      	lsls	r3, r0, #3
100066e4:	0f40      	lsrs	r0, r0, #29
100066e6:	0309      	lsls	r1, r1, #12
100066e8:	0a49      	lsrs	r1, r1, #9
100066ea:	4308      	orrs	r0, r1
100066ec:	4310      	orrs	r0, r2
100066ee:	005b      	lsls	r3, r3, #1
100066f0:	d301      	bcc.n	100066f6 <double2float_shim+0x2a>
100066f2:	d001      	beq.n	100066f8 <double2float_shim+0x2c>
100066f4:	3001      	adds	r0, #1
100066f6:	4770      	bx	lr
100066f8:	0843      	lsrs	r3, r0, #1
100066fa:	d2fb      	bcs.n	100066f4 <double2float_shim+0x28>
100066fc:	4770      	bx	lr
100066fe:	d002      	beq.n	10006706 <double2float_shim+0x3a>
10006700:	0fc8      	lsrs	r0, r1, #31
10006702:	07c0      	lsls	r0, r0, #31
10006704:	4770      	bx	lr
10006706:	030a      	lsls	r2, r1, #12
10006708:	1312      	asrs	r2, r2, #12
1000670a:	3201      	adds	r2, #1
1000670c:	d1f8      	bne.n	10006700 <double2float_shim+0x34>
1000670e:	0f42      	lsrs	r2, r0, #29
10006710:	2a07      	cmp	r2, #7
10006712:	d1f5      	bne.n	10006700 <double2float_shim+0x34>
10006714:	2201      	movs	r2, #1
10006716:	e000      	b.n	1000671a <double2float_shim+0x4e>
10006718:	22ff      	movs	r2, #255	; 0xff
1000671a:	0fc8      	lsrs	r0, r1, #31
1000671c:	0200      	lsls	r0, r0, #8
1000671e:	1880      	adds	r0, r0, r2
10006720:	05c0      	lsls	r0, r0, #23
10006722:	4770      	bx	lr
10006724:	00000380 	.word	0x00000380

10006728 <uint2double_shim>:
10006728:	2100      	movs	r1, #0

1000672a <ufix2double_shim>:
1000672a:	000a      	movs	r2, r1
1000672c:	2100      	movs	r1, #0
1000672e:	e004      	b.n	1000673a <ufix642double_shim>

10006730 <int2double_shim>:
10006730:	2100      	movs	r1, #0

10006732 <fix2double_shim>:
10006732:	000a      	movs	r2, r1
10006734:	17c1      	asrs	r1, r0, #31
10006736:	e004      	b.n	10006742 <fix642double_shim>

10006738 <uint642double_shim>:
10006738:	2200      	movs	r2, #0

1000673a <ufix642double_shim>:
1000673a:	2300      	movs	r3, #0
1000673c:	e006      	b.n	1000674c <uf2d>
1000673e:	46c0      	nop			; (mov r8, r8)

10006740 <int642double_shim>:
10006740:	2200      	movs	r2, #0

10006742 <fix642double_shim>:
10006742:	17cb      	asrs	r3, r1, #31
10006744:	4058      	eors	r0, r3
10006746:	4059      	eors	r1, r3
10006748:	1ac0      	subs	r0, r0, r3
1000674a:	4199      	sbcs	r1, r3

1000674c <uf2d>:
1000674c:	b530      	push	{r4, r5, lr}
1000674e:	4c18      	ldr	r4, [pc, #96]	; (100067b0 <uf2d+0x64>)
10006750:	1aa2      	subs	r2, r4, r2
10006752:	2900      	cmp	r1, #0
10006754:	d103      	bne.n	1000675e <uf2d+0x12>
10006756:	0001      	movs	r1, r0
10006758:	d010      	beq.n	1000677c <uf2d+0x30>
1000675a:	2000      	movs	r0, #0
1000675c:	3a20      	subs	r2, #32
1000675e:	154c      	asrs	r4, r1, #21
10006760:	d112      	bne.n	10006788 <uf2d+0x3c>
10006762:	d204      	bcs.n	1000676e <uf2d+0x22>
10006764:	3a01      	subs	r2, #1
10006766:	1800      	adds	r0, r0, r0
10006768:	4149      	adcs	r1, r1
1000676a:	0d4c      	lsrs	r4, r1, #21
1000676c:	d3fa      	bcc.n	10006764 <uf2d+0x18>
1000676e:	4c11      	ldr	r4, [pc, #68]	; (100067b4 <uf2d+0x68>)
10006770:	42a2      	cmp	r2, r4
10006772:	d204      	bcs.n	1000677e <uf2d+0x32>
10006774:	0512      	lsls	r2, r2, #20
10006776:	1889      	adds	r1, r1, r2
10006778:	07db      	lsls	r3, r3, #31
1000677a:	18c9      	adds	r1, r1, r3
1000677c:	bd30      	pop	{r4, r5, pc}
1000677e:	43d2      	mvns	r2, r2
10006780:	0d52      	lsrs	r2, r2, #21
10006782:	2000      	movs	r0, #0
10006784:	2100      	movs	r1, #0
10006786:	e7f5      	b.n	10006774 <uf2d+0x28>
10006788:	d403      	bmi.n	10006792 <uf2d+0x46>
1000678a:	3a01      	subs	r2, #1
1000678c:	1800      	adds	r0, r0, r0
1000678e:	4149      	adcs	r1, r1
10006790:	d5fb      	bpl.n	1000678a <uf2d+0x3e>
10006792:	320b      	adds	r2, #11
10006794:	0544      	lsls	r4, r0, #21
10006796:	0ac0      	lsrs	r0, r0, #11
10006798:	054d      	lsls	r5, r1, #21
1000679a:	4328      	orrs	r0, r5
1000679c:	0ac9      	lsrs	r1, r1, #11
1000679e:	0064      	lsls	r4, r4, #1
100067a0:	d003      	beq.n	100067aa <uf2d+0x5e>
100067a2:	2400      	movs	r4, #0
100067a4:	4160      	adcs	r0, r4
100067a6:	4161      	adcs	r1, r4
100067a8:	e7e1      	b.n	1000676e <uf2d+0x22>
100067aa:	d3e0      	bcc.n	1000676e <uf2d+0x22>
100067ac:	0844      	lsrs	r4, r0, #1
100067ae:	e7f8      	b.n	100067a2 <uf2d+0x56>
100067b0:	00000432 	.word	0x00000432
100067b4:	000007fe 	.word	0x000007fe

100067b8 <dunpacks>:
100067b8:	0d0a      	lsrs	r2, r1, #20
100067ba:	0fcc      	lsrs	r4, r1, #31
100067bc:	1e53      	subs	r3, r2, #1
100067be:	051b      	lsls	r3, r3, #20
100067c0:	1ac9      	subs	r1, r1, r3
100067c2:	0552      	lsls	r2, r2, #21
100067c4:	d303      	bcc.n	100067ce <l60_1>
100067c6:	43c9      	mvns	r1, r1
100067c8:	4240      	negs	r0, r0
100067ca:	d300      	bcc.n	100067ce <l60_1>
100067cc:	3101      	adds	r1, #1

100067ce <l60_1>:
100067ce:	0d52      	lsrs	r2, r2, #21
100067d0:	d003      	beq.n	100067da <l60_2>
100067d2:	1c53      	adds	r3, r2, #1
100067d4:	0adb      	lsrs	r3, r3, #11
100067d6:	d007      	beq.n	100067e8 <l60_3>
100067d8:	1b12      	subs	r2, r2, r4

100067da <l60_2>:
100067da:	2000      	movs	r0, #0
100067dc:	0064      	lsls	r4, r4, #1
100067de:	1c61      	adds	r1, r4, #1
100067e0:	0789      	lsls	r1, r1, #30
100067e2:	1289      	asrs	r1, r1, #10
100067e4:	3a80      	subs	r2, #128	; 0x80
100067e6:	0312      	lsls	r2, r2, #12

100067e8 <l60_3>:
100067e8:	4b01      	ldr	r3, [pc, #4]	; (100067f0 <l60_3+0x8>)
100067ea:	1ad2      	subs	r2, r2, r3
100067ec:	4770      	bx	lr
100067ee:	0000      	.short	0x0000
100067f0:	000003ff 	.word	0x000003ff

100067f4 <__wrap___aeabi_frsub>:
100067f4:	4048      	eors	r0, r1
100067f6:	4041      	eors	r1, r0
100067f8:	4048      	eors	r0, r1

100067fa <__wrap___aeabi_fsub>:
100067fa:	2300      	movs	r3, #0
100067fc:	469c      	mov	ip, r3
100067fe:	4b09      	ldr	r3, [pc, #36]	; (10006824 <__wrap___aeabi_fmul+0xc>)
10006800:	685b      	ldr	r3, [r3, #4]
10006802:	4718      	bx	r3

10006804 <__wrap___aeabi_fadd>:
10006804:	2300      	movs	r3, #0
10006806:	469c      	mov	ip, r3
10006808:	4b06      	ldr	r3, [pc, #24]	; (10006824 <__wrap___aeabi_fmul+0xc>)
1000680a:	681b      	ldr	r3, [r3, #0]
1000680c:	4718      	bx	r3

1000680e <__wrap___aeabi_fdiv>:
1000680e:	2300      	movs	r3, #0
10006810:	469c      	mov	ip, r3
10006812:	4b04      	ldr	r3, [pc, #16]	; (10006824 <__wrap___aeabi_fmul+0xc>)
10006814:	68db      	ldr	r3, [r3, #12]
10006816:	4718      	bx	r3

10006818 <__wrap___aeabi_fmul>:
10006818:	2300      	movs	r3, #0
1000681a:	469c      	mov	ip, r3
1000681c:	4b01      	ldr	r3, [pc, #4]	; (10006824 <__wrap___aeabi_fmul+0xc>)
1000681e:	689b      	ldr	r3, [r3, #8]
10006820:	4718      	bx	r3
10006822:	0000      	.short	0x0000
10006824:	20001b64 	.word	0x20001b64

10006828 <__wrap___aeabi_f2d>:
10006828:	4b03      	ldr	r3, [pc, #12]	; (10006838 <__wrap___aeabi_f2d+0x10>)
1000682a:	6fdb      	ldr	r3, [r3, #124]	; 0x7c
1000682c:	46fc      	mov	ip, pc
1000682e:	4718      	bx	r3
10006830:	69d9df7c 	.word	0x69d9df7c
10006834:	00001000 	.word	0x00001000
10006838:	20001b64 	.word	0x20001b64

1000683c <rp2040_rom_version>:
1000683c:	b580      	push	{r7, lr}
1000683e:	af00      	add	r7, sp, #0
10006840:	2313      	movs	r3, #19
10006842:	781b      	ldrb	r3, [r3, #0]
10006844:	0018      	movs	r0, r3
10006846:	46bd      	mov	sp, r7
10006848:	bd80      	pop	{r7, pc}

1000684a <rom_table_code>:
1000684a:	b580      	push	{r7, lr}
1000684c:	b082      	sub	sp, #8
1000684e:	af00      	add	r7, sp, #0
10006850:	0002      	movs	r2, r0
10006852:	1dfb      	adds	r3, r7, #7
10006854:	701a      	strb	r2, [r3, #0]
10006856:	1dbb      	adds	r3, r7, #6
10006858:	1c0a      	adds	r2, r1, #0
1000685a:	701a      	strb	r2, [r3, #0]
1000685c:	1dbb      	adds	r3, r7, #6
1000685e:	781b      	ldrb	r3, [r3, #0]
10006860:	021a      	lsls	r2, r3, #8
10006862:	1dfb      	adds	r3, r7, #7
10006864:	781b      	ldrb	r3, [r3, #0]
10006866:	4313      	orrs	r3, r2
10006868:	0018      	movs	r0, r3
1000686a:	46bd      	mov	sp, r7
1000686c:	b002      	add	sp, #8
1000686e:	bd80      	pop	{r7, pc}

10006870 <__aeabi_float_init>:
10006870:	b580      	push	{r7, lr}
10006872:	b084      	sub	sp, #16
10006874:	af00      	add	r7, sp, #0
10006876:	f7ff ffe1 	bl	1000683c <rp2040_rom_version>
1000687a:	0003      	movs	r3, r0
1000687c:	60bb      	str	r3, [r7, #8]
1000687e:	2146      	movs	r1, #70	; 0x46
10006880:	2053      	movs	r0, #83	; 0x53
10006882:	f7ff ffe2 	bl	1000684a <rom_table_code>
10006886:	0003      	movs	r3, r0
10006888:	0018      	movs	r0, r3
1000688a:	f7ff f823 	bl	100058d4 <rom_data_lookup>
1000688e:	0003      	movs	r3, r0
10006890:	607b      	str	r3, [r7, #4]
10006892:	68bb      	ldr	r3, [r7, #8]
10006894:	2b01      	cmp	r3, #1
10006896:	d13e      	bne.n	10006916 <__aeabi_float_init+0xa6>
10006898:	6879      	ldr	r1, [r7, #4]
1000689a:	4b31      	ldr	r3, [pc, #196]	; (10006960 <__aeabi_float_init+0xf0>)
1000689c:	2254      	movs	r2, #84	; 0x54
1000689e:	0018      	movs	r0, r3
100068a0:	f000 f8fa 	bl	10006a98 <__wrap___aeabi_memcpy>
100068a4:	4b2f      	ldr	r3, [pc, #188]	; (10006964 <__aeabi_float_init+0xf4>)
100068a6:	881b      	ldrh	r3, [r3, #0]
100068a8:	4a2f      	ldr	r2, [pc, #188]	; (10006968 <__aeabi_float_init+0xf8>)
100068aa:	4293      	cmp	r3, r2
100068ac:	d11a      	bne.n	100068e4 <__aeabi_float_init+0x74>
100068ae:	23a7      	movs	r3, #167	; 0xa7
100068b0:	019b      	lsls	r3, r3, #6
100068b2:	881b      	ldrh	r3, [r3, #0]
100068b4:	4a2d      	ldr	r2, [pc, #180]	; (1000696c <__aeabi_float_init+0xfc>)
100068b6:	4293      	cmp	r3, r2
100068b8:	d114      	bne.n	100068e4 <__aeabi_float_init+0x74>
100068ba:	4b2d      	ldr	r3, [pc, #180]	; (10006970 <__aeabi_float_init+0x100>)
100068bc:	881b      	ldrh	r3, [r3, #0]
100068be:	4a2d      	ldr	r2, [pc, #180]	; (10006974 <__aeabi_float_init+0x104>)
100068c0:	4293      	cmp	r3, r2
100068c2:	d10f      	bne.n	100068e4 <__aeabi_float_init+0x74>
100068c4:	4b2c      	ldr	r3, [pc, #176]	; (10006978 <__aeabi_float_init+0x108>)
100068c6:	881a      	ldrh	r2, [r3, #0]
100068c8:	2394      	movs	r3, #148	; 0x94
100068ca:	019b      	lsls	r3, r3, #6
100068cc:	429a      	cmp	r2, r3
100068ce:	d109      	bne.n	100068e4 <__aeabi_float_init+0x74>
100068d0:	4b2a      	ldr	r3, [pc, #168]	; (1000697c <__aeabi_float_init+0x10c>)
100068d2:	881b      	ldrh	r3, [r3, #0]
100068d4:	4a2a      	ldr	r2, [pc, #168]	; (10006980 <__aeabi_float_init+0x110>)
100068d6:	4293      	cmp	r3, r2
100068d8:	d104      	bne.n	100068e4 <__aeabi_float_init+0x74>
100068da:	4b2a      	ldr	r3, [pc, #168]	; (10006984 <__aeabi_float_init+0x114>)
100068dc:	681b      	ldr	r3, [r3, #0]
100068de:	4a2a      	ldr	r2, [pc, #168]	; (10006988 <__aeabi_float_init+0x118>)
100068e0:	4293      	cmp	r3, r2
100068e2:	d003      	beq.n	100068ec <__aeabi_float_init+0x7c>
100068e4:	4b29      	ldr	r3, [pc, #164]	; (1000698c <__aeabi_float_init+0x11c>)
100068e6:	0018      	movs	r0, r3
100068e8:	f7fc fc92 	bl	10003210 <panic>
100068ec:	2315      	movs	r3, #21
100068ee:	60fb      	str	r3, [r7, #12]
100068f0:	e007      	b.n	10006902 <__aeabi_float_init+0x92>
100068f2:	4927      	ldr	r1, [pc, #156]	; (10006990 <__aeabi_float_init+0x120>)
100068f4:	4b1a      	ldr	r3, [pc, #104]	; (10006960 <__aeabi_float_init+0xf0>)
100068f6:	68fa      	ldr	r2, [r7, #12]
100068f8:	0092      	lsls	r2, r2, #2
100068fa:	50d1      	str	r1, [r2, r3]
100068fc:	68fb      	ldr	r3, [r7, #12]
100068fe:	3301      	adds	r3, #1
10006900:	60fb      	str	r3, [r7, #12]
10006902:	68fb      	ldr	r3, [r7, #12]
10006904:	2b1f      	cmp	r3, #31
10006906:	d9f4      	bls.n	100068f2 <__aeabi_float_init+0x82>
10006908:	4a21      	ldr	r2, [pc, #132]	; (10006990 <__aeabi_float_init+0x120>)
1000690a:	4b15      	ldr	r3, [pc, #84]	; (10006960 <__aeabi_float_init+0xf0>)
1000690c:	621a      	str	r2, [r3, #32]
1000690e:	4b14      	ldr	r3, [pc, #80]	; (10006960 <__aeabi_float_init+0xf0>)
10006910:	6a1a      	ldr	r2, [r3, #32]
10006912:	4b13      	ldr	r3, [pc, #76]	; (10006960 <__aeabi_float_init+0xf0>)
10006914:	61da      	str	r2, [r3, #28]
10006916:	68bb      	ldr	r3, [r7, #8]
10006918:	2b01      	cmp	r3, #1
1000691a:	dd11      	ble.n	10006940 <__aeabi_float_init+0xd0>
1000691c:	687b      	ldr	r3, [r7, #4]
1000691e:	3b02      	subs	r3, #2
10006920:	781b      	ldrb	r3, [r3, #0]
10006922:	009b      	lsls	r3, r3, #2
10006924:	2b7f      	cmp	r3, #127	; 0x7f
10006926:	dc05      	bgt.n	10006934 <__aeabi_float_init+0xc4>
10006928:	4b1a      	ldr	r3, [pc, #104]	; (10006994 <__aeabi_float_init+0x124>)
1000692a:	4a1b      	ldr	r2, [pc, #108]	; (10006998 <__aeabi_float_init+0x128>)
1000692c:	481b      	ldr	r0, [pc, #108]	; (1000699c <__aeabi_float_init+0x12c>)
1000692e:	2142      	movs	r1, #66	; 0x42
10006930:	f7fc fc48 	bl	100031c4 <__assert_func>
10006934:	6879      	ldr	r1, [r7, #4]
10006936:	4b0a      	ldr	r3, [pc, #40]	; (10006960 <__aeabi_float_init+0xf0>)
10006938:	2280      	movs	r2, #128	; 0x80
1000693a:	0018      	movs	r0, r3
1000693c:	f000 f8ac 	bl	10006a98 <__wrap___aeabi_memcpy>
10006940:	2133      	movs	r1, #51	; 0x33
10006942:	204c      	movs	r0, #76	; 0x4c
10006944:	f7ff ff81 	bl	1000684a <rom_table_code>
10006948:	0003      	movs	r3, r0
1000694a:	0018      	movs	r0, r3
1000694c:	f7fe ffae 	bl	100058ac <rom_func_lookup>
10006950:	0002      	movs	r2, r0
10006952:	4b13      	ldr	r3, [pc, #76]	; (100069a0 <__aeabi_float_init+0x130>)
10006954:	601a      	str	r2, [r3, #0]
10006956:	46c0      	nop			; (mov r8, r8)
10006958:	46bd      	mov	sp, r7
1000695a:	b004      	add	sp, #16
1000695c:	bd80      	pop	{r7, pc}
1000695e:	46c0      	nop			; (mov r8, r8)
10006960:	20001b64 	.word	0x20001b64
10006964:	000029ee 	.word	0x000029ee
10006968:	00000fc4 	.word	0x00000fc4
1000696c:	00000dc2 	.word	0x00000dc2
10006970:	00002b96 	.word	0x00002b96
10006974:	0000b5c0 	.word	0x0000b5c0
10006978:	00002b18 	.word	0x00002b18
1000697c:	00002acc 	.word	0x00002acc
10006980:	0000b510 	.word	0x0000b510
10006984:	00002cfc 	.word	0x00002cfc
10006988:	6487ed51 	.word	0x6487ed51
1000698c:	10008c64 	.word	0x10008c64
10006990:	100069a5 	.word	0x100069a5
10006994:	10008c68 	.word	0x10008c68
10006998:	10008cec 	.word	0x10008cec
1000699c:	10008c9c 	.word	0x10008c9c
100069a0:	20001c64 	.word	0x20001c64

100069a4 <float_table_shim_on_use_helper>:
100069a4:	b507      	push	{r0, r1, r2, lr}
100069a6:	4660      	mov	r0, ip
100069a8:	2800      	cmp	r0, #0
100069aa:	d100      	bne.n	100069ae <float_table_shim_on_use_helper+0xa>
100069ac:	be00      	bkpt	0x0000
100069ae:	8801      	ldrh	r1, [r0, #0]
100069b0:	0a0a      	lsrs	r2, r1, #8
100069b2:	3002      	adds	r0, #2
100069b4:	2adf      	cmp	r2, #223	; 0xdf
100069b6:	d1fa      	bne.n	100069ae <float_table_shim_on_use_helper+0xa>
100069b8:	b2c9      	uxtb	r1, r1
100069ba:	0882      	lsrs	r2, r0, #2
100069bc:	d304      	bcc.n	100069c8 <float_table_shim_on_use_helper+0x24>
100069be:	8802      	ldrh	r2, [r0, #0]
100069c0:	8840      	ldrh	r0, [r0, #2]
100069c2:	0400      	lsls	r0, r0, #16
100069c4:	4310      	orrs	r0, r2
100069c6:	e000      	b.n	100069ca <float_table_shim_on_use_helper+0x26>
100069c8:	6800      	ldr	r0, [r0, #0]
100069ca:	4a02      	ldr	r2, [pc, #8]	; (100069d4 <float_table_shim_on_use_helper+0x30>)
100069cc:	5050      	str	r0, [r2, r1]
100069ce:	9003      	str	r0, [sp, #12]
100069d0:	bd07      	pop	{r0, r1, r2, pc}
100069d2:	0000      	.short	0x0000
100069d4:	20001b64 	.word	0x20001b64

100069d8 <float2double_shim>:
100069d8:	0fc3      	lsrs	r3, r0, #31
100069da:	07db      	lsls	r3, r3, #31
100069dc:	0041      	lsls	r1, r0, #1
100069de:	0e0a      	lsrs	r2, r1, #24
100069e0:	d007      	beq.n	100069f2 <float2double_shim+0x1a>
100069e2:	2aff      	cmp	r2, #255	; 0xff
100069e4:	d008      	beq.n	100069f8 <float2double_shim+0x20>
100069e6:	0909      	lsrs	r1, r1, #4
100069e8:	4a05      	ldr	r2, [pc, #20]	; (10006a00 <float2double_shim+0x28>)
100069ea:	1889      	adds	r1, r1, r2
100069ec:	4319      	orrs	r1, r3
100069ee:	0740      	lsls	r0, r0, #29
100069f0:	4770      	bx	lr
100069f2:	0019      	movs	r1, r3
100069f4:	2000      	movs	r0, #0
100069f6:	4770      	bx	lr
100069f8:	4902      	ldr	r1, [pc, #8]	; (10006a04 <float2double_shim+0x2c>)
100069fa:	18c9      	adds	r1, r1, r3
100069fc:	e7fa      	b.n	100069f4 <float2double_shim+0x1c>
100069fe:	0000      	.short	0x0000
10006a00:	38000000 	.word	0x38000000
10006a04:	7ff00000 	.word	0x7ff00000

10006a08 <check_alloc>:
10006a08:	b580      	push	{r7, lr}
10006a0a:	b082      	sub	sp, #8
10006a0c:	af00      	add	r7, sp, #0
10006a0e:	6078      	str	r0, [r7, #4]
10006a10:	000a      	movs	r2, r1
10006a12:	1cfb      	adds	r3, r7, #3
10006a14:	701a      	strb	r2, [r3, #0]
10006a16:	46c0      	nop			; (mov r8, r8)
10006a18:	46bd      	mov	sp, r7
10006a1a:	b002      	add	sp, #8
10006a1c:	bd80      	pop	{r7, pc}

10006a1e <__wrap_malloc>:
10006a1e:	b580      	push	{r7, lr}
10006a20:	b084      	sub	sp, #16
10006a22:	af00      	add	r7, sp, #0
10006a24:	6078      	str	r0, [r7, #4]
10006a26:	687b      	ldr	r3, [r7, #4]
10006a28:	0018      	movs	r0, r3
10006a2a:	f000 fd51 	bl	100074d0 <malloc>
10006a2e:	0003      	movs	r3, r0
10006a30:	60fb      	str	r3, [r7, #12]
10006a32:	687b      	ldr	r3, [r7, #4]
10006a34:	b2da      	uxtb	r2, r3
10006a36:	68fb      	ldr	r3, [r7, #12]
10006a38:	0011      	movs	r1, r2
10006a3a:	0018      	movs	r0, r3
10006a3c:	f7ff ffe4 	bl	10006a08 <check_alloc>
10006a40:	68fb      	ldr	r3, [r7, #12]
10006a42:	0018      	movs	r0, r3
10006a44:	46bd      	mov	sp, r7
10006a46:	b004      	add	sp, #16
10006a48:	bd80      	pop	{r7, pc}

10006a4a <__wrap_calloc>:
10006a4a:	b580      	push	{r7, lr}
10006a4c:	b084      	sub	sp, #16
10006a4e:	af00      	add	r7, sp, #0
10006a50:	6078      	str	r0, [r7, #4]
10006a52:	6039      	str	r1, [r7, #0]
10006a54:	683a      	ldr	r2, [r7, #0]
10006a56:	687b      	ldr	r3, [r7, #4]
10006a58:	0011      	movs	r1, r2
10006a5a:	0018      	movs	r0, r3
10006a5c:	f000 fd00 	bl	10007460 <calloc>
10006a60:	0003      	movs	r3, r0
10006a62:	60fb      	str	r3, [r7, #12]
10006a64:	683b      	ldr	r3, [r7, #0]
10006a66:	b2da      	uxtb	r2, r3
10006a68:	68fb      	ldr	r3, [r7, #12]
10006a6a:	0011      	movs	r1, r2
10006a6c:	0018      	movs	r0, r3
10006a6e:	f7ff ffcb 	bl	10006a08 <check_alloc>
10006a72:	68fb      	ldr	r3, [r7, #12]
10006a74:	0018      	movs	r0, r3
10006a76:	46bd      	mov	sp, r7
10006a78:	b004      	add	sp, #16
10006a7a:	bd80      	pop	{r7, pc}

10006a7c <__aeabi_mem_init>:
10006a7c:	4801      	ldr	r0, [pc, #4]	; (10006a84 <__aeabi_mem_init+0x8>)
10006a7e:	2104      	movs	r1, #4
10006a80:	4b01      	ldr	r3, [pc, #4]	; (10006a88 <__aeabi_mem_init+0xc>)
10006a82:	4718      	bx	r3
10006a84:	200002e0 	.word	0x200002e0
10006a88:	100058fd 	.word	0x100058fd

10006a8c <__wrap_memset>:
10006a8c:	4b01      	ldr	r3, [pc, #4]	; (10006a94 <__wrap_memset+0x8>)
10006a8e:	681b      	ldr	r3, [r3, #0]
10006a90:	4718      	bx	r3
10006a92:	0000      	.short	0x0000
10006a94:	200002e0 	.word	0x200002e0

10006a98 <__wrap___aeabi_memcpy>:
10006a98:	4b01      	ldr	r3, [pc, #4]	; (10006aa0 <__wrap___aeabi_memcpy+0x8>)
10006a9a:	685b      	ldr	r3, [r3, #4]
10006a9c:	4718      	bx	r3
10006a9e:	0000      	.short	0x0000
10006aa0:	200002e0 	.word	0x200002e0

10006aa4 <get_core_num>:
10006aa4:	b580      	push	{r7, lr}
10006aa6:	af00      	add	r7, sp, #0
10006aa8:	23d0      	movs	r3, #208	; 0xd0
10006aaa:	061b      	lsls	r3, r3, #24
10006aac:	681b      	ldr	r3, [r3, #0]
10006aae:	0018      	movs	r0, r3
10006ab0:	46bd      	mov	sp, r7
10006ab2:	bd80      	pop	{r7, pc}

10006ab4 <stdout_serialize_begin>:
10006ab4:	b580      	push	{r7, lr}
10006ab6:	b082      	sub	sp, #8
10006ab8:	af00      	add	r7, sp, #0
10006aba:	f7ff fff3 	bl	10006aa4 <get_core_num>
10006abe:	0003      	movs	r3, r0
10006ac0:	607b      	str	r3, [r7, #4]
10006ac2:	003a      	movs	r2, r7
10006ac4:	4b0d      	ldr	r3, [pc, #52]	; (10006afc <stdout_serialize_begin+0x48>)
10006ac6:	0011      	movs	r1, r2
10006ac8:	0018      	movs	r0, r3
10006aca:	f001 f951 	bl	10007d70 <__mutex_try_enter_veneer>
10006ace:	0003      	movs	r3, r0
10006ad0:	001a      	movs	r2, r3
10006ad2:	2301      	movs	r3, #1
10006ad4:	4053      	eors	r3, r2
10006ad6:	b2db      	uxtb	r3, r3
10006ad8:	2b00      	cmp	r3, #0
10006ada:	d009      	beq.n	10006af0 <stdout_serialize_begin+0x3c>
10006adc:	683a      	ldr	r2, [r7, #0]
10006ade:	687b      	ldr	r3, [r7, #4]
10006ae0:	429a      	cmp	r2, r3
10006ae2:	d101      	bne.n	10006ae8 <stdout_serialize_begin+0x34>
10006ae4:	2300      	movs	r3, #0
10006ae6:	e004      	b.n	10006af2 <stdout_serialize_begin+0x3e>
10006ae8:	4b04      	ldr	r3, [pc, #16]	; (10006afc <stdout_serialize_begin+0x48>)
10006aea:	0018      	movs	r0, r3
10006aec:	f001 f948 	bl	10007d80 <__mutex_enter_blocking_veneer>
10006af0:	2301      	movs	r3, #1
10006af2:	0018      	movs	r0, r3
10006af4:	46bd      	mov	sp, r7
10006af6:	b002      	add	sp, #8
10006af8:	bd80      	pop	{r7, pc}
10006afa:	46c0      	nop			; (mov r8, r8)
10006afc:	20000b48 	.word	0x20000b48

10006b00 <stdout_serialize_end>:
10006b00:	b580      	push	{r7, lr}
10006b02:	af00      	add	r7, sp, #0
10006b04:	4b03      	ldr	r3, [pc, #12]	; (10006b14 <stdout_serialize_end+0x14>)
10006b06:	0018      	movs	r0, r3
10006b08:	f001 f91a 	bl	10007d40 <__mutex_exit_veneer>
10006b0c:	46c0      	nop			; (mov r8, r8)
10006b0e:	46bd      	mov	sp, r7
10006b10:	bd80      	pop	{r7, pc}
10006b12:	46c0      	nop			; (mov r8, r8)
10006b14:	20000b48 	.word	0x20000b48

10006b18 <stdio_out_chars_crlf>:
10006b18:	b580      	push	{r7, lr}
10006b1a:	b088      	sub	sp, #32
10006b1c:	af00      	add	r7, sp, #0
10006b1e:	60f8      	str	r0, [r7, #12]
10006b20:	60b9      	str	r1, [r7, #8]
10006b22:	607a      	str	r2, [r7, #4]
10006b24:	68fb      	ldr	r3, [r7, #12]
10006b26:	7c5b      	ldrb	r3, [r3, #17]
10006b28:	2201      	movs	r2, #1
10006b2a:	4053      	eors	r3, r2
10006b2c:	b2db      	uxtb	r3, r3
10006b2e:	2b00      	cmp	r3, #0
10006b30:	d006      	beq.n	10006b40 <stdio_out_chars_crlf+0x28>
10006b32:	68fb      	ldr	r3, [r7, #12]
10006b34:	681b      	ldr	r3, [r3, #0]
10006b36:	6879      	ldr	r1, [r7, #4]
10006b38:	68ba      	ldr	r2, [r7, #8]
10006b3a:	0010      	movs	r0, r2
10006b3c:	4798      	blx	r3
10006b3e:	e061      	b.n	10006c04 <stdio_out_chars_crlf+0xec>
10006b40:	2300      	movs	r3, #0
10006b42:	61fb      	str	r3, [r7, #28]
10006b44:	2300      	movs	r3, #0
10006b46:	61bb      	str	r3, [r7, #24]
10006b48:	e03c      	b.n	10006bc4 <stdio_out_chars_crlf+0xac>
10006b4a:	69bb      	ldr	r3, [r7, #24]
10006b4c:	2b00      	cmp	r3, #0
10006b4e:	dd09      	ble.n	10006b64 <stdio_out_chars_crlf+0x4c>
10006b50:	69bb      	ldr	r3, [r7, #24]
10006b52:	3b01      	subs	r3, #1
10006b54:	68ba      	ldr	r2, [r7, #8]
10006b56:	18d3      	adds	r3, r2, r3
10006b58:	781b      	ldrb	r3, [r3, #0]
10006b5a:	3b0d      	subs	r3, #13
10006b5c:	425a      	negs	r2, r3
10006b5e:	4153      	adcs	r3, r2
10006b60:	b2db      	uxtb	r3, r3
10006b62:	e004      	b.n	10006b6e <stdio_out_chars_crlf+0x56>
10006b64:	68fb      	ldr	r3, [r7, #12]
10006b66:	7c1b      	ldrb	r3, [r3, #16]
10006b68:	1e5a      	subs	r2, r3, #1
10006b6a:	4193      	sbcs	r3, r2
10006b6c:	b2db      	uxtb	r3, r3
10006b6e:	2217      	movs	r2, #23
10006b70:	18ba      	adds	r2, r7, r2
10006b72:	7013      	strb	r3, [r2, #0]
10006b74:	69bb      	ldr	r3, [r7, #24]
10006b76:	68ba      	ldr	r2, [r7, #8]
10006b78:	18d3      	adds	r3, r2, r3
10006b7a:	781b      	ldrb	r3, [r3, #0]
10006b7c:	2b0a      	cmp	r3, #10
10006b7e:	d11e      	bne.n	10006bbe <stdio_out_chars_crlf+0xa6>
10006b80:	2317      	movs	r3, #23
10006b82:	18fb      	adds	r3, r7, r3
10006b84:	781b      	ldrb	r3, [r3, #0]
10006b86:	2201      	movs	r2, #1
10006b88:	4053      	eors	r3, r2
10006b8a:	b2db      	uxtb	r3, r3
10006b8c:	2b00      	cmp	r3, #0
10006b8e:	d016      	beq.n	10006bbe <stdio_out_chars_crlf+0xa6>
10006b90:	69ba      	ldr	r2, [r7, #24]
10006b92:	69fb      	ldr	r3, [r7, #28]
10006b94:	429a      	cmp	r2, r3
10006b96:	dd09      	ble.n	10006bac <stdio_out_chars_crlf+0x94>
10006b98:	68fb      	ldr	r3, [r7, #12]
10006b9a:	681b      	ldr	r3, [r3, #0]
10006b9c:	69fa      	ldr	r2, [r7, #28]
10006b9e:	68b9      	ldr	r1, [r7, #8]
10006ba0:	1888      	adds	r0, r1, r2
10006ba2:	69b9      	ldr	r1, [r7, #24]
10006ba4:	69fa      	ldr	r2, [r7, #28]
10006ba6:	1a8a      	subs	r2, r1, r2
10006ba8:	0011      	movs	r1, r2
10006baa:	4798      	blx	r3
10006bac:	68fb      	ldr	r3, [r7, #12]
10006bae:	681b      	ldr	r3, [r3, #0]
10006bb0:	4a16      	ldr	r2, [pc, #88]	; (10006c0c <stdio_out_chars_crlf+0xf4>)
10006bb2:	2102      	movs	r1, #2
10006bb4:	0010      	movs	r0, r2
10006bb6:	4798      	blx	r3
10006bb8:	69bb      	ldr	r3, [r7, #24]
10006bba:	3301      	adds	r3, #1
10006bbc:	61fb      	str	r3, [r7, #28]
10006bbe:	69bb      	ldr	r3, [r7, #24]
10006bc0:	3301      	adds	r3, #1
10006bc2:	61bb      	str	r3, [r7, #24]
10006bc4:	69ba      	ldr	r2, [r7, #24]
10006bc6:	687b      	ldr	r3, [r7, #4]
10006bc8:	429a      	cmp	r2, r3
10006bca:	dbbe      	blt.n	10006b4a <stdio_out_chars_crlf+0x32>
10006bcc:	69fa      	ldr	r2, [r7, #28]
10006bce:	687b      	ldr	r3, [r7, #4]
10006bd0:	429a      	cmp	r2, r3
10006bd2:	da09      	bge.n	10006be8 <stdio_out_chars_crlf+0xd0>
10006bd4:	68fb      	ldr	r3, [r7, #12]
10006bd6:	681b      	ldr	r3, [r3, #0]
10006bd8:	69fa      	ldr	r2, [r7, #28]
10006bda:	68b9      	ldr	r1, [r7, #8]
10006bdc:	1888      	adds	r0, r1, r2
10006bde:	6879      	ldr	r1, [r7, #4]
10006be0:	69fa      	ldr	r2, [r7, #28]
10006be2:	1a8a      	subs	r2, r1, r2
10006be4:	0011      	movs	r1, r2
10006be6:	4798      	blx	r3
10006be8:	687b      	ldr	r3, [r7, #4]
10006bea:	2b00      	cmp	r3, #0
10006bec:	dd0a      	ble.n	10006c04 <stdio_out_chars_crlf+0xec>
10006bee:	687b      	ldr	r3, [r7, #4]
10006bf0:	3b01      	subs	r3, #1
10006bf2:	68ba      	ldr	r2, [r7, #8]
10006bf4:	18d3      	adds	r3, r2, r3
10006bf6:	781b      	ldrb	r3, [r3, #0]
10006bf8:	3b0d      	subs	r3, #13
10006bfa:	425a      	negs	r2, r3
10006bfc:	4153      	adcs	r3, r2
10006bfe:	b2da      	uxtb	r2, r3
10006c00:	68fb      	ldr	r3, [r7, #12]
10006c02:	741a      	strb	r2, [r3, #16]
10006c04:	46bd      	mov	sp, r7
10006c06:	b008      	add	sp, #32
10006c08:	bd80      	pop	{r7, pc}
10006c0a:	46c0      	nop			; (mov r8, r8)
10006c0c:	10008d44 	.word	0x10008d44

10006c10 <stdio_put_string>:
10006c10:	b590      	push	{r4, r7, lr}
10006c12:	b087      	sub	sp, #28
10006c14:	af00      	add	r7, sp, #0
10006c16:	60f8      	str	r0, [r7, #12]
10006c18:	60b9      	str	r1, [r7, #8]
10006c1a:	1dfb      	adds	r3, r7, #7
10006c1c:	701a      	strb	r2, [r3, #0]
10006c1e:	2313      	movs	r3, #19
10006c20:	18fc      	adds	r4, r7, r3
10006c22:	f7ff ff47 	bl	10006ab4 <stdout_serialize_begin>
10006c26:	0003      	movs	r3, r0
10006c28:	7023      	strb	r3, [r4, #0]
10006c2a:	68bb      	ldr	r3, [r7, #8]
10006c2c:	3301      	adds	r3, #1
10006c2e:	d105      	bne.n	10006c3c <stdio_put_string+0x2c>
10006c30:	68fb      	ldr	r3, [r7, #12]
10006c32:	0018      	movs	r0, r3
10006c34:	f000 ff22 	bl	10007a7c <strlen>
10006c38:	0003      	movs	r3, r0
10006c3a:	60bb      	str	r3, [r7, #8]
10006c3c:	4b1f      	ldr	r3, [pc, #124]	; (10006cbc <stdio_put_string+0xac>)
10006c3e:	681b      	ldr	r3, [r3, #0]
10006c40:	617b      	str	r3, [r7, #20]
10006c42:	e028      	b.n	10006c96 <stdio_put_string+0x86>
10006c44:	697b      	ldr	r3, [r7, #20]
10006c46:	681b      	ldr	r3, [r3, #0]
10006c48:	2b00      	cmp	r3, #0
10006c4a:	d01e      	beq.n	10006c8a <stdio_put_string+0x7a>
10006c4c:	4b1c      	ldr	r3, [pc, #112]	; (10006cc0 <stdio_put_string+0xb0>)
10006c4e:	681b      	ldr	r3, [r3, #0]
10006c50:	2b00      	cmp	r3, #0
10006c52:	d004      	beq.n	10006c5e <stdio_put_string+0x4e>
10006c54:	4b1a      	ldr	r3, [pc, #104]	; (10006cc0 <stdio_put_string+0xb0>)
10006c56:	681a      	ldr	r2, [r3, #0]
10006c58:	697b      	ldr	r3, [r7, #20]
10006c5a:	429a      	cmp	r2, r3
10006c5c:	d117      	bne.n	10006c8e <stdio_put_string+0x7e>
10006c5e:	68ba      	ldr	r2, [r7, #8]
10006c60:	68f9      	ldr	r1, [r7, #12]
10006c62:	697b      	ldr	r3, [r7, #20]
10006c64:	0018      	movs	r0, r3
10006c66:	f7ff ff57 	bl	10006b18 <stdio_out_chars_crlf>
10006c6a:	1dfb      	adds	r3, r7, #7
10006c6c:	781b      	ldrb	r3, [r3, #0]
10006c6e:	2b00      	cmp	r3, #0
10006c70:	d00e      	beq.n	10006c90 <stdio_put_string+0x80>
10006c72:	2312      	movs	r3, #18
10006c74:	18fb      	adds	r3, r7, r3
10006c76:	220a      	movs	r2, #10
10006c78:	701a      	strb	r2, [r3, #0]
10006c7a:	2312      	movs	r3, #18
10006c7c:	18f9      	adds	r1, r7, r3
10006c7e:	697b      	ldr	r3, [r7, #20]
10006c80:	2201      	movs	r2, #1
10006c82:	0018      	movs	r0, r3
10006c84:	f7ff ff48 	bl	10006b18 <stdio_out_chars_crlf>
10006c88:	e002      	b.n	10006c90 <stdio_put_string+0x80>
10006c8a:	46c0      	nop			; (mov r8, r8)
10006c8c:	e000      	b.n	10006c90 <stdio_put_string+0x80>
10006c8e:	46c0      	nop			; (mov r8, r8)
10006c90:	697b      	ldr	r3, [r7, #20]
10006c92:	68db      	ldr	r3, [r3, #12]
10006c94:	617b      	str	r3, [r7, #20]
10006c96:	697b      	ldr	r3, [r7, #20]
10006c98:	2b00      	cmp	r3, #0
10006c9a:	d1d3      	bne.n	10006c44 <stdio_put_string+0x34>
10006c9c:	2313      	movs	r3, #19
10006c9e:	18fb      	adds	r3, r7, r3
10006ca0:	781b      	ldrb	r3, [r3, #0]
10006ca2:	2b00      	cmp	r3, #0
10006ca4:	d001      	beq.n	10006caa <stdio_put_string+0x9a>
10006ca6:	f7ff ff2b 	bl	10006b00 <stdout_serialize_end>
10006caa:	68bb      	ldr	r3, [r7, #8]
10006cac:	1e5a      	subs	r2, r3, #1
10006cae:	4193      	sbcs	r3, r2
10006cb0:	b2db      	uxtb	r3, r3
10006cb2:	0018      	movs	r0, r3
10006cb4:	46bd      	mov	sp, r7
10006cb6:	b007      	add	sp, #28
10006cb8:	bd90      	pop	{r4, r7, pc}
10006cba:	46c0      	nop			; (mov r8, r8)
10006cbc:	20000ff4 	.word	0x20000ff4
10006cc0:	20000ff8 	.word	0x20000ff8

10006cc4 <__wrap_puts>:
10006cc4:	b580      	push	{r7, lr}
10006cc6:	b084      	sub	sp, #16
10006cc8:	af00      	add	r7, sp, #0
10006cca:	6078      	str	r0, [r7, #4]
10006ccc:	687b      	ldr	r3, [r7, #4]
10006cce:	0018      	movs	r0, r3
10006cd0:	f000 fed4 	bl	10007a7c <strlen>
10006cd4:	0003      	movs	r3, r0
10006cd6:	60fb      	str	r3, [r7, #12]
10006cd8:	68f9      	ldr	r1, [r7, #12]
10006cda:	687b      	ldr	r3, [r7, #4]
10006cdc:	2201      	movs	r2, #1
10006cde:	0018      	movs	r0, r3
10006ce0:	f7ff ff96 	bl	10006c10 <stdio_put_string>
10006ce4:	f000 f844 	bl	10006d70 <stdio_flush>
10006ce8:	68fb      	ldr	r3, [r7, #12]
10006cea:	0018      	movs	r0, r3
10006cec:	46bd      	mov	sp, r7
10006cee:	b004      	add	sp, #16
10006cf0:	bd80      	pop	{r7, pc}
	...

10006cf4 <stdio_set_driver_enabled>:
10006cf4:	b580      	push	{r7, lr}
10006cf6:	b084      	sub	sp, #16
10006cf8:	af00      	add	r7, sp, #0
10006cfa:	6078      	str	r0, [r7, #4]
10006cfc:	000a      	movs	r2, r1
10006cfe:	1cfb      	adds	r3, r7, #3
10006d00:	701a      	strb	r2, [r3, #0]
10006d02:	4b1a      	ldr	r3, [pc, #104]	; (10006d6c <stdio_set_driver_enabled+0x78>)
10006d04:	681b      	ldr	r3, [r3, #0]
10006d06:	60fb      	str	r3, [r7, #12]
10006d08:	4b18      	ldr	r3, [pc, #96]	; (10006d6c <stdio_set_driver_enabled+0x78>)
10006d0a:	681b      	ldr	r3, [r3, #0]
10006d0c:	60bb      	str	r3, [r7, #8]
10006d0e:	e017      	b.n	10006d40 <stdio_set_driver_enabled+0x4c>
10006d10:	68ba      	ldr	r2, [r7, #8]
10006d12:	687b      	ldr	r3, [r7, #4]
10006d14:	429a      	cmp	r2, r3
10006d16:	d10e      	bne.n	10006d36 <stdio_set_driver_enabled+0x42>
10006d18:	1cfb      	adds	r3, r7, #3
10006d1a:	781b      	ldrb	r3, [r3, #0]
10006d1c:	2201      	movs	r2, #1
10006d1e:	4053      	eors	r3, r2
10006d20:	b2db      	uxtb	r3, r3
10006d22:	2b00      	cmp	r3, #0
10006d24:	d01e      	beq.n	10006d64 <stdio_set_driver_enabled+0x70>
10006d26:	68bb      	ldr	r3, [r7, #8]
10006d28:	68da      	ldr	r2, [r3, #12]
10006d2a:	68fb      	ldr	r3, [r7, #12]
10006d2c:	60da      	str	r2, [r3, #12]
10006d2e:	687b      	ldr	r3, [r7, #4]
10006d30:	2200      	movs	r2, #0
10006d32:	60da      	str	r2, [r3, #12]
10006d34:	e016      	b.n	10006d64 <stdio_set_driver_enabled+0x70>
10006d36:	68bb      	ldr	r3, [r7, #8]
10006d38:	60fb      	str	r3, [r7, #12]
10006d3a:	68bb      	ldr	r3, [r7, #8]
10006d3c:	68db      	ldr	r3, [r3, #12]
10006d3e:	60bb      	str	r3, [r7, #8]
10006d40:	68bb      	ldr	r3, [r7, #8]
10006d42:	2b00      	cmp	r3, #0
10006d44:	d1e4      	bne.n	10006d10 <stdio_set_driver_enabled+0x1c>
10006d46:	1cfb      	adds	r3, r7, #3
10006d48:	781b      	ldrb	r3, [r3, #0]
10006d4a:	2b00      	cmp	r3, #0
10006d4c:	d00b      	beq.n	10006d66 <stdio_set_driver_enabled+0x72>
10006d4e:	68fb      	ldr	r3, [r7, #12]
10006d50:	2b00      	cmp	r3, #0
10006d52:	d003      	beq.n	10006d5c <stdio_set_driver_enabled+0x68>
10006d54:	68fb      	ldr	r3, [r7, #12]
10006d56:	687a      	ldr	r2, [r7, #4]
10006d58:	60da      	str	r2, [r3, #12]
10006d5a:	e004      	b.n	10006d66 <stdio_set_driver_enabled+0x72>
10006d5c:	4b03      	ldr	r3, [pc, #12]	; (10006d6c <stdio_set_driver_enabled+0x78>)
10006d5e:	687a      	ldr	r2, [r7, #4]
10006d60:	601a      	str	r2, [r3, #0]
10006d62:	e000      	b.n	10006d66 <stdio_set_driver_enabled+0x72>
10006d64:	46c0      	nop			; (mov r8, r8)
10006d66:	46bd      	mov	sp, r7
10006d68:	b004      	add	sp, #16
10006d6a:	bd80      	pop	{r7, pc}
10006d6c:	20000ff4 	.word	0x20000ff4

10006d70 <stdio_flush>:
10006d70:	b580      	push	{r7, lr}
10006d72:	b082      	sub	sp, #8
10006d74:	af00      	add	r7, sp, #0
10006d76:	4b0a      	ldr	r3, [pc, #40]	; (10006da0 <stdio_flush+0x30>)
10006d78:	681b      	ldr	r3, [r3, #0]
10006d7a:	607b      	str	r3, [r7, #4]
10006d7c:	e009      	b.n	10006d92 <stdio_flush+0x22>
10006d7e:	687b      	ldr	r3, [r7, #4]
10006d80:	685b      	ldr	r3, [r3, #4]
10006d82:	2b00      	cmp	r3, #0
10006d84:	d002      	beq.n	10006d8c <stdio_flush+0x1c>
10006d86:	687b      	ldr	r3, [r7, #4]
10006d88:	685b      	ldr	r3, [r3, #4]
10006d8a:	4798      	blx	r3
10006d8c:	687b      	ldr	r3, [r7, #4]
10006d8e:	68db      	ldr	r3, [r3, #12]
10006d90:	607b      	str	r3, [r7, #4]
10006d92:	687b      	ldr	r3, [r7, #4]
10006d94:	2b00      	cmp	r3, #0
10006d96:	d1f2      	bne.n	10006d7e <stdio_flush+0xe>
10006d98:	46c0      	nop			; (mov r8, r8)
10006d9a:	46bd      	mov	sp, r7
10006d9c:	b002      	add	sp, #8
10006d9e:	bd80      	pop	{r7, pc}
10006da0:	20000ff4 	.word	0x20000ff4

10006da4 <stdio_stack_buffer_flush>:
10006da4:	b580      	push	{r7, lr}
10006da6:	b084      	sub	sp, #16
10006da8:	af00      	add	r7, sp, #0
10006daa:	6078      	str	r0, [r7, #4]
10006dac:	687b      	ldr	r3, [r7, #4]
10006dae:	681b      	ldr	r3, [r3, #0]
10006db0:	2b00      	cmp	r3, #0
10006db2:	d026      	beq.n	10006e02 <stdio_stack_buffer_flush+0x5e>
10006db4:	4b15      	ldr	r3, [pc, #84]	; (10006e0c <stdio_stack_buffer_flush+0x68>)
10006db6:	681b      	ldr	r3, [r3, #0]
10006db8:	60fb      	str	r3, [r7, #12]
10006dba:	e01c      	b.n	10006df6 <stdio_stack_buffer_flush+0x52>
10006dbc:	68fb      	ldr	r3, [r7, #12]
10006dbe:	681b      	ldr	r3, [r3, #0]
10006dc0:	2b00      	cmp	r3, #0
10006dc2:	d012      	beq.n	10006dea <stdio_stack_buffer_flush+0x46>
10006dc4:	4b12      	ldr	r3, [pc, #72]	; (10006e10 <stdio_stack_buffer_flush+0x6c>)
10006dc6:	681b      	ldr	r3, [r3, #0]
10006dc8:	2b00      	cmp	r3, #0
10006dca:	d004      	beq.n	10006dd6 <stdio_stack_buffer_flush+0x32>
10006dcc:	4b10      	ldr	r3, [pc, #64]	; (10006e10 <stdio_stack_buffer_flush+0x6c>)
10006dce:	681a      	ldr	r2, [r3, #0]
10006dd0:	68fb      	ldr	r3, [r7, #12]
10006dd2:	429a      	cmp	r2, r3
10006dd4:	d10b      	bne.n	10006dee <stdio_stack_buffer_flush+0x4a>
10006dd6:	687b      	ldr	r3, [r7, #4]
10006dd8:	1d19      	adds	r1, r3, #4
10006dda:	687b      	ldr	r3, [r7, #4]
10006ddc:	681b      	ldr	r3, [r3, #0]
10006dde:	001a      	movs	r2, r3
10006de0:	68fb      	ldr	r3, [r7, #12]
10006de2:	0018      	movs	r0, r3
10006de4:	f7ff fe98 	bl	10006b18 <stdio_out_chars_crlf>
10006de8:	e002      	b.n	10006df0 <stdio_stack_buffer_flush+0x4c>
10006dea:	46c0      	nop			; (mov r8, r8)
10006dec:	e000      	b.n	10006df0 <stdio_stack_buffer_flush+0x4c>
10006dee:	46c0      	nop			; (mov r8, r8)
10006df0:	68fb      	ldr	r3, [r7, #12]
10006df2:	68db      	ldr	r3, [r3, #12]
10006df4:	60fb      	str	r3, [r7, #12]
10006df6:	68fb      	ldr	r3, [r7, #12]
10006df8:	2b00      	cmp	r3, #0
10006dfa:	d1df      	bne.n	10006dbc <stdio_stack_buffer_flush+0x18>
10006dfc:	687b      	ldr	r3, [r7, #4]
10006dfe:	2200      	movs	r2, #0
10006e00:	601a      	str	r2, [r3, #0]
10006e02:	46c0      	nop			; (mov r8, r8)
10006e04:	46bd      	mov	sp, r7
10006e06:	b004      	add	sp, #16
10006e08:	bd80      	pop	{r7, pc}
10006e0a:	46c0      	nop			; (mov r8, r8)
10006e0c:	20000ff4 	.word	0x20000ff4
10006e10:	20000ff8 	.word	0x20000ff8

10006e14 <stdio_buffered_printer>:
10006e14:	b580      	push	{r7, lr}
10006e16:	b084      	sub	sp, #16
10006e18:	af00      	add	r7, sp, #0
10006e1a:	0002      	movs	r2, r0
10006e1c:	6039      	str	r1, [r7, #0]
10006e1e:	1dfb      	adds	r3, r7, #7
10006e20:	701a      	strb	r2, [r3, #0]
10006e22:	683b      	ldr	r3, [r7, #0]
10006e24:	60fb      	str	r3, [r7, #12]
10006e26:	68fb      	ldr	r3, [r7, #12]
10006e28:	681b      	ldr	r3, [r3, #0]
10006e2a:	2b80      	cmp	r3, #128	; 0x80
10006e2c:	d103      	bne.n	10006e36 <stdio_buffered_printer+0x22>
10006e2e:	68fb      	ldr	r3, [r7, #12]
10006e30:	0018      	movs	r0, r3
10006e32:	f7ff ffb7 	bl	10006da4 <stdio_stack_buffer_flush>
10006e36:	68fb      	ldr	r3, [r7, #12]
10006e38:	681b      	ldr	r3, [r3, #0]
10006e3a:	1c59      	adds	r1, r3, #1
10006e3c:	68fa      	ldr	r2, [r7, #12]
10006e3e:	6011      	str	r1, [r2, #0]
10006e40:	68fa      	ldr	r2, [r7, #12]
10006e42:	18d3      	adds	r3, r2, r3
10006e44:	1dfa      	adds	r2, r7, #7
10006e46:	7812      	ldrb	r2, [r2, #0]
10006e48:	711a      	strb	r2, [r3, #4]
10006e4a:	46c0      	nop			; (mov r8, r8)
10006e4c:	46bd      	mov	sp, r7
10006e4e:	b004      	add	sp, #16
10006e50:	bd80      	pop	{r7, pc}
	...

10006e54 <__wrap_vprintf>:
10006e54:	b590      	push	{r4, r7, lr}
10006e56:	b0a7      	sub	sp, #156	; 0x9c
10006e58:	af00      	add	r7, sp, #0
10006e5a:	6078      	str	r0, [r7, #4]
10006e5c:	6039      	str	r1, [r7, #0]
10006e5e:	2397      	movs	r3, #151	; 0x97
10006e60:	18fc      	adds	r4, r7, r3
10006e62:	f7ff fe27 	bl	10006ab4 <stdout_serialize_begin>
10006e66:	0003      	movs	r3, r0
10006e68:	7023      	strb	r3, [r4, #0]
10006e6a:	230c      	movs	r3, #12
10006e6c:	18fb      	adds	r3, r7, r3
10006e6e:	0018      	movs	r0, r3
10006e70:	2384      	movs	r3, #132	; 0x84
10006e72:	001a      	movs	r2, r3
10006e74:	2100      	movs	r1, #0
10006e76:	f7ff fe09 	bl	10006a8c <__wrap_memset>
10006e7a:	683b      	ldr	r3, [r7, #0]
10006e7c:	687a      	ldr	r2, [r7, #4]
10006e7e:	210c      	movs	r1, #12
10006e80:	1879      	adds	r1, r7, r1
10006e82:	480e      	ldr	r0, [pc, #56]	; (10006ebc <__wrap_vprintf+0x68>)
10006e84:	f7fe fce8 	bl	10005858 <vfctprintf>
10006e88:	0003      	movs	r3, r0
10006e8a:	2290      	movs	r2, #144	; 0x90
10006e8c:	18ba      	adds	r2, r7, r2
10006e8e:	6013      	str	r3, [r2, #0]
10006e90:	230c      	movs	r3, #12
10006e92:	18fb      	adds	r3, r7, r3
10006e94:	0018      	movs	r0, r3
10006e96:	f7ff ff85 	bl	10006da4 <stdio_stack_buffer_flush>
10006e9a:	f7ff ff69 	bl	10006d70 <stdio_flush>
10006e9e:	2397      	movs	r3, #151	; 0x97
10006ea0:	18fb      	adds	r3, r7, r3
10006ea2:	781b      	ldrb	r3, [r3, #0]
10006ea4:	2b00      	cmp	r3, #0
10006ea6:	d001      	beq.n	10006eac <__wrap_vprintf+0x58>
10006ea8:	f7ff fe2a 	bl	10006b00 <stdout_serialize_end>
10006eac:	2390      	movs	r3, #144	; 0x90
10006eae:	18fb      	adds	r3, r7, r3
10006eb0:	681b      	ldr	r3, [r3, #0]
10006eb2:	0018      	movs	r0, r3
10006eb4:	46bd      	mov	sp, r7
10006eb6:	b027      	add	sp, #156	; 0x9c
10006eb8:	bd90      	pop	{r4, r7, pc}
10006eba:	46c0      	nop			; (mov r8, r8)
10006ebc:	10006e15 	.word	0x10006e15

10006ec0 <__wrap_printf>:
10006ec0:	b40f      	push	{r0, r1, r2, r3}
10006ec2:	b580      	push	{r7, lr}
10006ec4:	b082      	sub	sp, #8
10006ec6:	af00      	add	r7, sp, #0
10006ec8:	2314      	movs	r3, #20
10006eca:	18fb      	adds	r3, r7, r3
10006ecc:	603b      	str	r3, [r7, #0]
10006ece:	683a      	ldr	r2, [r7, #0]
10006ed0:	693b      	ldr	r3, [r7, #16]
10006ed2:	0011      	movs	r1, r2
10006ed4:	0018      	movs	r0, r3
10006ed6:	f7ff ffbd 	bl	10006e54 <__wrap_vprintf>
10006eda:	0003      	movs	r3, r0
10006edc:	607b      	str	r3, [r7, #4]
10006ede:	687b      	ldr	r3, [r7, #4]
10006ee0:	0018      	movs	r0, r3
10006ee2:	46bd      	mov	sp, r7
10006ee4:	b002      	add	sp, #8
10006ee6:	bc80      	pop	{r7}
10006ee8:	bc08      	pop	{r3}
10006eea:	b004      	add	sp, #16
10006eec:	4718      	bx	r3

10006eee <stdio_init_all>:
10006eee:	b580      	push	{r7, lr}
10006ef0:	af00      	add	r7, sp, #0
10006ef2:	f000 f8ef 	bl	100070d4 <stdio_uart_init>
10006ef6:	46c0      	nop			; (mov r8, r8)
10006ef8:	46bd      	mov	sp, r7
10006efa:	bd80      	pop	{r7, pc}

10006efc <tight_loop_contents>:
10006efc:	b580      	push	{r7, lr}
10006efe:	af00      	add	r7, sp, #0
10006f00:	46c0      	nop			; (mov r8, r8)
10006f02:	46bd      	mov	sp, r7
10006f04:	bd80      	pop	{r7, pc}
	...

10006f08 <uart_get_index>:
10006f08:	b580      	push	{r7, lr}
10006f0a:	b082      	sub	sp, #8
10006f0c:	af00      	add	r7, sp, #0
10006f0e:	6078      	str	r0, [r7, #4]
10006f10:	687b      	ldr	r3, [r7, #4]
10006f12:	4a05      	ldr	r2, [pc, #20]	; (10006f28 <uart_get_index+0x20>)
10006f14:	4694      	mov	ip, r2
10006f16:	4463      	add	r3, ip
10006f18:	425a      	negs	r2, r3
10006f1a:	4153      	adcs	r3, r2
10006f1c:	b2db      	uxtb	r3, r3
10006f1e:	0018      	movs	r0, r3
10006f20:	46bd      	mov	sp, r7
10006f22:	b002      	add	sp, #8
10006f24:	bd80      	pop	{r7, pc}
10006f26:	46c0      	nop			; (mov r8, r8)
10006f28:	bffc8000 	.word	0xbffc8000

10006f2c <uart_get_hw>:
10006f2c:	b580      	push	{r7, lr}
10006f2e:	b082      	sub	sp, #8
10006f30:	af00      	add	r7, sp, #0
10006f32:	6078      	str	r0, [r7, #4]
10006f34:	687b      	ldr	r3, [r7, #4]
10006f36:	0018      	movs	r0, r3
10006f38:	f7ff ffe6 	bl	10006f08 <uart_get_index>
10006f3c:	687b      	ldr	r3, [r7, #4]
10006f3e:	0018      	movs	r0, r3
10006f40:	46bd      	mov	sp, r7
10006f42:	b002      	add	sp, #8
10006f44:	bd80      	pop	{r7, pc}

10006f46 <uart_is_writable>:
10006f46:	b580      	push	{r7, lr}
10006f48:	b082      	sub	sp, #8
10006f4a:	af00      	add	r7, sp, #0
10006f4c:	6078      	str	r0, [r7, #4]
10006f4e:	687b      	ldr	r3, [r7, #4]
10006f50:	0018      	movs	r0, r3
10006f52:	f7ff ffeb 	bl	10006f2c <uart_get_hw>
10006f56:	0003      	movs	r3, r0
10006f58:	699b      	ldr	r3, [r3, #24]
10006f5a:	2220      	movs	r2, #32
10006f5c:	4013      	ands	r3, r2
10006f5e:	425a      	negs	r2, r3
10006f60:	4153      	adcs	r3, r2
10006f62:	b2db      	uxtb	r3, r3
10006f64:	0018      	movs	r0, r3
10006f66:	46bd      	mov	sp, r7
10006f68:	b002      	add	sp, #8
10006f6a:	bd80      	pop	{r7, pc}

10006f6c <uart_is_readable>:
10006f6c:	b580      	push	{r7, lr}
10006f6e:	b082      	sub	sp, #8
10006f70:	af00      	add	r7, sp, #0
10006f72:	6078      	str	r0, [r7, #4]
10006f74:	687b      	ldr	r3, [r7, #4]
10006f76:	0018      	movs	r0, r3
10006f78:	f7ff ffd8 	bl	10006f2c <uart_get_hw>
10006f7c:	0003      	movs	r3, r0
10006f7e:	699b      	ldr	r3, [r3, #24]
10006f80:	2210      	movs	r2, #16
10006f82:	4013      	ands	r3, r2
10006f84:	425a      	negs	r2, r3
10006f86:	4153      	adcs	r3, r2
10006f88:	b2db      	uxtb	r3, r3
10006f8a:	0018      	movs	r0, r3
10006f8c:	46bd      	mov	sp, r7
10006f8e:	b002      	add	sp, #8
10006f90:	bd80      	pop	{r7, pc}

10006f92 <uart_write_blocking>:
10006f92:	b580      	push	{r7, lr}
10006f94:	b086      	sub	sp, #24
10006f96:	af00      	add	r7, sp, #0
10006f98:	60f8      	str	r0, [r7, #12]
10006f9a:	60b9      	str	r1, [r7, #8]
10006f9c:	607a      	str	r2, [r7, #4]
10006f9e:	2300      	movs	r3, #0
10006fa0:	617b      	str	r3, [r7, #20]
10006fa2:	e019      	b.n	10006fd8 <uart_write_blocking+0x46>
10006fa4:	f7ff ffaa 	bl	10006efc <tight_loop_contents>
10006fa8:	68fb      	ldr	r3, [r7, #12]
10006faa:	0018      	movs	r0, r3
10006fac:	f7ff ffcb 	bl	10006f46 <uart_is_writable>
10006fb0:	0003      	movs	r3, r0
10006fb2:	001a      	movs	r2, r3
10006fb4:	2301      	movs	r3, #1
10006fb6:	4053      	eors	r3, r2
10006fb8:	b2db      	uxtb	r3, r3
10006fba:	2b00      	cmp	r3, #0
10006fbc:	d1f2      	bne.n	10006fa4 <uart_write_blocking+0x12>
10006fbe:	68fb      	ldr	r3, [r7, #12]
10006fc0:	0018      	movs	r0, r3
10006fc2:	f7ff ffb3 	bl	10006f2c <uart_get_hw>
10006fc6:	0002      	movs	r2, r0
10006fc8:	68bb      	ldr	r3, [r7, #8]
10006fca:	1c59      	adds	r1, r3, #1
10006fcc:	60b9      	str	r1, [r7, #8]
10006fce:	781b      	ldrb	r3, [r3, #0]
10006fd0:	6013      	str	r3, [r2, #0]
10006fd2:	697b      	ldr	r3, [r7, #20]
10006fd4:	3301      	adds	r3, #1
10006fd6:	617b      	str	r3, [r7, #20]
10006fd8:	697a      	ldr	r2, [r7, #20]
10006fda:	687b      	ldr	r3, [r7, #4]
10006fdc:	429a      	cmp	r2, r3
10006fde:	d3e3      	bcc.n	10006fa8 <uart_write_blocking+0x16>
10006fe0:	46c0      	nop			; (mov r8, r8)
10006fe2:	46bd      	mov	sp, r7
10006fe4:	b006      	add	sp, #24
10006fe6:	bd80      	pop	{r7, pc}

10006fe8 <uart_read_blocking>:
10006fe8:	b590      	push	{r4, r7, lr}
10006fea:	b087      	sub	sp, #28
10006fec:	af00      	add	r7, sp, #0
10006fee:	60f8      	str	r0, [r7, #12]
10006ff0:	60b9      	str	r1, [r7, #8]
10006ff2:	607a      	str	r2, [r7, #4]
10006ff4:	2300      	movs	r3, #0
10006ff6:	617b      	str	r3, [r7, #20]
10006ff8:	e01a      	b.n	10007030 <uart_read_blocking+0x48>
10006ffa:	f7ff ff7f 	bl	10006efc <tight_loop_contents>
10006ffe:	68fb      	ldr	r3, [r7, #12]
10007000:	0018      	movs	r0, r3
10007002:	f7ff ffb3 	bl	10006f6c <uart_is_readable>
10007006:	0003      	movs	r3, r0
10007008:	001a      	movs	r2, r3
1000700a:	2301      	movs	r3, #1
1000700c:	4053      	eors	r3, r2
1000700e:	b2db      	uxtb	r3, r3
10007010:	2b00      	cmp	r3, #0
10007012:	d1f2      	bne.n	10006ffa <uart_read_blocking+0x12>
10007014:	68bc      	ldr	r4, [r7, #8]
10007016:	1c63      	adds	r3, r4, #1
10007018:	60bb      	str	r3, [r7, #8]
1000701a:	68fb      	ldr	r3, [r7, #12]
1000701c:	0018      	movs	r0, r3
1000701e:	f7ff ff85 	bl	10006f2c <uart_get_hw>
10007022:	0003      	movs	r3, r0
10007024:	681b      	ldr	r3, [r3, #0]
10007026:	b2db      	uxtb	r3, r3
10007028:	7023      	strb	r3, [r4, #0]
1000702a:	697b      	ldr	r3, [r7, #20]
1000702c:	3301      	adds	r3, #1
1000702e:	617b      	str	r3, [r7, #20]
10007030:	697a      	ldr	r2, [r7, #20]
10007032:	687b      	ldr	r3, [r7, #4]
10007034:	429a      	cmp	r2, r3
10007036:	d3e2      	bcc.n	10006ffe <uart_read_blocking+0x16>
10007038:	46c0      	nop			; (mov r8, r8)
1000703a:	46bd      	mov	sp, r7
1000703c:	b007      	add	sp, #28
1000703e:	bd90      	pop	{r4, r7, pc}

10007040 <uart_putc_raw>:
10007040:	b580      	push	{r7, lr}
10007042:	b082      	sub	sp, #8
10007044:	af00      	add	r7, sp, #0
10007046:	6078      	str	r0, [r7, #4]
10007048:	000a      	movs	r2, r1
1000704a:	1cfb      	adds	r3, r7, #3
1000704c:	701a      	strb	r2, [r3, #0]
1000704e:	1cf9      	adds	r1, r7, #3
10007050:	687b      	ldr	r3, [r7, #4]
10007052:	2201      	movs	r2, #1
10007054:	0018      	movs	r0, r3
10007056:	f7ff ff9c 	bl	10006f92 <uart_write_blocking>
1000705a:	46c0      	nop			; (mov r8, r8)
1000705c:	46bd      	mov	sp, r7
1000705e:	b002      	add	sp, #8
10007060:	bd80      	pop	{r7, pc}
	...

10007064 <uart_putc>:
10007064:	b580      	push	{r7, lr}
10007066:	b082      	sub	sp, #8
10007068:	af00      	add	r7, sp, #0
1000706a:	6078      	str	r0, [r7, #4]
1000706c:	000a      	movs	r2, r1
1000706e:	1cfb      	adds	r3, r7, #3
10007070:	701a      	strb	r2, [r3, #0]
10007072:	687b      	ldr	r3, [r7, #4]
10007074:	0018      	movs	r0, r3
10007076:	f7ff ff47 	bl	10006f08 <uart_get_index>
1000707a:	0002      	movs	r2, r0
1000707c:	4b0b      	ldr	r3, [pc, #44]	; (100070ac <uart_putc+0x48>)
1000707e:	0052      	lsls	r2, r2, #1
10007080:	5ed3      	ldrsh	r3, [r2, r3]
10007082:	001a      	movs	r2, r3
10007084:	1cfb      	adds	r3, r7, #3
10007086:	781b      	ldrb	r3, [r3, #0]
10007088:	429a      	cmp	r2, r3
1000708a:	d104      	bne.n	10007096 <uart_putc+0x32>
1000708c:	687b      	ldr	r3, [r7, #4]
1000708e:	210d      	movs	r1, #13
10007090:	0018      	movs	r0, r3
10007092:	f7ff ffd5 	bl	10007040 <uart_putc_raw>
10007096:	1cfb      	adds	r3, r7, #3
10007098:	781a      	ldrb	r2, [r3, #0]
1000709a:	687b      	ldr	r3, [r7, #4]
1000709c:	0011      	movs	r1, r2
1000709e:	0018      	movs	r0, r3
100070a0:	f7ff ffce 	bl	10007040 <uart_putc_raw>
100070a4:	46c0      	nop			; (mov r8, r8)
100070a6:	46bd      	mov	sp, r7
100070a8:	b002      	add	sp, #8
100070aa:	bd80      	pop	{r7, pc}
100070ac:	20001a60 	.word	0x20001a60

100070b0 <uart_getc>:
100070b0:	b580      	push	{r7, lr}
100070b2:	b084      	sub	sp, #16
100070b4:	af00      	add	r7, sp, #0
100070b6:	6078      	str	r0, [r7, #4]
100070b8:	230f      	movs	r3, #15
100070ba:	18f9      	adds	r1, r7, r3
100070bc:	687b      	ldr	r3, [r7, #4]
100070be:	2201      	movs	r2, #1
100070c0:	0018      	movs	r0, r3
100070c2:	f7ff ff91 	bl	10006fe8 <uart_read_blocking>
100070c6:	230f      	movs	r3, #15
100070c8:	18fb      	adds	r3, r7, r3
100070ca:	781b      	ldrb	r3, [r3, #0]
100070cc:	0018      	movs	r0, r3
100070ce:	46bd      	mov	sp, r7
100070d0:	b004      	add	sp, #16
100070d2:	bd80      	pop	{r7, pc}

100070d4 <stdio_uart_init>:
100070d4:	b590      	push	{r4, r7, lr}
100070d6:	b083      	sub	sp, #12
100070d8:	af00      	add	r7, sp, #0
100070da:	2301      	movs	r3, #1
100070dc:	425b      	negs	r3, r3
100070de:	607b      	str	r3, [r7, #4]
100070e0:	2301      	movs	r3, #1
100070e2:	425b      	negs	r3, r3
100070e4:	603b      	str	r3, [r7, #0]
100070e6:	2300      	movs	r3, #0
100070e8:	607b      	str	r3, [r7, #4]
100070ea:	2301      	movs	r3, #1
100070ec:	603b      	str	r3, [r7, #0]
100070ee:	4b08      	ldr	r3, [pc, #32]	; (10007110 <stdio_uart_init+0x3c>)
100070f0:	781b      	ldrb	r3, [r3, #0]
100070f2:	4b08      	ldr	r3, [pc, #32]	; (10007114 <stdio_uart_init+0x40>)
100070f4:	781b      	ldrb	r3, [r3, #0]
100070f6:	6838      	ldr	r0, [r7, #0]
100070f8:	687a      	ldr	r2, [r7, #4]
100070fa:	23e1      	movs	r3, #225	; 0xe1
100070fc:	0259      	lsls	r1, r3, #9
100070fe:	4c06      	ldr	r4, [pc, #24]	; (10007118 <stdio_uart_init+0x44>)
10007100:	0003      	movs	r3, r0
10007102:	0020      	movs	r0, r4
10007104:	f000 f80a 	bl	1000711c <stdio_uart_init_full>
10007108:	46c0      	nop			; (mov r8, r8)
1000710a:	46bd      	mov	sp, r7
1000710c:	b003      	add	sp, #12
1000710e:	bd90      	pop	{r4, r7, pc}
10007110:	10008e84 	.word	0x10008e84
10007114:	10008e88 	.word	0x10008e88
10007118:	40034000 	.word	0x40034000

1000711c <stdio_uart_init_full>:
1000711c:	b580      	push	{r7, lr}
1000711e:	b084      	sub	sp, #16
10007120:	af00      	add	r7, sp, #0
10007122:	60f8      	str	r0, [r7, #12]
10007124:	60b9      	str	r1, [r7, #8]
10007126:	607a      	str	r2, [r7, #4]
10007128:	603b      	str	r3, [r7, #0]
1000712a:	4b11      	ldr	r3, [pc, #68]	; (10007170 <stdio_uart_init_full+0x54>)
1000712c:	68fa      	ldr	r2, [r7, #12]
1000712e:	601a      	str	r2, [r3, #0]
10007130:	4b0f      	ldr	r3, [pc, #60]	; (10007170 <stdio_uart_init_full+0x54>)
10007132:	681b      	ldr	r3, [r3, #0]
10007134:	68ba      	ldr	r2, [r7, #8]
10007136:	0011      	movs	r1, r2
10007138:	0018      	movs	r0, r3
1000713a:	f7fa fa4d 	bl	100015d8 <uart_init>
1000713e:	687b      	ldr	r3, [r7, #4]
10007140:	3301      	adds	r3, #1
10007142:	d004      	beq.n	1000714e <stdio_uart_init_full+0x32>
10007144:	687b      	ldr	r3, [r7, #4]
10007146:	2102      	movs	r1, #2
10007148:	0018      	movs	r0, r3
1000714a:	f7f9 ffdd 	bl	10001108 <gpio_set_function>
1000714e:	683b      	ldr	r3, [r7, #0]
10007150:	3301      	adds	r3, #1
10007152:	d004      	beq.n	1000715e <stdio_uart_init_full+0x42>
10007154:	683b      	ldr	r3, [r7, #0]
10007156:	2102      	movs	r1, #2
10007158:	0018      	movs	r0, r3
1000715a:	f7f9 ffd5 	bl	10001108 <gpio_set_function>
1000715e:	4b05      	ldr	r3, [pc, #20]	; (10007174 <stdio_uart_init_full+0x58>)
10007160:	2101      	movs	r1, #1
10007162:	0018      	movs	r0, r3
10007164:	f7ff fdc6 	bl	10006cf4 <stdio_set_driver_enabled>
10007168:	46c0      	nop			; (mov r8, r8)
1000716a:	46bd      	mov	sp, r7
1000716c:	b004      	add	sp, #16
1000716e:	bd80      	pop	{r7, pc}
10007170:	20001940 	.word	0x20001940
10007174:	200002f0 	.word	0x200002f0

10007178 <stdio_uart_out_chars>:
10007178:	b580      	push	{r7, lr}
1000717a:	b084      	sub	sp, #16
1000717c:	af00      	add	r7, sp, #0
1000717e:	6078      	str	r0, [r7, #4]
10007180:	6039      	str	r1, [r7, #0]
10007182:	2300      	movs	r3, #0
10007184:	60fb      	str	r3, [r7, #12]
10007186:	e00b      	b.n	100071a0 <stdio_uart_out_chars+0x28>
10007188:	687a      	ldr	r2, [r7, #4]
1000718a:	68fb      	ldr	r3, [r7, #12]
1000718c:	18d3      	adds	r3, r2, r3
1000718e:	781b      	ldrb	r3, [r3, #0]
10007190:	4a07      	ldr	r2, [pc, #28]	; (100071b0 <stdio_uart_out_chars+0x38>)
10007192:	0019      	movs	r1, r3
10007194:	0010      	movs	r0, r2
10007196:	f7ff ff65 	bl	10007064 <uart_putc>
1000719a:	68fb      	ldr	r3, [r7, #12]
1000719c:	3301      	adds	r3, #1
1000719e:	60fb      	str	r3, [r7, #12]
100071a0:	683b      	ldr	r3, [r7, #0]
100071a2:	68fa      	ldr	r2, [r7, #12]
100071a4:	429a      	cmp	r2, r3
100071a6:	d3ef      	bcc.n	10007188 <stdio_uart_out_chars+0x10>
100071a8:	46c0      	nop			; (mov r8, r8)
100071aa:	46bd      	mov	sp, r7
100071ac:	b004      	add	sp, #16
100071ae:	bd80      	pop	{r7, pc}
100071b0:	40034000 	.word	0x40034000

100071b4 <stdio_uart_in_chars>:
100071b4:	b590      	push	{r4, r7, lr}
100071b6:	b085      	sub	sp, #20
100071b8:	af00      	add	r7, sp, #0
100071ba:	6078      	str	r0, [r7, #4]
100071bc:	6039      	str	r1, [r7, #0]
100071be:	2300      	movs	r3, #0
100071c0:	60fb      	str	r3, [r7, #12]
100071c2:	e00b      	b.n	100071dc <stdio_uart_in_chars+0x28>
100071c4:	68fb      	ldr	r3, [r7, #12]
100071c6:	1c5a      	adds	r2, r3, #1
100071c8:	60fa      	str	r2, [r7, #12]
100071ca:	001a      	movs	r2, r3
100071cc:	687b      	ldr	r3, [r7, #4]
100071ce:	189c      	adds	r4, r3, r2
100071d0:	4b0d      	ldr	r3, [pc, #52]	; (10007208 <stdio_uart_in_chars+0x54>)
100071d2:	0018      	movs	r0, r3
100071d4:	f7ff ff6c 	bl	100070b0 <uart_getc>
100071d8:	0003      	movs	r3, r0
100071da:	7023      	strb	r3, [r4, #0]
100071dc:	68fa      	ldr	r2, [r7, #12]
100071de:	683b      	ldr	r3, [r7, #0]
100071e0:	429a      	cmp	r2, r3
100071e2:	da05      	bge.n	100071f0 <stdio_uart_in_chars+0x3c>
100071e4:	4b08      	ldr	r3, [pc, #32]	; (10007208 <stdio_uart_in_chars+0x54>)
100071e6:	0018      	movs	r0, r3
100071e8:	f7ff fec0 	bl	10006f6c <uart_is_readable>
100071ec:	1e03      	subs	r3, r0, #0
100071ee:	d1e9      	bne.n	100071c4 <stdio_uart_in_chars+0x10>
100071f0:	68fb      	ldr	r3, [r7, #12]
100071f2:	2b00      	cmp	r3, #0
100071f4:	d001      	beq.n	100071fa <stdio_uart_in_chars+0x46>
100071f6:	68fb      	ldr	r3, [r7, #12]
100071f8:	e001      	b.n	100071fe <stdio_uart_in_chars+0x4a>
100071fa:	2303      	movs	r3, #3
100071fc:	425b      	negs	r3, r3
100071fe:	0018      	movs	r0, r3
10007200:	46bd      	mov	sp, r7
10007202:	b005      	add	sp, #20
10007204:	bd90      	pop	{r4, r7, pc}
10007206:	46c0      	nop			; (mov r8, r8)
10007208:	40034000 	.word	0x40034000

1000720c <tight_loop_contents>:
1000720c:	b580      	push	{r7, lr}
1000720e:	af00      	add	r7, sp, #0
10007210:	46c0      	nop			; (mov r8, r8)
10007212:	46bd      	mov	sp, r7
10007214:	bd80      	pop	{r7, pc}

10007216 <__sev>:
10007216:	b580      	push	{r7, lr}
10007218:	af00      	add	r7, sp, #0
1000721a:	bf40      	sev
1000721c:	46c0      	nop			; (mov r8, r8)
1000721e:	46bd      	mov	sp, r7
10007220:	bd80      	pop	{r7, pc}

10007222 <__wfe>:
10007222:	b580      	push	{r7, lr}
10007224:	af00      	add	r7, sp, #0
10007226:	bf20      	wfe
10007228:	46c0      	nop			; (mov r8, r8)
1000722a:	46bd      	mov	sp, r7
1000722c:	bd80      	pop	{r7, pc}

1000722e <multicore_fifo_rvalid>:
1000722e:	b580      	push	{r7, lr}
10007230:	af00      	add	r7, sp, #0
10007232:	23d0      	movs	r3, #208	; 0xd0
10007234:	061b      	lsls	r3, r3, #24
10007236:	6d1b      	ldr	r3, [r3, #80]	; 0x50
10007238:	2201      	movs	r2, #1
1000723a:	4013      	ands	r3, r2
1000723c:	1e5a      	subs	r2, r3, #1
1000723e:	4193      	sbcs	r3, r2
10007240:	b2db      	uxtb	r3, r3
10007242:	0018      	movs	r0, r3
10007244:	46bd      	mov	sp, r7
10007246:	bd80      	pop	{r7, pc}

10007248 <multicore_fifo_wready>:
10007248:	b580      	push	{r7, lr}
1000724a:	af00      	add	r7, sp, #0
1000724c:	23d0      	movs	r3, #208	; 0xd0
1000724e:	061b      	lsls	r3, r3, #24
10007250:	6d1b      	ldr	r3, [r3, #80]	; 0x50
10007252:	2202      	movs	r2, #2
10007254:	4013      	ands	r3, r2
10007256:	1e5a      	subs	r2, r3, #1
10007258:	4193      	sbcs	r3, r2
1000725a:	b2db      	uxtb	r3, r3
1000725c:	0018      	movs	r0, r3
1000725e:	46bd      	mov	sp, r7
10007260:	bd80      	pop	{r7, pc}

10007262 <multicore_fifo_drain>:
10007262:	b580      	push	{r7, lr}
10007264:	af00      	add	r7, sp, #0
10007266:	e002      	b.n	1000726e <multicore_fifo_drain+0xc>
10007268:	23d0      	movs	r3, #208	; 0xd0
1000726a:	061b      	lsls	r3, r3, #24
1000726c:	6d9b      	ldr	r3, [r3, #88]	; 0x58
1000726e:	f7ff ffde 	bl	1000722e <multicore_fifo_rvalid>
10007272:	1e03      	subs	r3, r0, #0
10007274:	d1f8      	bne.n	10007268 <multicore_fifo_drain+0x6>
10007276:	46c0      	nop			; (mov r8, r8)
10007278:	46bd      	mov	sp, r7
1000727a:	bd80      	pop	{r7, pc}

1000727c <multicore_fifo_push_blocking_inline>:
1000727c:	b580      	push	{r7, lr}
1000727e:	b082      	sub	sp, #8
10007280:	af00      	add	r7, sp, #0
10007282:	6078      	str	r0, [r7, #4]
10007284:	e001      	b.n	1000728a <multicore_fifo_push_blocking_inline+0xe>
10007286:	f7ff ffc1 	bl	1000720c <tight_loop_contents>
1000728a:	f7ff ffdd 	bl	10007248 <multicore_fifo_wready>
1000728e:	0003      	movs	r3, r0
10007290:	001a      	movs	r2, r3
10007292:	2301      	movs	r3, #1
10007294:	4053      	eors	r3, r2
10007296:	b2db      	uxtb	r3, r3
10007298:	2b00      	cmp	r3, #0
1000729a:	d1f4      	bne.n	10007286 <multicore_fifo_push_blocking_inline+0xa>
1000729c:	23d0      	movs	r3, #208	; 0xd0
1000729e:	061b      	lsls	r3, r3, #24
100072a0:	687a      	ldr	r2, [r7, #4]
100072a2:	655a      	str	r2, [r3, #84]	; 0x54
100072a4:	f7ff ffb7 	bl	10007216 <__sev>
100072a8:	46c0      	nop			; (mov r8, r8)
100072aa:	46bd      	mov	sp, r7
100072ac:	b002      	add	sp, #8
100072ae:	bd80      	pop	{r7, pc}

100072b0 <multicore_fifo_push_blocking>:
100072b0:	b580      	push	{r7, lr}
100072b2:	b082      	sub	sp, #8
100072b4:	af00      	add	r7, sp, #0
100072b6:	6078      	str	r0, [r7, #4]
100072b8:	687b      	ldr	r3, [r7, #4]
100072ba:	0018      	movs	r0, r3
100072bc:	f7ff ffde 	bl	1000727c <multicore_fifo_push_blocking_inline>
100072c0:	46c0      	nop			; (mov r8, r8)
100072c2:	46bd      	mov	sp, r7
100072c4:	b002      	add	sp, #8
100072c6:	bd80      	pop	{r7, pc}

100072c8 <multicore_fifo_pop_blocking_inline>:
100072c8:	b580      	push	{r7, lr}
100072ca:	af00      	add	r7, sp, #0
100072cc:	e001      	b.n	100072d2 <multicore_fifo_pop_blocking_inline+0xa>
100072ce:	f7ff ffa8 	bl	10007222 <__wfe>
100072d2:	f7ff ffac 	bl	1000722e <multicore_fifo_rvalid>
100072d6:	0003      	movs	r3, r0
100072d8:	001a      	movs	r2, r3
100072da:	2301      	movs	r3, #1
100072dc:	4053      	eors	r3, r2
100072de:	b2db      	uxtb	r3, r3
100072e0:	2b00      	cmp	r3, #0
100072e2:	d1f4      	bne.n	100072ce <multicore_fifo_pop_blocking_inline+0x6>
100072e4:	23d0      	movs	r3, #208	; 0xd0
100072e6:	061b      	lsls	r3, r3, #24
100072e8:	6d9b      	ldr	r3, [r3, #88]	; 0x58
100072ea:	0018      	movs	r0, r3
100072ec:	46bd      	mov	sp, r7
100072ee:	bd80      	pop	{r7, pc}

100072f0 <multicore_fifo_pop_blocking>:
100072f0:	b580      	push	{r7, lr}
100072f2:	af00      	add	r7, sp, #0
100072f4:	f7ff ffe8 	bl	100072c8 <multicore_fifo_pop_blocking_inline>
100072f8:	0003      	movs	r3, r0
100072fa:	0018      	movs	r0, r3
100072fc:	46bd      	mov	sp, r7
100072fe:	bd80      	pop	{r7, pc}

10007300 <core1_trampoline>:
10007300:	bd03      	pop	{r0, r1, pc}
10007302:	46c0      	nop			; (mov r8, r8)

10007304 <core1_wrapper>:
10007304:	b580      	push	{r7, lr}
10007306:	b082      	sub	sp, #8
10007308:	af00      	add	r7, sp, #0
1000730a:	6078      	str	r0, [r7, #4]
1000730c:	6039      	str	r1, [r7, #0]
1000730e:	f7fc fe95 	bl	1000403c <irq_init_priorities>
10007312:	687b      	ldr	r3, [r7, #4]
10007314:	4798      	blx	r3
10007316:	0003      	movs	r3, r0
10007318:	0018      	movs	r0, r3
1000731a:	46bd      	mov	sp, r7
1000731c:	b002      	add	sp, #8
1000731e:	bd80      	pop	{r7, pc}

10007320 <multicore_launch_core1_with_stack>:
10007320:	b580      	push	{r7, lr}
10007322:	b086      	sub	sp, #24
10007324:	af00      	add	r7, sp, #0
10007326:	60f8      	str	r0, [r7, #12]
10007328:	60b9      	str	r1, [r7, #8]
1000732a:	607a      	str	r2, [r7, #4]
1000732c:	687b      	ldr	r3, [r7, #4]
1000732e:	2203      	movs	r2, #3
10007330:	4013      	ands	r3, r2
10007332:	d005      	beq.n	10007340 <multicore_launch_core1_with_stack+0x20>
10007334:	4b12      	ldr	r3, [pc, #72]	; (10007380 <multicore_launch_core1_with_stack+0x60>)
10007336:	4a13      	ldr	r2, [pc, #76]	; (10007384 <multicore_launch_core1_with_stack+0x64>)
10007338:	4813      	ldr	r0, [pc, #76]	; (10007388 <multicore_launch_core1_with_stack+0x68>)
1000733a:	2176      	movs	r1, #118	; 0x76
1000733c:	f7fb ff42 	bl	100031c4 <__assert_func>
10007340:	687b      	ldr	r3, [r7, #4]
10007342:	2203      	movs	r2, #3
10007344:	4393      	bics	r3, r2
10007346:	68ba      	ldr	r2, [r7, #8]
10007348:	18d3      	adds	r3, r2, r3
1000734a:	617b      	str	r3, [r7, #20]
1000734c:	697b      	ldr	r3, [r7, #20]
1000734e:	3b0c      	subs	r3, #12
10007350:	617b      	str	r3, [r7, #20]
10007352:	68fa      	ldr	r2, [r7, #12]
10007354:	697b      	ldr	r3, [r7, #20]
10007356:	601a      	str	r2, [r3, #0]
10007358:	697b      	ldr	r3, [r7, #20]
1000735a:	3304      	adds	r3, #4
1000735c:	68ba      	ldr	r2, [r7, #8]
1000735e:	601a      	str	r2, [r3, #0]
10007360:	697b      	ldr	r3, [r7, #20]
10007362:	3308      	adds	r3, #8
10007364:	4a09      	ldr	r2, [pc, #36]	; (1000738c <multicore_launch_core1_with_stack+0x6c>)
10007366:	601a      	str	r2, [r3, #0]
10007368:	4b09      	ldr	r3, [pc, #36]	; (10007390 <multicore_launch_core1_with_stack+0x70>)
1000736a:	689a      	ldr	r2, [r3, #8]
1000736c:	6979      	ldr	r1, [r7, #20]
1000736e:	4b09      	ldr	r3, [pc, #36]	; (10007394 <multicore_launch_core1_with_stack+0x74>)
10007370:	0018      	movs	r0, r3
10007372:	f000 f82f 	bl	100073d4 <multicore_launch_core1_raw>
10007376:	46c0      	nop			; (mov r8, r8)
10007378:	46bd      	mov	sp, r7
1000737a:	b006      	add	sp, #24
1000737c:	bd80      	pop	{r7, pc}
1000737e:	46c0      	nop			; (mov r8, r8)
10007380:	10008d88 	.word	0x10008d88
10007384:	10008e44 	.word	0x10008e44
10007388:	10008da4 	.word	0x10008da4
1000738c:	10007305 	.word	0x10007305
10007390:	e000ed00 	.word	0xe000ed00
10007394:	10007301 	.word	0x10007301

10007398 <multicore_launch_core1>:
10007398:	b580      	push	{r7, lr}
1000739a:	b084      	sub	sp, #16
1000739c:	af00      	add	r7, sp, #0
1000739e:	6078      	str	r0, [r7, #4]
100073a0:	4b0a      	ldr	r3, [pc, #40]	; (100073cc <multicore_launch_core1+0x34>)
100073a2:	60fb      	str	r3, [r7, #12]
100073a4:	68fa      	ldr	r2, [r7, #12]
100073a6:	4b0a      	ldr	r3, [pc, #40]	; (100073d0 <multicore_launch_core1+0x38>)
100073a8:	429a      	cmp	r2, r3
100073aa:	d301      	bcc.n	100073b0 <multicore_launch_core1+0x18>
100073ac:	68fb      	ldr	r3, [r7, #12]
100073ae:	e001      	b.n	100073b4 <multicore_launch_core1+0x1c>
100073b0:	2301      	movs	r3, #1
100073b2:	425b      	negs	r3, r3
100073b4:	60bb      	str	r3, [r7, #8]
100073b6:	2380      	movs	r3, #128	; 0x80
100073b8:	011a      	lsls	r2, r3, #4
100073ba:	68b9      	ldr	r1, [r7, #8]
100073bc:	687b      	ldr	r3, [r7, #4]
100073be:	0018      	movs	r0, r3
100073c0:	f7ff ffae 	bl	10007320 <multicore_launch_core1_with_stack>
100073c4:	46c0      	nop			; (mov r8, r8)
100073c6:	46bd      	mov	sp, r7
100073c8:	b004      	add	sp, #16
100073ca:	bd80      	pop	{r7, pc}
100073cc:	20040800 	.word	0x20040800
100073d0:	20040000 	.word	0x20040000

100073d4 <multicore_launch_core1_raw>:
100073d4:	b580      	push	{r7, lr}
100073d6:	b08e      	sub	sp, #56	; 0x38
100073d8:	af00      	add	r7, sp, #0
100073da:	60f8      	str	r0, [r7, #12]
100073dc:	60b9      	str	r1, [r7, #8]
100073de:	607a      	str	r2, [r7, #4]
100073e0:	2314      	movs	r3, #20
100073e2:	18fb      	adds	r3, r7, r3
100073e4:	2200      	movs	r2, #0
100073e6:	601a      	str	r2, [r3, #0]
100073e8:	2314      	movs	r3, #20
100073ea:	18fb      	adds	r3, r7, r3
100073ec:	2200      	movs	r2, #0
100073ee:	605a      	str	r2, [r3, #4]
100073f0:	2314      	movs	r3, #20
100073f2:	18fb      	adds	r3, r7, r3
100073f4:	2201      	movs	r2, #1
100073f6:	609a      	str	r2, [r3, #8]
100073f8:	2314      	movs	r3, #20
100073fa:	18fb      	adds	r3, r7, r3
100073fc:	687a      	ldr	r2, [r7, #4]
100073fe:	60da      	str	r2, [r3, #12]
10007400:	68ba      	ldr	r2, [r7, #8]
10007402:	2314      	movs	r3, #20
10007404:	18fb      	adds	r3, r7, r3
10007406:	611a      	str	r2, [r3, #16]
10007408:	68fa      	ldr	r2, [r7, #12]
1000740a:	2314      	movs	r3, #20
1000740c:	18fb      	adds	r3, r7, r3
1000740e:	615a      	str	r2, [r3, #20]
10007410:	2300      	movs	r3, #0
10007412:	637b      	str	r3, [r7, #52]	; 0x34
10007414:	2314      	movs	r3, #20
10007416:	18fb      	adds	r3, r7, r3
10007418:	6b7a      	ldr	r2, [r7, #52]	; 0x34
1000741a:	0092      	lsls	r2, r2, #2
1000741c:	58d3      	ldr	r3, [r2, r3]
1000741e:	633b      	str	r3, [r7, #48]	; 0x30
10007420:	6b3b      	ldr	r3, [r7, #48]	; 0x30
10007422:	2b00      	cmp	r3, #0
10007424:	d103      	bne.n	1000742e <multicore_launch_core1_raw+0x5a>
10007426:	f7ff ff1c 	bl	10007262 <multicore_fifo_drain>
1000742a:	f7ff fef4 	bl	10007216 <__sev>
1000742e:	6b3b      	ldr	r3, [r7, #48]	; 0x30
10007430:	0018      	movs	r0, r3
10007432:	f7ff ff3d 	bl	100072b0 <multicore_fifo_push_blocking>
10007436:	f7ff ff5b 	bl	100072f0 <multicore_fifo_pop_blocking>
1000743a:	0003      	movs	r3, r0
1000743c:	62fb      	str	r3, [r7, #44]	; 0x2c
1000743e:	6b3a      	ldr	r2, [r7, #48]	; 0x30
10007440:	6afb      	ldr	r3, [r7, #44]	; 0x2c
10007442:	429a      	cmp	r2, r3
10007444:	d102      	bne.n	1000744c <multicore_launch_core1_raw+0x78>
10007446:	6b7b      	ldr	r3, [r7, #52]	; 0x34
10007448:	3301      	adds	r3, #1
1000744a:	e000      	b.n	1000744e <multicore_launch_core1_raw+0x7a>
1000744c:	2300      	movs	r3, #0
1000744e:	637b      	str	r3, [r7, #52]	; 0x34
10007450:	6b7b      	ldr	r3, [r7, #52]	; 0x34
10007452:	2b05      	cmp	r3, #5
10007454:	d9de      	bls.n	10007414 <multicore_launch_core1_raw+0x40>
10007456:	46c0      	nop			; (mov r8, r8)
10007458:	46bd      	mov	sp, r7
1000745a:	b00e      	add	sp, #56	; 0x38
1000745c:	bd80      	pop	{r7, pc}
	...

10007460 <calloc>:
10007460:	b510      	push	{r4, lr}
10007462:	4b04      	ldr	r3, [pc, #16]	; (10007474 <calloc+0x14>)
10007464:	000a      	movs	r2, r1
10007466:	681b      	ldr	r3, [r3, #0]
10007468:	0001      	movs	r1, r0
1000746a:	0018      	movs	r0, r3
1000746c:	f000 f804 	bl	10007478 <_calloc_r>
10007470:	bd10      	pop	{r4, pc}
10007472:	46c0      	nop			; (mov r8, r8)
10007474:	20000308 	.word	0x20000308

10007478 <_calloc_r>:
10007478:	b510      	push	{r4, lr}
1000747a:	4351      	muls	r1, r2
1000747c:	f000 f83c 	bl	100074f8 <_malloc_r>
10007480:	1e04      	subs	r4, r0, #0
10007482:	d01c      	beq.n	100074be <_calloc_r+0x46>
10007484:	0003      	movs	r3, r0
10007486:	3b08      	subs	r3, #8
10007488:	685a      	ldr	r2, [r3, #4]
1000748a:	2303      	movs	r3, #3
1000748c:	439a      	bics	r2, r3
1000748e:	3a04      	subs	r2, #4
10007490:	2a24      	cmp	r2, #36	; 0x24
10007492:	d816      	bhi.n	100074c2 <_calloc_r+0x4a>
10007494:	0003      	movs	r3, r0
10007496:	2a13      	cmp	r2, #19
10007498:	d90d      	bls.n	100074b6 <_calloc_r+0x3e>
1000749a:	2100      	movs	r1, #0
1000749c:	3308      	adds	r3, #8
1000749e:	6001      	str	r1, [r0, #0]
100074a0:	6041      	str	r1, [r0, #4]
100074a2:	2a1b      	cmp	r2, #27
100074a4:	d907      	bls.n	100074b6 <_calloc_r+0x3e>
100074a6:	6081      	str	r1, [r0, #8]
100074a8:	60c1      	str	r1, [r0, #12]
100074aa:	2a24      	cmp	r2, #36	; 0x24
100074ac:	d10d      	bne.n	100074ca <_calloc_r+0x52>
100074ae:	0003      	movs	r3, r0
100074b0:	6101      	str	r1, [r0, #16]
100074b2:	3318      	adds	r3, #24
100074b4:	6141      	str	r1, [r0, #20]
100074b6:	2200      	movs	r2, #0
100074b8:	601a      	str	r2, [r3, #0]
100074ba:	605a      	str	r2, [r3, #4]
100074bc:	609a      	str	r2, [r3, #8]
100074be:	0020      	movs	r0, r4
100074c0:	bd10      	pop	{r4, pc}
100074c2:	2100      	movs	r1, #0
100074c4:	f7ff fae2 	bl	10006a8c <__wrap_memset>
100074c8:	e7f9      	b.n	100074be <_calloc_r+0x46>
100074ca:	0003      	movs	r3, r0
100074cc:	3310      	adds	r3, #16
100074ce:	e7f2      	b.n	100074b6 <_calloc_r+0x3e>

100074d0 <malloc>:
100074d0:	b510      	push	{r4, lr}
100074d2:	4b03      	ldr	r3, [pc, #12]	; (100074e0 <malloc+0x10>)
100074d4:	0001      	movs	r1, r0
100074d6:	6818      	ldr	r0, [r3, #0]
100074d8:	f000 f80e 	bl	100074f8 <_malloc_r>
100074dc:	bd10      	pop	{r4, pc}
100074de:	46c0      	nop			; (mov r8, r8)
100074e0:	20000308 	.word	0x20000308

100074e4 <free>:
100074e4:	b510      	push	{r4, lr}
100074e6:	4b03      	ldr	r3, [pc, #12]	; (100074f4 <free+0x10>)
100074e8:	0001      	movs	r1, r0
100074ea:	6818      	ldr	r0, [r3, #0]
100074ec:	f000 fb48 	bl	10007b80 <_free_r>
100074f0:	bd10      	pop	{r4, pc}
100074f2:	46c0      	nop			; (mov r8, r8)
100074f4:	20000308 	.word	0x20000308

100074f8 <_malloc_r>:
100074f8:	b5f0      	push	{r4, r5, r6, r7, lr}
100074fa:	4657      	mov	r7, sl
100074fc:	4645      	mov	r5, r8
100074fe:	46de      	mov	lr, fp
10007500:	464e      	mov	r6, r9
10007502:	b5e0      	push	{r5, r6, r7, lr}
10007504:	000d      	movs	r5, r1
10007506:	350b      	adds	r5, #11
10007508:	b083      	sub	sp, #12
1000750a:	0007      	movs	r7, r0
1000750c:	2d16      	cmp	r5, #22
1000750e:	d800      	bhi.n	10007512 <_malloc_r+0x1a>
10007510:	e09f      	b.n	10007652 <_malloc_r+0x15a>
10007512:	2307      	movs	r3, #7
10007514:	439d      	bics	r5, r3
10007516:	d500      	bpl.n	1000751a <_malloc_r+0x22>
10007518:	e0c4      	b.n	100076a4 <_malloc_r+0x1ac>
1000751a:	42a9      	cmp	r1, r5
1000751c:	d900      	bls.n	10007520 <_malloc_r+0x28>
1000751e:	e0c1      	b.n	100076a4 <_malloc_r+0x1ac>
10007520:	f000 fa96 	bl	10007a50 <__malloc_lock>
10007524:	23f8      	movs	r3, #248	; 0xf8
10007526:	33ff      	adds	r3, #255	; 0xff
10007528:	429d      	cmp	r5, r3
1000752a:	d800      	bhi.n	1000752e <_malloc_r+0x36>
1000752c:	e289      	b.n	10007a42 <_malloc_r+0x54a>
1000752e:	0a68      	lsrs	r0, r5, #9
10007530:	d100      	bne.n	10007534 <_malloc_r+0x3c>
10007532:	e0bb      	b.n	100076ac <_malloc_r+0x1b4>
10007534:	2804      	cmp	r0, #4
10007536:	d900      	bls.n	1000753a <_malloc_r+0x42>
10007538:	e164      	b.n	10007804 <_malloc_r+0x30c>
1000753a:	2338      	movs	r3, #56	; 0x38
1000753c:	4698      	mov	r8, r3
1000753e:	09a8      	lsrs	r0, r5, #6
10007540:	4480      	add	r8, r0
10007542:	3039      	adds	r0, #57	; 0x39
10007544:	00c1      	lsls	r1, r0, #3
10007546:	4ec9      	ldr	r6, [pc, #804]	; (1000786c <_malloc_r+0x374>)
10007548:	1871      	adds	r1, r6, r1
1000754a:	3908      	subs	r1, #8
1000754c:	68cc      	ldr	r4, [r1, #12]
1000754e:	42a1      	cmp	r1, r4
10007550:	d019      	beq.n	10007586 <_malloc_r+0x8e>
10007552:	2303      	movs	r3, #3
10007554:	6862      	ldr	r2, [r4, #4]
10007556:	439a      	bics	r2, r3
10007558:	0013      	movs	r3, r2
1000755a:	1b52      	subs	r2, r2, r5
1000755c:	2a0f      	cmp	r2, #15
1000755e:	dd00      	ble.n	10007562 <_malloc_r+0x6a>
10007560:	e0aa      	b.n	100076b8 <_malloc_r+0x1c0>
10007562:	2a00      	cmp	r2, #0
10007564:	db00      	blt.n	10007568 <_malloc_r+0x70>
10007566:	e088      	b.n	1000767a <_malloc_r+0x182>
10007568:	2303      	movs	r3, #3
1000756a:	469c      	mov	ip, r3
1000756c:	e008      	b.n	10007580 <_malloc_r+0x88>
1000756e:	4662      	mov	r2, ip
10007570:	6863      	ldr	r3, [r4, #4]
10007572:	4393      	bics	r3, r2
10007574:	1b5a      	subs	r2, r3, r5
10007576:	2a0f      	cmp	r2, #15
10007578:	dd00      	ble.n	1000757c <_malloc_r+0x84>
1000757a:	e09d      	b.n	100076b8 <_malloc_r+0x1c0>
1000757c:	2a00      	cmp	r2, #0
1000757e:	da7c      	bge.n	1000767a <_malloc_r+0x182>
10007580:	68e4      	ldr	r4, [r4, #12]
10007582:	42a1      	cmp	r1, r4
10007584:	d1f3      	bne.n	1000756e <_malloc_r+0x76>
10007586:	0032      	movs	r2, r6
10007588:	6934      	ldr	r4, [r6, #16]
1000758a:	3208      	adds	r2, #8
1000758c:	4294      	cmp	r4, r2
1000758e:	d100      	bne.n	10007592 <_malloc_r+0x9a>
10007590:	e18b      	b.n	100078aa <_malloc_r+0x3b2>
10007592:	2303      	movs	r3, #3
10007594:	6861      	ldr	r1, [r4, #4]
10007596:	4399      	bics	r1, r3
10007598:	4689      	mov	r9, r1
1000759a:	1b49      	subs	r1, r1, r5
1000759c:	290f      	cmp	r1, #15
1000759e:	dd00      	ble.n	100075a2 <_malloc_r+0xaa>
100075a0:	e170      	b.n	10007884 <_malloc_r+0x38c>
100075a2:	6172      	str	r2, [r6, #20]
100075a4:	6132      	str	r2, [r6, #16]
100075a6:	2900      	cmp	r1, #0
100075a8:	db00      	blt.n	100075ac <_malloc_r+0xb4>
100075aa:	e087      	b.n	100076bc <_malloc_r+0x1c4>
100075ac:	4ab0      	ldr	r2, [pc, #704]	; (10007870 <_malloc_r+0x378>)
100075ae:	464b      	mov	r3, r9
100075b0:	4591      	cmp	r9, r2
100075b2:	d900      	bls.n	100075b6 <_malloc_r+0xbe>
100075b4:	e132      	b.n	1000781c <_malloc_r+0x324>
100075b6:	08db      	lsrs	r3, r3, #3
100075b8:	3aff      	subs	r2, #255	; 0xff
100075ba:	1099      	asrs	r1, r3, #2
100075bc:	3aff      	subs	r2, #255	; 0xff
100075be:	408a      	lsls	r2, r1
100075c0:	00db      	lsls	r3, r3, #3
100075c2:	6871      	ldr	r1, [r6, #4]
100075c4:	199b      	adds	r3, r3, r6
100075c6:	430a      	orrs	r2, r1
100075c8:	6899      	ldr	r1, [r3, #8]
100075ca:	6072      	str	r2, [r6, #4]
100075cc:	60e3      	str	r3, [r4, #12]
100075ce:	60a1      	str	r1, [r4, #8]
100075d0:	609c      	str	r4, [r3, #8]
100075d2:	0013      	movs	r3, r2
100075d4:	60cc      	str	r4, [r1, #12]
100075d6:	2101      	movs	r1, #1
100075d8:	1082      	asrs	r2, r0, #2
100075da:	4091      	lsls	r1, r2
100075dc:	4299      	cmp	r1, r3
100075de:	d86f      	bhi.n	100076c0 <_malloc_r+0x1c8>
100075e0:	420b      	tst	r3, r1
100075e2:	d105      	bne.n	100075f0 <_malloc_r+0xf8>
100075e4:	2203      	movs	r2, #3
100075e6:	4390      	bics	r0, r2
100075e8:	0049      	lsls	r1, r1, #1
100075ea:	3004      	adds	r0, #4
100075ec:	420b      	tst	r3, r1
100075ee:	d0fb      	beq.n	100075e8 <_malloc_r+0xf0>
100075f0:	2303      	movs	r3, #3
100075f2:	4698      	mov	r8, r3
100075f4:	00c3      	lsls	r3, r0, #3
100075f6:	4699      	mov	r9, r3
100075f8:	44b1      	add	r9, r6
100075fa:	46cc      	mov	ip, r9
100075fc:	4682      	mov	sl, r0
100075fe:	4663      	mov	r3, ip
10007600:	68dc      	ldr	r4, [r3, #12]
10007602:	45a4      	cmp	ip, r4
10007604:	d107      	bne.n	10007616 <_malloc_r+0x11e>
10007606:	e152      	b.n	100078ae <_malloc_r+0x3b6>
10007608:	2a00      	cmp	r2, #0
1000760a:	db00      	blt.n	1000760e <_malloc_r+0x116>
1000760c:	e161      	b.n	100078d2 <_malloc_r+0x3da>
1000760e:	68e4      	ldr	r4, [r4, #12]
10007610:	45a4      	cmp	ip, r4
10007612:	d100      	bne.n	10007616 <_malloc_r+0x11e>
10007614:	e14b      	b.n	100078ae <_malloc_r+0x3b6>
10007616:	4642      	mov	r2, r8
10007618:	6863      	ldr	r3, [r4, #4]
1000761a:	4393      	bics	r3, r2
1000761c:	1b5a      	subs	r2, r3, r5
1000761e:	2a0f      	cmp	r2, #15
10007620:	ddf2      	ble.n	10007608 <_malloc_r+0x110>
10007622:	2001      	movs	r0, #1
10007624:	4680      	mov	r8, r0
10007626:	1961      	adds	r1, r4, r5
10007628:	4305      	orrs	r5, r0
1000762a:	6065      	str	r5, [r4, #4]
1000762c:	68a0      	ldr	r0, [r4, #8]
1000762e:	68e5      	ldr	r5, [r4, #12]
10007630:	3608      	adds	r6, #8
10007632:	60c5      	str	r5, [r0, #12]
10007634:	60a8      	str	r0, [r5, #8]
10007636:	4640      	mov	r0, r8
10007638:	60f1      	str	r1, [r6, #12]
1000763a:	60b1      	str	r1, [r6, #8]
1000763c:	4310      	orrs	r0, r2
1000763e:	6048      	str	r0, [r1, #4]
10007640:	60ce      	str	r6, [r1, #12]
10007642:	608e      	str	r6, [r1, #8]
10007644:	0038      	movs	r0, r7
10007646:	50e2      	str	r2, [r4, r3]
10007648:	f000 fa04 	bl	10007a54 <__malloc_unlock>
1000764c:	0020      	movs	r0, r4
1000764e:	3008      	adds	r0, #8
10007650:	e021      	b.n	10007696 <_malloc_r+0x19e>
10007652:	2910      	cmp	r1, #16
10007654:	d826      	bhi.n	100076a4 <_malloc_r+0x1ac>
10007656:	0038      	movs	r0, r7
10007658:	f000 f9fa 	bl	10007a50 <__malloc_lock>
1000765c:	2510      	movs	r5, #16
1000765e:	2318      	movs	r3, #24
10007660:	2002      	movs	r0, #2
10007662:	4e82      	ldr	r6, [pc, #520]	; (1000786c <_malloc_r+0x374>)
10007664:	18f3      	adds	r3, r6, r3
10007666:	001a      	movs	r2, r3
10007668:	685c      	ldr	r4, [r3, #4]
1000766a:	3a08      	subs	r2, #8
1000766c:	4294      	cmp	r4, r2
1000766e:	d100      	bne.n	10007672 <_malloc_r+0x17a>
10007670:	e129      	b.n	100078c6 <_malloc_r+0x3ce>
10007672:	2303      	movs	r3, #3
10007674:	6862      	ldr	r2, [r4, #4]
10007676:	439a      	bics	r2, r3
10007678:	0013      	movs	r3, r2
1000767a:	68e2      	ldr	r2, [r4, #12]
1000767c:	68a1      	ldr	r1, [r4, #8]
1000767e:	60ca      	str	r2, [r1, #12]
10007680:	6091      	str	r1, [r2, #8]
10007682:	2201      	movs	r2, #1
10007684:	18e3      	adds	r3, r4, r3
10007686:	6859      	ldr	r1, [r3, #4]
10007688:	0038      	movs	r0, r7
1000768a:	430a      	orrs	r2, r1
1000768c:	605a      	str	r2, [r3, #4]
1000768e:	f000 f9e1 	bl	10007a54 <__malloc_unlock>
10007692:	0020      	movs	r0, r4
10007694:	3008      	adds	r0, #8
10007696:	b003      	add	sp, #12
10007698:	bc3c      	pop	{r2, r3, r4, r5}
1000769a:	4690      	mov	r8, r2
1000769c:	4699      	mov	r9, r3
1000769e:	46a2      	mov	sl, r4
100076a0:	46ab      	mov	fp, r5
100076a2:	bdf0      	pop	{r4, r5, r6, r7, pc}
100076a4:	230c      	movs	r3, #12
100076a6:	2000      	movs	r0, #0
100076a8:	603b      	str	r3, [r7, #0]
100076aa:	e7f4      	b.n	10007696 <_malloc_r+0x19e>
100076ac:	2180      	movs	r1, #128	; 0x80
100076ae:	233f      	movs	r3, #63	; 0x3f
100076b0:	2040      	movs	r0, #64	; 0x40
100076b2:	0089      	lsls	r1, r1, #2
100076b4:	4698      	mov	r8, r3
100076b6:	e746      	b.n	10007546 <_malloc_r+0x4e>
100076b8:	4640      	mov	r0, r8
100076ba:	e764      	b.n	10007586 <_malloc_r+0x8e>
100076bc:	464b      	mov	r3, r9
100076be:	e7e0      	b.n	10007682 <_malloc_r+0x18a>
100076c0:	2303      	movs	r3, #3
100076c2:	68b4      	ldr	r4, [r6, #8]
100076c4:	6862      	ldr	r2, [r4, #4]
100076c6:	439a      	bics	r2, r3
100076c8:	4690      	mov	r8, r2
100076ca:	42aa      	cmp	r2, r5
100076cc:	d303      	bcc.n	100076d6 <_malloc_r+0x1de>
100076ce:	1b53      	subs	r3, r2, r5
100076d0:	2b0f      	cmp	r3, #15
100076d2:	dd00      	ble.n	100076d6 <_malloc_r+0x1de>
100076d4:	e088      	b.n	100077e8 <_malloc_r+0x2f0>
100076d6:	0023      	movs	r3, r4
100076d8:	4443      	add	r3, r8
100076da:	4a66      	ldr	r2, [pc, #408]	; (10007874 <_malloc_r+0x37c>)
100076dc:	9301      	str	r3, [sp, #4]
100076de:	4b66      	ldr	r3, [pc, #408]	; (10007878 <_malloc_r+0x380>)
100076e0:	4693      	mov	fp, r2
100076e2:	469a      	mov	sl, r3
100076e4:	6892      	ldr	r2, [r2, #8]
100076e6:	681b      	ldr	r3, [r3, #0]
100076e8:	18eb      	adds	r3, r5, r3
100076ea:	3201      	adds	r2, #1
100076ec:	d100      	bne.n	100076f0 <_malloc_r+0x1f8>
100076ee:	e161      	b.n	100079b4 <_malloc_r+0x4bc>
100076f0:	4a62      	ldr	r2, [pc, #392]	; (1000787c <_malloc_r+0x384>)
100076f2:	4694      	mov	ip, r2
100076f4:	4463      	add	r3, ip
100076f6:	0b1b      	lsrs	r3, r3, #12
100076f8:	031b      	lsls	r3, r3, #12
100076fa:	9300      	str	r3, [sp, #0]
100076fc:	9900      	ldr	r1, [sp, #0]
100076fe:	0038      	movs	r0, r7
10007700:	f000 f9aa 	bl	10007a58 <_sbrk_r>
10007704:	0003      	movs	r3, r0
10007706:	4681      	mov	r9, r0
10007708:	3301      	adds	r3, #1
1000770a:	d062      	beq.n	100077d2 <_malloc_r+0x2da>
1000770c:	9b01      	ldr	r3, [sp, #4]
1000770e:	4283      	cmp	r3, r0
10007710:	d900      	bls.n	10007714 <_malloc_r+0x21c>
10007712:	e0f9      	b.n	10007908 <_malloc_r+0x410>
10007714:	4653      	mov	r3, sl
10007716:	685b      	ldr	r3, [r3, #4]
10007718:	9a00      	ldr	r2, [sp, #0]
1000771a:	469c      	mov	ip, r3
1000771c:	4653      	mov	r3, sl
1000771e:	4462      	add	r2, ip
10007720:	605a      	str	r2, [r3, #4]
10007722:	9b01      	ldr	r3, [sp, #4]
10007724:	0011      	movs	r1, r2
10007726:	4283      	cmp	r3, r0
10007728:	d100      	bne.n	1000772c <_malloc_r+0x234>
1000772a:	e14f      	b.n	100079cc <_malloc_r+0x4d4>
1000772c:	465b      	mov	r3, fp
1000772e:	689b      	ldr	r3, [r3, #8]
10007730:	3301      	adds	r3, #1
10007732:	d100      	bne.n	10007736 <_malloc_r+0x23e>
10007734:	e166      	b.n	10007a04 <_malloc_r+0x50c>
10007736:	464b      	mov	r3, r9
10007738:	9a01      	ldr	r2, [sp, #4]
1000773a:	1a9b      	subs	r3, r3, r2
1000773c:	1859      	adds	r1, r3, r1
1000773e:	4653      	mov	r3, sl
10007740:	6059      	str	r1, [r3, #4]
10007742:	2307      	movs	r3, #7
10007744:	464a      	mov	r2, r9
10007746:	4013      	ands	r3, r2
10007748:	d100      	bne.n	1000774c <_malloc_r+0x254>
1000774a:	e11e      	b.n	1000798a <_malloc_r+0x492>
1000774c:	2108      	movs	r1, #8
1000774e:	4689      	mov	r9, r1
10007750:	494b      	ldr	r1, [pc, #300]	; (10007880 <_malloc_r+0x388>)
10007752:	1ad2      	subs	r2, r2, r3
10007754:	4491      	add	r9, r2
10007756:	1acb      	subs	r3, r1, r3
10007758:	9a00      	ldr	r2, [sp, #0]
1000775a:	0038      	movs	r0, r7
1000775c:	444a      	add	r2, r9
1000775e:	0511      	lsls	r1, r2, #20
10007760:	0d09      	lsrs	r1, r1, #20
10007762:	1a5b      	subs	r3, r3, r1
10007764:	0019      	movs	r1, r3
10007766:	469b      	mov	fp, r3
10007768:	f000 f976 	bl	10007a58 <_sbrk_r>
1000776c:	1c43      	adds	r3, r0, #1
1000776e:	d100      	bne.n	10007772 <_malloc_r+0x27a>
10007770:	e13c      	b.n	100079ec <_malloc_r+0x4f4>
10007772:	464b      	mov	r3, r9
10007774:	1ac0      	subs	r0, r0, r3
10007776:	2301      	movs	r3, #1
10007778:	4458      	add	r0, fp
1000777a:	4318      	orrs	r0, r3
1000777c:	4653      	mov	r3, sl
1000777e:	685b      	ldr	r3, [r3, #4]
10007780:	445b      	add	r3, fp
10007782:	0019      	movs	r1, r3
10007784:	4653      	mov	r3, sl
10007786:	6059      	str	r1, [r3, #4]
10007788:	464b      	mov	r3, r9
1000778a:	60b3      	str	r3, [r6, #8]
1000778c:	6058      	str	r0, [r3, #4]
1000778e:	42b4      	cmp	r4, r6
10007790:	d013      	beq.n	100077ba <_malloc_r+0x2c2>
10007792:	4643      	mov	r3, r8
10007794:	2b0f      	cmp	r3, #15
10007796:	d800      	bhi.n	1000779a <_malloc_r+0x2a2>
10007798:	e0e2      	b.n	10007960 <_malloc_r+0x468>
1000779a:	4643      	mov	r3, r8
1000779c:	2207      	movs	r2, #7
1000779e:	6860      	ldr	r0, [r4, #4]
100077a0:	3b0c      	subs	r3, #12
100077a2:	4393      	bics	r3, r2
100077a4:	3a06      	subs	r2, #6
100077a6:	4002      	ands	r2, r0
100077a8:	2005      	movs	r0, #5
100077aa:	431a      	orrs	r2, r3
100077ac:	6062      	str	r2, [r4, #4]
100077ae:	18e2      	adds	r2, r4, r3
100077b0:	6050      	str	r0, [r2, #4]
100077b2:	6090      	str	r0, [r2, #8]
100077b4:	2b0f      	cmp	r3, #15
100077b6:	d900      	bls.n	100077ba <_malloc_r+0x2c2>
100077b8:	e11c      	b.n	100079f4 <_malloc_r+0x4fc>
100077ba:	4653      	mov	r3, sl
100077bc:	6adb      	ldr	r3, [r3, #44]	; 0x2c
100077be:	4299      	cmp	r1, r3
100077c0:	d901      	bls.n	100077c6 <_malloc_r+0x2ce>
100077c2:	4653      	mov	r3, sl
100077c4:	62d9      	str	r1, [r3, #44]	; 0x2c
100077c6:	4653      	mov	r3, sl
100077c8:	6b1b      	ldr	r3, [r3, #48]	; 0x30
100077ca:	4299      	cmp	r1, r3
100077cc:	d901      	bls.n	100077d2 <_malloc_r+0x2da>
100077ce:	4653      	mov	r3, sl
100077d0:	6319      	str	r1, [r3, #48]	; 0x30
100077d2:	2303      	movs	r3, #3
100077d4:	68b4      	ldr	r4, [r6, #8]
100077d6:	6862      	ldr	r2, [r4, #4]
100077d8:	439a      	bics	r2, r3
100077da:	1b53      	subs	r3, r2, r5
100077dc:	4295      	cmp	r5, r2
100077de:	d900      	bls.n	100077e2 <_malloc_r+0x2ea>
100077e0:	e0c1      	b.n	10007966 <_malloc_r+0x46e>
100077e2:	2b0f      	cmp	r3, #15
100077e4:	dc00      	bgt.n	100077e8 <_malloc_r+0x2f0>
100077e6:	e0be      	b.n	10007966 <_malloc_r+0x46e>
100077e8:	2201      	movs	r2, #1
100077ea:	0029      	movs	r1, r5
100077ec:	4313      	orrs	r3, r2
100077ee:	4311      	orrs	r1, r2
100077f0:	1965      	adds	r5, r4, r5
100077f2:	6061      	str	r1, [r4, #4]
100077f4:	0038      	movs	r0, r7
100077f6:	60b5      	str	r5, [r6, #8]
100077f8:	606b      	str	r3, [r5, #4]
100077fa:	f000 f92b 	bl	10007a54 <__malloc_unlock>
100077fe:	0020      	movs	r0, r4
10007800:	3008      	adds	r0, #8
10007802:	e748      	b.n	10007696 <_malloc_r+0x19e>
10007804:	2814      	cmp	r0, #20
10007806:	d973      	bls.n	100078f0 <_malloc_r+0x3f8>
10007808:	2854      	cmp	r0, #84	; 0x54
1000780a:	d900      	bls.n	1000780e <_malloc_r+0x316>
1000780c:	e0b2      	b.n	10007974 <_malloc_r+0x47c>
1000780e:	236e      	movs	r3, #110	; 0x6e
10007810:	4698      	mov	r8, r3
10007812:	0b28      	lsrs	r0, r5, #12
10007814:	4480      	add	r8, r0
10007816:	306f      	adds	r0, #111	; 0x6f
10007818:	00c1      	lsls	r1, r0, #3
1000781a:	e694      	b.n	10007546 <_malloc_r+0x4e>
1000781c:	0a5a      	lsrs	r2, r3, #9
1000781e:	2a04      	cmp	r2, #4
10007820:	d96c      	bls.n	100078fc <_malloc_r+0x404>
10007822:	2a14      	cmp	r2, #20
10007824:	d900      	bls.n	10007828 <_malloc_r+0x330>
10007826:	e0c8      	b.n	100079ba <_malloc_r+0x4c2>
10007828:	0011      	movs	r1, r2
1000782a:	325c      	adds	r2, #92	; 0x5c
1000782c:	315b      	adds	r1, #91	; 0x5b
1000782e:	00d2      	lsls	r2, r2, #3
10007830:	2308      	movs	r3, #8
10007832:	425b      	negs	r3, r3
10007834:	469c      	mov	ip, r3
10007836:	18b2      	adds	r2, r6, r2
10007838:	4494      	add	ip, r2
1000783a:	4663      	mov	r3, ip
1000783c:	689a      	ldr	r2, [r3, #8]
1000783e:	2303      	movs	r3, #3
10007840:	4698      	mov	r8, r3
10007842:	4594      	cmp	ip, r2
10007844:	d100      	bne.n	10007848 <_malloc_r+0x350>
10007846:	e0a3      	b.n	10007990 <_malloc_r+0x498>
10007848:	4643      	mov	r3, r8
1000784a:	6851      	ldr	r1, [r2, #4]
1000784c:	4399      	bics	r1, r3
1000784e:	4589      	cmp	r9, r1
10007850:	d300      	bcc.n	10007854 <_malloc_r+0x35c>
10007852:	e08d      	b.n	10007970 <_malloc_r+0x478>
10007854:	6892      	ldr	r2, [r2, #8]
10007856:	4594      	cmp	ip, r2
10007858:	d1f6      	bne.n	10007848 <_malloc_r+0x350>
1000785a:	4663      	mov	r3, ip
1000785c:	68da      	ldr	r2, [r3, #12]
1000785e:	6873      	ldr	r3, [r6, #4]
10007860:	4661      	mov	r1, ip
10007862:	60e2      	str	r2, [r4, #12]
10007864:	60a1      	str	r1, [r4, #8]
10007866:	6094      	str	r4, [r2, #8]
10007868:	60cc      	str	r4, [r1, #12]
1000786a:	e6b4      	b.n	100075d6 <_malloc_r+0xde>
1000786c:	20000738 	.word	0x20000738
10007870:	000001ff 	.word	0x000001ff
10007874:	20000b38 	.word	0x20000b38
10007878:	20000b84 	.word	0x20000b84
1000787c:	0000100f 	.word	0x0000100f
10007880:	00001008 	.word	0x00001008
10007884:	2301      	movs	r3, #1
10007886:	1960      	adds	r0, r4, r5
10007888:	431d      	orrs	r5, r3
1000788a:	6065      	str	r5, [r4, #4]
1000788c:	6170      	str	r0, [r6, #20]
1000788e:	6130      	str	r0, [r6, #16]
10007890:	60c2      	str	r2, [r0, #12]
10007892:	6082      	str	r2, [r0, #8]
10007894:	001a      	movs	r2, r3
10007896:	464b      	mov	r3, r9
10007898:	430a      	orrs	r2, r1
1000789a:	6042      	str	r2, [r0, #4]
1000789c:	0038      	movs	r0, r7
1000789e:	50e1      	str	r1, [r4, r3]
100078a0:	f000 f8d8 	bl	10007a54 <__malloc_unlock>
100078a4:	0020      	movs	r0, r4
100078a6:	3008      	adds	r0, #8
100078a8:	e6f5      	b.n	10007696 <_malloc_r+0x19e>
100078aa:	6873      	ldr	r3, [r6, #4]
100078ac:	e693      	b.n	100075d6 <_malloc_r+0xde>
100078ae:	2308      	movs	r3, #8
100078b0:	469b      	mov	fp, r3
100078b2:	3b07      	subs	r3, #7
100078b4:	44dc      	add	ip, fp
100078b6:	469b      	mov	fp, r3
100078b8:	44da      	add	sl, fp
100078ba:	4643      	mov	r3, r8
100078bc:	4652      	mov	r2, sl
100078be:	4213      	tst	r3, r2
100078c0:	d000      	beq.n	100078c4 <_malloc_r+0x3cc>
100078c2:	e69c      	b.n	100075fe <_malloc_r+0x106>
100078c4:	e036      	b.n	10007934 <_malloc_r+0x43c>
100078c6:	68dc      	ldr	r4, [r3, #12]
100078c8:	3002      	adds	r0, #2
100078ca:	42a3      	cmp	r3, r4
100078cc:	d100      	bne.n	100078d0 <_malloc_r+0x3d8>
100078ce:	e65a      	b.n	10007586 <_malloc_r+0x8e>
100078d0:	e6cf      	b.n	10007672 <_malloc_r+0x17a>
100078d2:	2201      	movs	r2, #1
100078d4:	18e3      	adds	r3, r4, r3
100078d6:	6859      	ldr	r1, [r3, #4]
100078d8:	0038      	movs	r0, r7
100078da:	430a      	orrs	r2, r1
100078dc:	605a      	str	r2, [r3, #4]
100078de:	68e3      	ldr	r3, [r4, #12]
100078e0:	68a2      	ldr	r2, [r4, #8]
100078e2:	60d3      	str	r3, [r2, #12]
100078e4:	609a      	str	r2, [r3, #8]
100078e6:	f000 f8b5 	bl	10007a54 <__malloc_unlock>
100078ea:	0020      	movs	r0, r4
100078ec:	3008      	adds	r0, #8
100078ee:	e6d2      	b.n	10007696 <_malloc_r+0x19e>
100078f0:	235b      	movs	r3, #91	; 0x5b
100078f2:	4698      	mov	r8, r3
100078f4:	4480      	add	r8, r0
100078f6:	305c      	adds	r0, #92	; 0x5c
100078f8:	00c1      	lsls	r1, r0, #3
100078fa:	e624      	b.n	10007546 <_malloc_r+0x4e>
100078fc:	099a      	lsrs	r2, r3, #6
100078fe:	0011      	movs	r1, r2
10007900:	3239      	adds	r2, #57	; 0x39
10007902:	3138      	adds	r1, #56	; 0x38
10007904:	00d2      	lsls	r2, r2, #3
10007906:	e793      	b.n	10007830 <_malloc_r+0x338>
10007908:	42b4      	cmp	r4, r6
1000790a:	d000      	beq.n	1000790e <_malloc_r+0x416>
1000790c:	e761      	b.n	100077d2 <_malloc_r+0x2da>
1000790e:	4653      	mov	r3, sl
10007910:	685b      	ldr	r3, [r3, #4]
10007912:	9a00      	ldr	r2, [sp, #0]
10007914:	469c      	mov	ip, r3
10007916:	4653      	mov	r3, sl
10007918:	4462      	add	r2, ip
1000791a:	0011      	movs	r1, r2
1000791c:	605a      	str	r2, [r3, #4]
1000791e:	e705      	b.n	1000772c <_malloc_r+0x234>
10007920:	2308      	movs	r3, #8
10007922:	425b      	negs	r3, r3
10007924:	469c      	mov	ip, r3
10007926:	44e1      	add	r9, ip
10007928:	464b      	mov	r3, r9
1000792a:	689b      	ldr	r3, [r3, #8]
1000792c:	3801      	subs	r0, #1
1000792e:	4599      	cmp	r9, r3
10007930:	d000      	beq.n	10007934 <_malloc_r+0x43c>
10007932:	e084      	b.n	10007a3e <_malloc_r+0x546>
10007934:	4643      	mov	r3, r8
10007936:	4203      	tst	r3, r0
10007938:	d1f2      	bne.n	10007920 <_malloc_r+0x428>
1000793a:	6873      	ldr	r3, [r6, #4]
1000793c:	438b      	bics	r3, r1
1000793e:	6073      	str	r3, [r6, #4]
10007940:	0049      	lsls	r1, r1, #1
10007942:	4299      	cmp	r1, r3
10007944:	d900      	bls.n	10007948 <_malloc_r+0x450>
10007946:	e6bb      	b.n	100076c0 <_malloc_r+0x1c8>
10007948:	2900      	cmp	r1, #0
1000794a:	d100      	bne.n	1000794e <_malloc_r+0x456>
1000794c:	e6b8      	b.n	100076c0 <_malloc_r+0x1c8>
1000794e:	4650      	mov	r0, sl
10007950:	420b      	tst	r3, r1
10007952:	d000      	beq.n	10007956 <_malloc_r+0x45e>
10007954:	e64e      	b.n	100075f4 <_malloc_r+0xfc>
10007956:	0049      	lsls	r1, r1, #1
10007958:	3004      	adds	r0, #4
1000795a:	420b      	tst	r3, r1
1000795c:	d0fb      	beq.n	10007956 <_malloc_r+0x45e>
1000795e:	e649      	b.n	100075f4 <_malloc_r+0xfc>
10007960:	2301      	movs	r3, #1
10007962:	464a      	mov	r2, r9
10007964:	6053      	str	r3, [r2, #4]
10007966:	0038      	movs	r0, r7
10007968:	f000 f874 	bl	10007a54 <__malloc_unlock>
1000796c:	2000      	movs	r0, #0
1000796e:	e692      	b.n	10007696 <_malloc_r+0x19e>
10007970:	4694      	mov	ip, r2
10007972:	e772      	b.n	1000785a <_malloc_r+0x362>
10007974:	23aa      	movs	r3, #170	; 0xaa
10007976:	005b      	lsls	r3, r3, #1
10007978:	4298      	cmp	r0, r3
1000797a:	d811      	bhi.n	100079a0 <_malloc_r+0x4a8>
1000797c:	3bdd      	subs	r3, #221	; 0xdd
1000797e:	4698      	mov	r8, r3
10007980:	0be8      	lsrs	r0, r5, #15
10007982:	4480      	add	r8, r0
10007984:	3078      	adds	r0, #120	; 0x78
10007986:	00c1      	lsls	r1, r0, #3
10007988:	e5dd      	b.n	10007546 <_malloc_r+0x4e>
1000798a:	2380      	movs	r3, #128	; 0x80
1000798c:	015b      	lsls	r3, r3, #5
1000798e:	e6e3      	b.n	10007758 <_malloc_r+0x260>
10007990:	1089      	asrs	r1, r1, #2
10007992:	3b02      	subs	r3, #2
10007994:	408b      	lsls	r3, r1
10007996:	6872      	ldr	r2, [r6, #4]
10007998:	4313      	orrs	r3, r2
1000799a:	6073      	str	r3, [r6, #4]
1000799c:	4662      	mov	r2, ip
1000799e:	e75f      	b.n	10007860 <_malloc_r+0x368>
100079a0:	4b2a      	ldr	r3, [pc, #168]	; (10007a4c <_malloc_r+0x554>)
100079a2:	4298      	cmp	r0, r3
100079a4:	d81c      	bhi.n	100079e0 <_malloc_r+0x4e8>
100079a6:	237c      	movs	r3, #124	; 0x7c
100079a8:	4698      	mov	r8, r3
100079aa:	0ca8      	lsrs	r0, r5, #18
100079ac:	4480      	add	r8, r0
100079ae:	307d      	adds	r0, #125	; 0x7d
100079b0:	00c1      	lsls	r1, r0, #3
100079b2:	e5c8      	b.n	10007546 <_malloc_r+0x4e>
100079b4:	3310      	adds	r3, #16
100079b6:	9300      	str	r3, [sp, #0]
100079b8:	e6a0      	b.n	100076fc <_malloc_r+0x204>
100079ba:	2a54      	cmp	r2, #84	; 0x54
100079bc:	d826      	bhi.n	10007a0c <_malloc_r+0x514>
100079be:	464b      	mov	r3, r9
100079c0:	0b1a      	lsrs	r2, r3, #12
100079c2:	0011      	movs	r1, r2
100079c4:	326f      	adds	r2, #111	; 0x6f
100079c6:	316e      	adds	r1, #110	; 0x6e
100079c8:	00d2      	lsls	r2, r2, #3
100079ca:	e731      	b.n	10007830 <_malloc_r+0x338>
100079cc:	051b      	lsls	r3, r3, #20
100079ce:	d000      	beq.n	100079d2 <_malloc_r+0x4da>
100079d0:	e6ac      	b.n	1000772c <_malloc_r+0x234>
100079d2:	2001      	movs	r0, #1
100079d4:	9b00      	ldr	r3, [sp, #0]
100079d6:	68b2      	ldr	r2, [r6, #8]
100079d8:	4443      	add	r3, r8
100079da:	4303      	orrs	r3, r0
100079dc:	6053      	str	r3, [r2, #4]
100079de:	e6ec      	b.n	100077ba <_malloc_r+0x2c2>
100079e0:	21fe      	movs	r1, #254	; 0xfe
100079e2:	237e      	movs	r3, #126	; 0x7e
100079e4:	207f      	movs	r0, #127	; 0x7f
100079e6:	0089      	lsls	r1, r1, #2
100079e8:	4698      	mov	r8, r3
100079ea:	e5ac      	b.n	10007546 <_malloc_r+0x4e>
100079ec:	2300      	movs	r3, #0
100079ee:	2001      	movs	r0, #1
100079f0:	469b      	mov	fp, r3
100079f2:	e6c3      	b.n	1000777c <_malloc_r+0x284>
100079f4:	0021      	movs	r1, r4
100079f6:	0038      	movs	r0, r7
100079f8:	3108      	adds	r1, #8
100079fa:	f000 f8c1 	bl	10007b80 <_free_r>
100079fe:	4653      	mov	r3, sl
10007a00:	6859      	ldr	r1, [r3, #4]
10007a02:	e6da      	b.n	100077ba <_malloc_r+0x2c2>
10007a04:	465b      	mov	r3, fp
10007a06:	464a      	mov	r2, r9
10007a08:	609a      	str	r2, [r3, #8]
10007a0a:	e69a      	b.n	10007742 <_malloc_r+0x24a>
10007a0c:	21aa      	movs	r1, #170	; 0xaa
10007a0e:	0049      	lsls	r1, r1, #1
10007a10:	428a      	cmp	r2, r1
10007a12:	d806      	bhi.n	10007a22 <_malloc_r+0x52a>
10007a14:	464b      	mov	r3, r9
10007a16:	0bda      	lsrs	r2, r3, #15
10007a18:	0011      	movs	r1, r2
10007a1a:	3278      	adds	r2, #120	; 0x78
10007a1c:	3177      	adds	r1, #119	; 0x77
10007a1e:	00d2      	lsls	r2, r2, #3
10007a20:	e706      	b.n	10007830 <_malloc_r+0x338>
10007a22:	490a      	ldr	r1, [pc, #40]	; (10007a4c <_malloc_r+0x554>)
10007a24:	428a      	cmp	r2, r1
10007a26:	d806      	bhi.n	10007a36 <_malloc_r+0x53e>
10007a28:	464b      	mov	r3, r9
10007a2a:	0c9a      	lsrs	r2, r3, #18
10007a2c:	0011      	movs	r1, r2
10007a2e:	327d      	adds	r2, #125	; 0x7d
10007a30:	317c      	adds	r1, #124	; 0x7c
10007a32:	00d2      	lsls	r2, r2, #3
10007a34:	e6fc      	b.n	10007830 <_malloc_r+0x338>
10007a36:	22fe      	movs	r2, #254	; 0xfe
10007a38:	217e      	movs	r1, #126	; 0x7e
10007a3a:	0092      	lsls	r2, r2, #2
10007a3c:	e6f8      	b.n	10007830 <_malloc_r+0x338>
10007a3e:	6873      	ldr	r3, [r6, #4]
10007a40:	e77e      	b.n	10007940 <_malloc_r+0x448>
10007a42:	002b      	movs	r3, r5
10007a44:	08e8      	lsrs	r0, r5, #3
10007a46:	3308      	adds	r3, #8
10007a48:	e60b      	b.n	10007662 <_malloc_r+0x16a>
10007a4a:	46c0      	nop			; (mov r8, r8)
10007a4c:	00000554 	.word	0x00000554

10007a50 <__malloc_lock>:
10007a50:	4770      	bx	lr
10007a52:	46c0      	nop			; (mov r8, r8)

10007a54 <__malloc_unlock>:
10007a54:	4770      	bx	lr
10007a56:	46c0      	nop			; (mov r8, r8)

10007a58 <_sbrk_r>:
10007a58:	2300      	movs	r3, #0
10007a5a:	b570      	push	{r4, r5, r6, lr}
10007a5c:	4c06      	ldr	r4, [pc, #24]	; (10007a78 <_sbrk_r+0x20>)
10007a5e:	0005      	movs	r5, r0
10007a60:	0008      	movs	r0, r1
10007a62:	6023      	str	r3, [r4, #0]
10007a64:	f7fb fb7a 	bl	1000315c <_sbrk>
10007a68:	1c43      	adds	r3, r0, #1
10007a6a:	d000      	beq.n	10007a6e <_sbrk_r+0x16>
10007a6c:	bd70      	pop	{r4, r5, r6, pc}
10007a6e:	6823      	ldr	r3, [r4, #0]
10007a70:	2b00      	cmp	r3, #0
10007a72:	d0fb      	beq.n	10007a6c <_sbrk_r+0x14>
10007a74:	602b      	str	r3, [r5, #0]
10007a76:	e7f9      	b.n	10007a6c <_sbrk_r+0x14>
10007a78:	20001c68 	.word	0x20001c68

10007a7c <strlen>:
10007a7c:	b510      	push	{r4, lr}
10007a7e:	0783      	lsls	r3, r0, #30
10007a80:	d025      	beq.n	10007ace <strlen+0x52>
10007a82:	7803      	ldrb	r3, [r0, #0]
10007a84:	2b00      	cmp	r3, #0
10007a86:	d024      	beq.n	10007ad2 <strlen+0x56>
10007a88:	0003      	movs	r3, r0
10007a8a:	2103      	movs	r1, #3
10007a8c:	e002      	b.n	10007a94 <strlen+0x18>
10007a8e:	781a      	ldrb	r2, [r3, #0]
10007a90:	2a00      	cmp	r2, #0
10007a92:	d01a      	beq.n	10007aca <strlen+0x4e>
10007a94:	3301      	adds	r3, #1
10007a96:	420b      	tst	r3, r1
10007a98:	d1f9      	bne.n	10007a8e <strlen+0x12>
10007a9a:	6819      	ldr	r1, [r3, #0]
10007a9c:	4a0e      	ldr	r2, [pc, #56]	; (10007ad8 <strlen+0x5c>)
10007a9e:	4c0f      	ldr	r4, [pc, #60]	; (10007adc <strlen+0x60>)
10007aa0:	188a      	adds	r2, r1, r2
10007aa2:	438a      	bics	r2, r1
10007aa4:	4222      	tst	r2, r4
10007aa6:	d106      	bne.n	10007ab6 <strlen+0x3a>
10007aa8:	3304      	adds	r3, #4
10007aaa:	6819      	ldr	r1, [r3, #0]
10007aac:	4a0a      	ldr	r2, [pc, #40]	; (10007ad8 <strlen+0x5c>)
10007aae:	188a      	adds	r2, r1, r2
10007ab0:	438a      	bics	r2, r1
10007ab2:	4222      	tst	r2, r4
10007ab4:	d0f8      	beq.n	10007aa8 <strlen+0x2c>
10007ab6:	001a      	movs	r2, r3
10007ab8:	781b      	ldrb	r3, [r3, #0]
10007aba:	2b00      	cmp	r3, #0
10007abc:	d003      	beq.n	10007ac6 <strlen+0x4a>
10007abe:	3201      	adds	r2, #1
10007ac0:	7811      	ldrb	r1, [r2, #0]
10007ac2:	2900      	cmp	r1, #0
10007ac4:	d1fb      	bne.n	10007abe <strlen+0x42>
10007ac6:	1a10      	subs	r0, r2, r0
10007ac8:	bd10      	pop	{r4, pc}
10007aca:	1a18      	subs	r0, r3, r0
10007acc:	e7fc      	b.n	10007ac8 <strlen+0x4c>
10007ace:	0003      	movs	r3, r0
10007ad0:	e7e3      	b.n	10007a9a <strlen+0x1e>
10007ad2:	2000      	movs	r0, #0
10007ad4:	e7f8      	b.n	10007ac8 <strlen+0x4c>
10007ad6:	46c0      	nop			; (mov r8, r8)
10007ad8:	fefefeff 	.word	0xfefefeff
10007adc:	80808080 	.word	0x80808080

10007ae0 <_malloc_trim_r>:
10007ae0:	b5f8      	push	{r3, r4, r5, r6, r7, lr}
10007ae2:	000c      	movs	r4, r1
10007ae4:	0006      	movs	r6, r0
10007ae6:	f7ff ffb3 	bl	10007a50 <__malloc_lock>
10007aea:	4f20      	ldr	r7, [pc, #128]	; (10007b6c <_malloc_trim_r+0x8c>)
10007aec:	68bb      	ldr	r3, [r7, #8]
10007aee:	685d      	ldr	r5, [r3, #4]
10007af0:	2303      	movs	r3, #3
10007af2:	439d      	bics	r5, r3
10007af4:	4b1e      	ldr	r3, [pc, #120]	; (10007b70 <_malloc_trim_r+0x90>)
10007af6:	1b2c      	subs	r4, r5, r4
10007af8:	469c      	mov	ip, r3
10007afa:	4464      	add	r4, ip
10007afc:	0b24      	lsrs	r4, r4, #12
10007afe:	4b1d      	ldr	r3, [pc, #116]	; (10007b74 <_malloc_trim_r+0x94>)
10007b00:	3c01      	subs	r4, #1
10007b02:	0324      	lsls	r4, r4, #12
10007b04:	429c      	cmp	r4, r3
10007b06:	dd07      	ble.n	10007b18 <_malloc_trim_r+0x38>
10007b08:	2100      	movs	r1, #0
10007b0a:	0030      	movs	r0, r6
10007b0c:	f7ff ffa4 	bl	10007a58 <_sbrk_r>
10007b10:	68bb      	ldr	r3, [r7, #8]
10007b12:	195b      	adds	r3, r3, r5
10007b14:	4298      	cmp	r0, r3
10007b16:	d004      	beq.n	10007b22 <_malloc_trim_r+0x42>
10007b18:	0030      	movs	r0, r6
10007b1a:	f7ff ff9b 	bl	10007a54 <__malloc_unlock>
10007b1e:	2000      	movs	r0, #0
10007b20:	bdf8      	pop	{r3, r4, r5, r6, r7, pc}
10007b22:	4261      	negs	r1, r4
10007b24:	0030      	movs	r0, r6
10007b26:	f7ff ff97 	bl	10007a58 <_sbrk_r>
10007b2a:	1c43      	adds	r3, r0, #1
10007b2c:	d00d      	beq.n	10007b4a <_malloc_trim_r+0x6a>
10007b2e:	2201      	movs	r2, #1
10007b30:	68bb      	ldr	r3, [r7, #8]
10007b32:	1b2d      	subs	r5, r5, r4
10007b34:	4315      	orrs	r5, r2
10007b36:	605d      	str	r5, [r3, #4]
10007b38:	4b0f      	ldr	r3, [pc, #60]	; (10007b78 <_malloc_trim_r+0x98>)
10007b3a:	0030      	movs	r0, r6
10007b3c:	681a      	ldr	r2, [r3, #0]
10007b3e:	1b14      	subs	r4, r2, r4
10007b40:	601c      	str	r4, [r3, #0]
10007b42:	f7ff ff87 	bl	10007a54 <__malloc_unlock>
10007b46:	2001      	movs	r0, #1
10007b48:	e7ea      	b.n	10007b20 <_malloc_trim_r+0x40>
10007b4a:	2100      	movs	r1, #0
10007b4c:	0030      	movs	r0, r6
10007b4e:	f7ff ff83 	bl	10007a58 <_sbrk_r>
10007b52:	68ba      	ldr	r2, [r7, #8]
10007b54:	1a83      	subs	r3, r0, r2
10007b56:	2b0f      	cmp	r3, #15
10007b58:	ddde      	ble.n	10007b18 <_malloc_trim_r+0x38>
10007b5a:	4908      	ldr	r1, [pc, #32]	; (10007b7c <_malloc_trim_r+0x9c>)
10007b5c:	6809      	ldr	r1, [r1, #0]
10007b5e:	1a40      	subs	r0, r0, r1
10007b60:	4905      	ldr	r1, [pc, #20]	; (10007b78 <_malloc_trim_r+0x98>)
10007b62:	6008      	str	r0, [r1, #0]
10007b64:	2101      	movs	r1, #1
10007b66:	430b      	orrs	r3, r1
10007b68:	6053      	str	r3, [r2, #4]
10007b6a:	e7d5      	b.n	10007b18 <_malloc_trim_r+0x38>
10007b6c:	20000738 	.word	0x20000738
10007b70:	00000fef 	.word	0x00000fef
10007b74:	00000fff 	.word	0x00000fff
10007b78:	20000b88 	.word	0x20000b88
10007b7c:	20000b40 	.word	0x20000b40

10007b80 <_free_r>:
10007b80:	b5f8      	push	{r3, r4, r5, r6, r7, lr}
10007b82:	0004      	movs	r4, r0
10007b84:	1e0d      	subs	r5, r1, #0
10007b86:	d03c      	beq.n	10007c02 <_free_r+0x82>
10007b88:	f7ff ff62 	bl	10007a50 <__malloc_lock>
10007b8c:	0029      	movs	r1, r5
10007b8e:	3908      	subs	r1, #8
10007b90:	6848      	ldr	r0, [r1, #4]
10007b92:	2301      	movs	r3, #1
10007b94:	0005      	movs	r5, r0
10007b96:	2603      	movs	r6, #3
10007b98:	439d      	bics	r5, r3
10007b9a:	194a      	adds	r2, r1, r5
10007b9c:	469c      	mov	ip, r3
10007b9e:	4f61      	ldr	r7, [pc, #388]	; (10007d24 <_free_r+0x1a4>)
10007ba0:	6853      	ldr	r3, [r2, #4]
10007ba2:	43b3      	bics	r3, r6
10007ba4:	68be      	ldr	r6, [r7, #8]
10007ba6:	42b2      	cmp	r2, r6
10007ba8:	d056      	beq.n	10007c58 <_free_r+0xd8>
10007baa:	4666      	mov	r6, ip
10007bac:	6053      	str	r3, [r2, #4]
10007bae:	4206      	tst	r6, r0
10007bb0:	d10a      	bne.n	10007bc8 <_free_r+0x48>
10007bb2:	003e      	movs	r6, r7
10007bb4:	6808      	ldr	r0, [r1, #0]
10007bb6:	3608      	adds	r6, #8
10007bb8:	1a09      	subs	r1, r1, r0
10007bba:	182d      	adds	r5, r5, r0
10007bbc:	6888      	ldr	r0, [r1, #8]
10007bbe:	42b0      	cmp	r0, r6
10007bc0:	d065      	beq.n	10007c8e <_free_r+0x10e>
10007bc2:	68ce      	ldr	r6, [r1, #12]
10007bc4:	60c6      	str	r6, [r0, #12]
10007bc6:	60b0      	str	r0, [r6, #8]
10007bc8:	2001      	movs	r0, #1
10007bca:	18d6      	adds	r6, r2, r3
10007bcc:	6876      	ldr	r6, [r6, #4]
10007bce:	4206      	tst	r6, r0
10007bd0:	d033      	beq.n	10007c3a <_free_r+0xba>
10007bd2:	4b55      	ldr	r3, [pc, #340]	; (10007d28 <_free_r+0x1a8>)
10007bd4:	4328      	orrs	r0, r5
10007bd6:	6048      	str	r0, [r1, #4]
10007bd8:	514d      	str	r5, [r1, r5]
10007bda:	429d      	cmp	r5, r3
10007bdc:	d812      	bhi.n	10007c04 <_free_r+0x84>
10007bde:	08ed      	lsrs	r5, r5, #3
10007be0:	3bff      	subs	r3, #255	; 0xff
10007be2:	10aa      	asrs	r2, r5, #2
10007be4:	3bff      	subs	r3, #255	; 0xff
10007be6:	4093      	lsls	r3, r2
10007be8:	687a      	ldr	r2, [r7, #4]
10007bea:	00ed      	lsls	r5, r5, #3
10007bec:	4313      	orrs	r3, r2
10007bee:	607b      	str	r3, [r7, #4]
10007bf0:	19ef      	adds	r7, r5, r7
10007bf2:	68bb      	ldr	r3, [r7, #8]
10007bf4:	60cf      	str	r7, [r1, #12]
10007bf6:	608b      	str	r3, [r1, #8]
10007bf8:	60b9      	str	r1, [r7, #8]
10007bfa:	60d9      	str	r1, [r3, #12]
10007bfc:	0020      	movs	r0, r4
10007bfe:	f7ff ff29 	bl	10007a54 <__malloc_unlock>
10007c02:	bdf8      	pop	{r3, r4, r5, r6, r7, pc}
10007c04:	0a68      	lsrs	r0, r5, #9
10007c06:	2804      	cmp	r0, #4
10007c08:	d850      	bhi.n	10007cac <_free_r+0x12c>
10007c0a:	09a8      	lsrs	r0, r5, #6
10007c0c:	0002      	movs	r2, r0
10007c0e:	3039      	adds	r0, #57	; 0x39
10007c10:	3238      	adds	r2, #56	; 0x38
10007c12:	00c0      	lsls	r0, r0, #3
10007c14:	1838      	adds	r0, r7, r0
10007c16:	3808      	subs	r0, #8
10007c18:	6883      	ldr	r3, [r0, #8]
10007c1a:	2603      	movs	r6, #3
10007c1c:	4298      	cmp	r0, r3
10007c1e:	d04c      	beq.n	10007cba <_free_r+0x13a>
10007c20:	685a      	ldr	r2, [r3, #4]
10007c22:	43b2      	bics	r2, r6
10007c24:	4295      	cmp	r5, r2
10007c26:	d230      	bcs.n	10007c8a <_free_r+0x10a>
10007c28:	689b      	ldr	r3, [r3, #8]
10007c2a:	4298      	cmp	r0, r3
10007c2c:	d1f8      	bne.n	10007c20 <_free_r+0xa0>
10007c2e:	68c3      	ldr	r3, [r0, #12]
10007c30:	60cb      	str	r3, [r1, #12]
10007c32:	6088      	str	r0, [r1, #8]
10007c34:	6099      	str	r1, [r3, #8]
10007c36:	60c1      	str	r1, [r0, #12]
10007c38:	e7e0      	b.n	10007bfc <_free_r+0x7c>
10007c3a:	18ed      	adds	r5, r5, r3
10007c3c:	4e3b      	ldr	r6, [pc, #236]	; (10007d2c <_free_r+0x1ac>)
10007c3e:	6893      	ldr	r3, [r2, #8]
10007c40:	42b3      	cmp	r3, r6
10007c42:	d042      	beq.n	10007cca <_free_r+0x14a>
10007c44:	68d2      	ldr	r2, [r2, #12]
10007c46:	4328      	orrs	r0, r5
10007c48:	60da      	str	r2, [r3, #12]
10007c4a:	6093      	str	r3, [r2, #8]
10007c4c:	4b36      	ldr	r3, [pc, #216]	; (10007d28 <_free_r+0x1a8>)
10007c4e:	6048      	str	r0, [r1, #4]
10007c50:	514d      	str	r5, [r1, r5]
10007c52:	429d      	cmp	r5, r3
10007c54:	d8d6      	bhi.n	10007c04 <_free_r+0x84>
10007c56:	e7c2      	b.n	10007bde <_free_r+0x5e>
10007c58:	4662      	mov	r2, ip
10007c5a:	18eb      	adds	r3, r5, r3
10007c5c:	4202      	tst	r2, r0
10007c5e:	d106      	bne.n	10007c6e <_free_r+0xee>
10007c60:	680a      	ldr	r2, [r1, #0]
10007c62:	1a89      	subs	r1, r1, r2
10007c64:	6888      	ldr	r0, [r1, #8]
10007c66:	189b      	adds	r3, r3, r2
10007c68:	68ca      	ldr	r2, [r1, #12]
10007c6a:	60c2      	str	r2, [r0, #12]
10007c6c:	6090      	str	r0, [r2, #8]
10007c6e:	2201      	movs	r2, #1
10007c70:	431a      	orrs	r2, r3
10007c72:	604a      	str	r2, [r1, #4]
10007c74:	4a2e      	ldr	r2, [pc, #184]	; (10007d30 <_free_r+0x1b0>)
10007c76:	60b9      	str	r1, [r7, #8]
10007c78:	6812      	ldr	r2, [r2, #0]
10007c7a:	4293      	cmp	r3, r2
10007c7c:	d3be      	bcc.n	10007bfc <_free_r+0x7c>
10007c7e:	4b2d      	ldr	r3, [pc, #180]	; (10007d34 <_free_r+0x1b4>)
10007c80:	0020      	movs	r0, r4
10007c82:	6819      	ldr	r1, [r3, #0]
10007c84:	f7ff ff2c 	bl	10007ae0 <_malloc_trim_r>
10007c88:	e7b8      	b.n	10007bfc <_free_r+0x7c>
10007c8a:	0018      	movs	r0, r3
10007c8c:	e7cf      	b.n	10007c2e <_free_r+0xae>
10007c8e:	4666      	mov	r6, ip
10007c90:	18d0      	adds	r0, r2, r3
10007c92:	6840      	ldr	r0, [r0, #4]
10007c94:	4230      	tst	r0, r6
10007c96:	d13f      	bne.n	10007d18 <_free_r+0x198>
10007c98:	6890      	ldr	r0, [r2, #8]
10007c9a:	195d      	adds	r5, r3, r5
10007c9c:	68d3      	ldr	r3, [r2, #12]
10007c9e:	60c3      	str	r3, [r0, #12]
10007ca0:	6098      	str	r0, [r3, #8]
10007ca2:	4663      	mov	r3, ip
10007ca4:	432b      	orrs	r3, r5
10007ca6:	604b      	str	r3, [r1, #4]
10007ca8:	514d      	str	r5, [r1, r5]
10007caa:	e7a7      	b.n	10007bfc <_free_r+0x7c>
10007cac:	2814      	cmp	r0, #20
10007cae:	d814      	bhi.n	10007cda <_free_r+0x15a>
10007cb0:	0002      	movs	r2, r0
10007cb2:	305c      	adds	r0, #92	; 0x5c
10007cb4:	325b      	adds	r2, #91	; 0x5b
10007cb6:	00c0      	lsls	r0, r0, #3
10007cb8:	e7ac      	b.n	10007c14 <_free_r+0x94>
10007cba:	2301      	movs	r3, #1
10007cbc:	1092      	asrs	r2, r2, #2
10007cbe:	4093      	lsls	r3, r2
10007cc0:	687a      	ldr	r2, [r7, #4]
10007cc2:	4313      	orrs	r3, r2
10007cc4:	607b      	str	r3, [r7, #4]
10007cc6:	0003      	movs	r3, r0
10007cc8:	e7b2      	b.n	10007c30 <_free_r+0xb0>
10007cca:	4328      	orrs	r0, r5
10007ccc:	60d9      	str	r1, [r3, #12]
10007cce:	6099      	str	r1, [r3, #8]
10007cd0:	60cb      	str	r3, [r1, #12]
10007cd2:	608b      	str	r3, [r1, #8]
10007cd4:	6048      	str	r0, [r1, #4]
10007cd6:	514d      	str	r5, [r1, r5]
10007cd8:	e790      	b.n	10007bfc <_free_r+0x7c>
10007cda:	2854      	cmp	r0, #84	; 0x54
10007cdc:	d805      	bhi.n	10007cea <_free_r+0x16a>
10007cde:	0b28      	lsrs	r0, r5, #12
10007ce0:	0002      	movs	r2, r0
10007ce2:	306f      	adds	r0, #111	; 0x6f
10007ce4:	326e      	adds	r2, #110	; 0x6e
10007ce6:	00c0      	lsls	r0, r0, #3
10007ce8:	e794      	b.n	10007c14 <_free_r+0x94>
10007cea:	22aa      	movs	r2, #170	; 0xaa
10007cec:	0052      	lsls	r2, r2, #1
10007cee:	4290      	cmp	r0, r2
10007cf0:	d805      	bhi.n	10007cfe <_free_r+0x17e>
10007cf2:	0be8      	lsrs	r0, r5, #15
10007cf4:	0002      	movs	r2, r0
10007cf6:	3078      	adds	r0, #120	; 0x78
10007cf8:	3277      	adds	r2, #119	; 0x77
10007cfa:	00c0      	lsls	r0, r0, #3
10007cfc:	e78a      	b.n	10007c14 <_free_r+0x94>
10007cfe:	4a0e      	ldr	r2, [pc, #56]	; (10007d38 <_free_r+0x1b8>)
10007d00:	4290      	cmp	r0, r2
10007d02:	d805      	bhi.n	10007d10 <_free_r+0x190>
10007d04:	0ca8      	lsrs	r0, r5, #18
10007d06:	0002      	movs	r2, r0
10007d08:	307d      	adds	r0, #125	; 0x7d
10007d0a:	327c      	adds	r2, #124	; 0x7c
10007d0c:	00c0      	lsls	r0, r0, #3
10007d0e:	e781      	b.n	10007c14 <_free_r+0x94>
10007d10:	20fe      	movs	r0, #254	; 0xfe
10007d12:	227e      	movs	r2, #126	; 0x7e
10007d14:	0080      	lsls	r0, r0, #2
10007d16:	e77d      	b.n	10007c14 <_free_r+0x94>
10007d18:	4663      	mov	r3, ip
10007d1a:	432b      	orrs	r3, r5
10007d1c:	604b      	str	r3, [r1, #4]
10007d1e:	6015      	str	r5, [r2, #0]
10007d20:	e76c      	b.n	10007bfc <_free_r+0x7c>
10007d22:	46c0      	nop			; (mov r8, r8)
10007d24:	20000738 	.word	0x20000738
10007d28:	000001ff 	.word	0x000001ff
10007d2c:	20000740 	.word	0x20000740
10007d30:	20000b44 	.word	0x20000b44
10007d34:	20000b84 	.word	0x20000b84
10007d38:	00000554 	.word	0x00000554

10007d3c <_fini>:
10007d3c:	b5f8      	push	{r3, r4, r5, r6, r7, lr}
10007d3e:	46c0      	nop			; (mov r8, r8)

10007d40 <__mutex_exit_veneer>:
10007d40:	b401      	push	{r0}
10007d42:	4802      	ldr	r0, [pc, #8]	; (10007d4c <__mutex_exit_veneer+0xc>)
10007d44:	4684      	mov	ip, r0
10007d46:	bc01      	pop	{r0}
10007d48:	4760      	bx	ip
10007d4a:	bf00      	nop
10007d4c:	200001bd 	.word	0x200001bd

10007d50 <____aeabi_ldiv0_veneer>:
10007d50:	b401      	push	{r0}
10007d52:	4802      	ldr	r0, [pc, #8]	; (10007d5c <____aeabi_ldiv0_veneer+0xc>)
10007d54:	4684      	mov	ip, r0
10007d56:	bc01      	pop	{r0}
10007d58:	4760      	bx	ip
10007d5a:	bf00      	nop
10007d5c:	20000215 	.word	0x20000215

10007d60 <____aeabi_idiv0_veneer>:
10007d60:	b401      	push	{r0}
10007d62:	4802      	ldr	r0, [pc, #8]	; (10007d6c <____aeabi_idiv0_veneer+0xc>)
10007d64:	4684      	mov	ip, r0
10007d66:	bc01      	pop	{r0}
10007d68:	4760      	bx	ip
10007d6a:	bf00      	nop
10007d6c:	20000215 	.word	0x20000215

10007d70 <__mutex_try_enter_veneer>:
10007d70:	b401      	push	{r0}
10007d72:	4802      	ldr	r0, [pc, #8]	; (10007d7c <__mutex_try_enter_veneer+0xc>)
10007d74:	4684      	mov	ip, r0
10007d76:	bc01      	pop	{r0}
10007d78:	4760      	bx	ip
10007d7a:	bf00      	nop
10007d7c:	2000014d 	.word	0x2000014d

10007d80 <__mutex_enter_blocking_veneer>:
10007d80:	b401      	push	{r0}
10007d82:	4802      	ldr	r0, [pc, #8]	; (10007d8c <__mutex_enter_blocking_veneer+0xc>)
10007d84:	4684      	mov	ip, r0
10007d86:	bc01      	pop	{r0}
10007d88:	4760      	bx	ip
10007d8a:	bf00      	nop
10007d8c:	200000c1 	.word	0x200000c1

Disassembly of section .data:

200000c0 <mutex_enter_blocking>:
200000c0:	b580      	push	{r7, lr}
200000c2:	b084      	sub	sp, #16
200000c4:	af00      	add	r7, sp, #0
200000c6:	6078      	str	r0, [r7, #4]
200000c8:	687b      	ldr	r3, [r7, #4]
200000ca:	681b      	ldr	r3, [r3, #0]
200000cc:	2b00      	cmp	r3, #0
200000ce:	d105      	bne.n	200000dc <mutex_enter_blocking+0x1c>
200000d0:	4b1b      	ldr	r3, [pc, #108]	; (20000140 <mutex_enter_blocking+0x80>)
200000d2:	4a1c      	ldr	r2, [pc, #112]	; (20000144 <mutex_enter_blocking+0x84>)
200000d4:	481c      	ldr	r0, [pc, #112]	; (20000148 <mutex_enter_blocking+0x88>)
200000d6:	2115      	movs	r1, #21
200000d8:	f000 f8be 	bl	20000258 <____assert_func_veneer>
200000dc:	230f      	movs	r3, #15
200000de:	18fb      	adds	r3, r7, r3
200000e0:	2201      	movs	r2, #1
200000e2:	701a      	strb	r2, [r3, #0]
200000e4:	687b      	ldr	r3, [r7, #4]
200000e6:	681b      	ldr	r3, [r3, #0]
200000e8:	0018      	movs	r0, r3
200000ea:	f000 f8a5 	bl	20000238 <__spin_lock_blocking_veneer>
200000ee:	0003      	movs	r3, r0
200000f0:	60bb      	str	r3, [r7, #8]
200000f2:	687b      	ldr	r3, [r7, #4]
200000f4:	791b      	ldrb	r3, [r3, #4]
200000f6:	b25b      	sxtb	r3, r3
200000f8:	2b00      	cmp	r3, #0
200000fa:	da09      	bge.n	20000110 <mutex_enter_blocking+0x50>
200000fc:	f000 f88c 	bl	20000218 <__get_core_num_veneer>
20000100:	0003      	movs	r3, r0
20000102:	b25a      	sxtb	r2, r3
20000104:	687b      	ldr	r3, [r7, #4]
20000106:	711a      	strb	r2, [r3, #4]
20000108:	230f      	movs	r3, #15
2000010a:	18fb      	adds	r3, r7, r3
2000010c:	2200      	movs	r2, #0
2000010e:	701a      	strb	r2, [r3, #0]
20000110:	687b      	ldr	r3, [r7, #4]
20000112:	681b      	ldr	r3, [r3, #0]
20000114:	68ba      	ldr	r2, [r7, #8]
20000116:	0011      	movs	r1, r2
20000118:	0018      	movs	r0, r3
2000011a:	f000 f895 	bl	20000248 <__spin_unlock_veneer>
2000011e:	230f      	movs	r3, #15
20000120:	18fb      	adds	r3, r7, r3
20000122:	781b      	ldrb	r3, [r3, #0]
20000124:	2b00      	cmp	r3, #0
20000126:	d001      	beq.n	2000012c <mutex_enter_blocking+0x6c>
20000128:	f000 f87e 	bl	20000228 <____wfe_veneer>
2000012c:	230f      	movs	r3, #15
2000012e:	18fb      	adds	r3, r7, r3
20000130:	781b      	ldrb	r3, [r3, #0]
20000132:	2b00      	cmp	r3, #0
20000134:	d1d6      	bne.n	200000e4 <mutex_enter_blocking+0x24>
20000136:	46c0      	nop			; (mov r8, r8)
20000138:	46bd      	mov	sp, r7
2000013a:	b004      	add	sp, #16
2000013c:	bd80      	pop	{r7, pc}
2000013e:	46c0      	nop			; (mov r8, r8)
20000140:	10008240 	.word	0x10008240
20000144:	100082a4 	.word	0x100082a4
20000148:	10008254 	.word	0x10008254

2000014c <mutex_try_enter>:
2000014c:	b580      	push	{r7, lr}
2000014e:	b084      	sub	sp, #16
20000150:	af00      	add	r7, sp, #0
20000152:	6078      	str	r0, [r7, #4]
20000154:	6039      	str	r1, [r7, #0]
20000156:	687b      	ldr	r3, [r7, #4]
20000158:	681b      	ldr	r3, [r3, #0]
2000015a:	0018      	movs	r0, r3
2000015c:	f000 f86c 	bl	20000238 <__spin_lock_blocking_veneer>
20000160:	0003      	movs	r3, r0
20000162:	60bb      	str	r3, [r7, #8]
20000164:	687b      	ldr	r3, [r7, #4]
20000166:	791b      	ldrb	r3, [r3, #4]
20000168:	b25b      	sxtb	r3, r3
2000016a:	2b00      	cmp	r3, #0
2000016c:	da0a      	bge.n	20000184 <mutex_try_enter+0x38>
2000016e:	f000 f853 	bl	20000218 <__get_core_num_veneer>
20000172:	0003      	movs	r3, r0
20000174:	b25a      	sxtb	r2, r3
20000176:	687b      	ldr	r3, [r7, #4]
20000178:	711a      	strb	r2, [r3, #4]
2000017a:	230f      	movs	r3, #15
2000017c:	18fb      	adds	r3, r7, r3
2000017e:	2201      	movs	r2, #1
20000180:	701a      	strb	r2, [r3, #0]
20000182:	e00c      	b.n	2000019e <mutex_try_enter+0x52>
20000184:	683b      	ldr	r3, [r7, #0]
20000186:	2b00      	cmp	r3, #0
20000188:	d005      	beq.n	20000196 <mutex_try_enter+0x4a>
2000018a:	687b      	ldr	r3, [r7, #4]
2000018c:	791b      	ldrb	r3, [r3, #4]
2000018e:	b25b      	sxtb	r3, r3
20000190:	001a      	movs	r2, r3
20000192:	683b      	ldr	r3, [r7, #0]
20000194:	601a      	str	r2, [r3, #0]
20000196:	230f      	movs	r3, #15
20000198:	18fb      	adds	r3, r7, r3
2000019a:	2200      	movs	r2, #0
2000019c:	701a      	strb	r2, [r3, #0]
2000019e:	687b      	ldr	r3, [r7, #4]
200001a0:	681b      	ldr	r3, [r3, #0]
200001a2:	68ba      	ldr	r2, [r7, #8]
200001a4:	0011      	movs	r1, r2
200001a6:	0018      	movs	r0, r3
200001a8:	f000 f84e 	bl	20000248 <__spin_unlock_veneer>
200001ac:	230f      	movs	r3, #15
200001ae:	18fb      	adds	r3, r7, r3
200001b0:	781b      	ldrb	r3, [r3, #0]
200001b2:	0018      	movs	r0, r3
200001b4:	46bd      	mov	sp, r7
200001b6:	b004      	add	sp, #16
200001b8:	bd80      	pop	{r7, pc}
	...

200001bc <mutex_exit>:
200001bc:	b580      	push	{r7, lr}
200001be:	b084      	sub	sp, #16
200001c0:	af00      	add	r7, sp, #0
200001c2:	6078      	str	r0, [r7, #4]
200001c4:	687b      	ldr	r3, [r7, #4]
200001c6:	681b      	ldr	r3, [r3, #0]
200001c8:	0018      	movs	r0, r3
200001ca:	f000 f835 	bl	20000238 <__spin_lock_blocking_veneer>
200001ce:	0003      	movs	r3, r0
200001d0:	60fb      	str	r3, [r7, #12]
200001d2:	687b      	ldr	r3, [r7, #4]
200001d4:	791b      	ldrb	r3, [r3, #4]
200001d6:	b25b      	sxtb	r3, r3
200001d8:	2b00      	cmp	r3, #0
200001da:	da05      	bge.n	200001e8 <mutex_exit+0x2c>
200001dc:	4b0a      	ldr	r3, [pc, #40]	; (20000208 <mutex_exit+0x4c>)
200001de:	4a0b      	ldr	r2, [pc, #44]	; (2000020c <mutex_exit+0x50>)
200001e0:	480b      	ldr	r0, [pc, #44]	; (20000210 <mutex_exit+0x54>)
200001e2:	214b      	movs	r1, #75	; 0x4b
200001e4:	f000 f838 	bl	20000258 <____assert_func_veneer>
200001e8:	687b      	ldr	r3, [r7, #4]
200001ea:	22ff      	movs	r2, #255	; 0xff
200001ec:	711a      	strb	r2, [r3, #4]
200001ee:	f000 f83b 	bl	20000268 <____sev_veneer>
200001f2:	687b      	ldr	r3, [r7, #4]
200001f4:	681b      	ldr	r3, [r3, #0]
200001f6:	68fa      	ldr	r2, [r7, #12]
200001f8:	0011      	movs	r1, r2
200001fa:	0018      	movs	r0, r3
200001fc:	f000 f824 	bl	20000248 <__spin_unlock_veneer>
20000200:	46c0      	nop			; (mov r8, r8)
20000202:	46bd      	mov	sp, r7
20000204:	b004      	add	sp, #16
20000206:	bd80      	pop	{r7, pc}
20000208:	10008294 	.word	0x10008294
2000020c:	100082bc 	.word	0x100082bc
20000210:	10008254 	.word	0x10008254

20000214 <__aeabi_idiv0>:
20000214:	4770      	bx	lr
20000216:	46c0      	nop			; (mov r8, r8)

20000218 <__get_core_num_veneer>:
20000218:	b401      	push	{r0}
2000021a:	4802      	ldr	r0, [pc, #8]	; (20000224 <__get_core_num_veneer+0xc>)
2000021c:	4684      	mov	ip, r0
2000021e:	bc01      	pop	{r0}
20000220:	4760      	bx	ip
20000222:	bf00      	nop
20000224:	1000295b 	.word	0x1000295b

20000228 <____wfe_veneer>:
20000228:	b401      	push	{r0}
2000022a:	4802      	ldr	r0, [pc, #8]	; (20000234 <____wfe_veneer+0xc>)
2000022c:	4684      	mov	ip, r0
2000022e:	bc01      	pop	{r0}
20000230:	4760      	bx	ip
20000232:	bf00      	nop
20000234:	10002875 	.word	0x10002875

20000238 <__spin_lock_blocking_veneer>:
20000238:	b401      	push	{r0}
2000023a:	4802      	ldr	r0, [pc, #8]	; (20000244 <__spin_lock_blocking_veneer+0xc>)
2000023c:	4684      	mov	ip, r0
2000023e:	bc01      	pop	{r0}
20000240:	4760      	bx	ip
20000242:	bf00      	nop
20000244:	10002917 	.word	0x10002917

20000248 <__spin_unlock_veneer>:
20000248:	b401      	push	{r0}
2000024a:	4802      	ldr	r0, [pc, #8]	; (20000254 <__spin_unlock_veneer+0xc>)
2000024c:	4684      	mov	ip, r0
2000024e:	bc01      	pop	{r0}
20000250:	4760      	bx	ip
20000252:	bf00      	nop
20000254:	10002939 	.word	0x10002939

20000258 <____assert_func_veneer>:
20000258:	b401      	push	{r0}
2000025a:	4802      	ldr	r0, [pc, #8]	; (20000264 <____assert_func_veneer+0xc>)
2000025c:	4684      	mov	ip, r0
2000025e:	bc01      	pop	{r0}
20000260:	4760      	bx	ip
20000262:	bf00      	nop
20000264:	100031c5 	.word	0x100031c5

20000268 <____sev_veneer>:
20000268:	b401      	push	{r0}
2000026a:	4802      	ldr	r0, [pc, #8]	; (20000274 <____sev_veneer+0xc>)
2000026c:	4684      	mov	ip, r0
2000026e:	bc01      	pop	{r0}
20000270:	4760      	bx	ip
20000272:	bf00      	nop
20000274:	10002869 	.word	0x10002869

20000278 <threadCount>:
20000278:	00001002                                         .

20000279 <striped_spin_lock_num>:
20000279:	00000010                                         ...

2000027c <irq_handler_chain_slots>:
2000027c:	00000000 	.word	0x00000000
20000280:	00010000 	.word	0x00010000
	...
2000028c:	00020000 	.word	0x00020000
	...
20000298:	00030000 	.word	0x00030000
	...
200002a4:	00ff0000 	.word	0x00ff0000
200002a8:	00000000 	.word	0x00000000

200002ac <irq_handler_chain_first_slot>:
200002ac:	b500      	push	{lr}
200002ae:	6848      	ldr	r0, [r1, #4]
200002b0:	3101      	adds	r1, #1
200002b2:	468e      	mov	lr, r1
200002b4:	4700      	bx	r0

200002b6 <irq_handler_chain_remove_tail>:
200002b6:	4670      	mov	r0, lr
200002b8:	3809      	subs	r0, #9
200002ba:	4901      	ldr	r1, [pc, #4]	; (200002c0 <irq_handler_chain_remove_tail+0xa>)
200002bc:	4788      	blx	r1
200002be:	bd00      	pop	{pc}
200002c0:	10003ed1 	.word	0x10003ed1
	...

200002d0 <aeabi_bits_funcs>:
200002d0:	00003350 	.word	0x00003350
200002d4:	0000334c 	.word	0x0000334c
200002d8:	00003354 	.word	0x00003354
200002dc:	00003352 	.word	0x00003352

200002e0 <aeabi_bits_funcs_end>:
200002e0:	0000534d 	.word	0x0000534d
200002e4:	0000434d 	.word	0x0000434d
200002e8:	00003453 	.word	0x00003453
200002ec:	00003443 	.word	0x00003443

200002f0 <aeabi_mem_funcs_end>:
200002f0:	10007179 	.word	0x10007179
200002f4:	00000000 	.word	0x00000000
200002f8:	100071b5 	.word	0x100071b5
200002fc:	00000000 	.word	0x00000000
20000300:	00000100 	.word	0x00000100
20000304:	00000000 	.word	0x00000000

20000308 <_impure_ptr>:
20000308:	20000310 00000000                       ... ....

20000310 <impure_data>:
20000310:	00000000 200005fc 20000664 200006cc     ....... d.. ... 
	...
20000344:	10008e68 00000000 00000000 00000000     h...............
	...
200003b8:	00000001 00000000 abcd330e e66d1234     .........3..4.m.
200003c8:	0005deec 0000000b 00000000 00000000     ................
	...

20000738 <__malloc_av_>:
	...
20000740:	20000738 20000738 20000740 20000740     8.. 8.. @.. @.. 
20000750:	20000748 20000748 20000750 20000750     H.. H.. P.. P.. 
20000760:	20000758 20000758 20000760 20000760     X.. X.. `.. `.. 
20000770:	20000768 20000768 20000770 20000770     h.. h.. p.. p.. 
20000780:	20000778 20000778 20000780 20000780     x.. x.. ... ... 
20000790:	20000788 20000788 20000790 20000790     ... ... ... ... 
200007a0:	20000798 20000798 200007a0 200007a0     ... ... ... ... 
200007b0:	200007a8 200007a8 200007b0 200007b0     ... ... ... ... 
200007c0:	200007b8 200007b8 200007c0 200007c0     ... ... ... ... 
200007d0:	200007c8 200007c8 200007d0 200007d0     ... ... ... ... 
200007e0:	200007d8 200007d8 200007e0 200007e0     ... ... ... ... 
200007f0:	200007e8 200007e8 200007f0 200007f0     ... ... ... ... 
20000800:	200007f8 200007f8 20000800 20000800     ... ... ... ... 
20000810:	20000808 20000808 20000810 20000810     ... ... ... ... 
20000820:	20000818 20000818 20000820 20000820     ... ...  ..  .. 
20000830:	20000828 20000828 20000830 20000830     (.. (.. 0.. 0.. 
20000840:	20000838 20000838 20000840 20000840     8.. 8.. @.. @.. 
20000850:	20000848 20000848 20000850 20000850     H.. H.. P.. P.. 
20000860:	20000858 20000858 20000860 20000860     X.. X.. `.. `.. 
20000870:	20000868 20000868 20000870 20000870     h.. h.. p.. p.. 
20000880:	20000878 20000878 20000880 20000880     x.. x.. ... ... 
20000890:	20000888 20000888 20000890 20000890     ... ... ... ... 
200008a0:	20000898 20000898 200008a0 200008a0     ... ... ... ... 
200008b0:	200008a8 200008a8 200008b0 200008b0     ... ... ... ... 
200008c0:	200008b8 200008b8 200008c0 200008c0     ... ... ... ... 
200008d0:	200008c8 200008c8 200008d0 200008d0     ... ... ... ... 
200008e0:	200008d8 200008d8 200008e0 200008e0     ... ... ... ... 
200008f0:	200008e8 200008e8 200008f0 200008f0     ... ... ... ... 
20000900:	200008f8 200008f8 20000900 20000900     ... ... ... ... 
20000910:	20000908 20000908 20000910 20000910     ... ... ... ... 
20000920:	20000918 20000918 20000920 20000920     ... ...  ..  .. 
20000930:	20000928 20000928 20000930 20000930     (.. (.. 0.. 0.. 
20000940:	20000938 20000938 20000940 20000940     8.. 8.. @.. @.. 
20000950:	20000948 20000948 20000950 20000950     H.. H.. P.. P.. 
20000960:	20000958 20000958 20000960 20000960     X.. X.. `.. `.. 
20000970:	20000968 20000968 20000970 20000970     h.. h.. p.. p.. 
20000980:	20000978 20000978 20000980 20000980     x.. x.. ... ... 
20000990:	20000988 20000988 20000990 20000990     ... ... ... ... 
200009a0:	20000998 20000998 200009a0 200009a0     ... ... ... ... 
200009b0:	200009a8 200009a8 200009b0 200009b0     ... ... ... ... 
200009c0:	200009b8 200009b8 200009c0 200009c0     ... ... ... ... 
200009d0:	200009c8 200009c8 200009d0 200009d0     ... ... ... ... 
200009e0:	200009d8 200009d8 200009e0 200009e0     ... ... ... ... 
200009f0:	200009e8 200009e8 200009f0 200009f0     ... ... ... ... 
20000a00:	200009f8 200009f8 20000a00 20000a00     ... ... ... ... 
20000a10:	20000a08 20000a08 20000a10 20000a10     ... ... ... ... 
20000a20:	20000a18 20000a18 20000a20 20000a20     ... ...  ..  .. 
20000a30:	20000a28 20000a28 20000a30 20000a30     (.. (.. 0.. 0.. 
20000a40:	20000a38 20000a38 20000a40 20000a40     8.. 8.. @.. @.. 
20000a50:	20000a48 20000a48 20000a50 20000a50     H.. H.. P.. P.. 
20000a60:	20000a58 20000a58 20000a60 20000a60     X.. X.. `.. `.. 
20000a70:	20000a68 20000a68 20000a70 20000a70     h.. h.. p.. p.. 
20000a80:	20000a78 20000a78 20000a80 20000a80     x.. x.. ... ... 
20000a90:	20000a88 20000a88 20000a90 20000a90     ... ... ... ... 
20000aa0:	20000a98 20000a98 20000aa0 20000aa0     ... ... ... ... 
20000ab0:	20000aa8 20000aa8 20000ab0 20000ab0     ... ... ... ... 
20000ac0:	20000ab8 20000ab8 20000ac0 20000ac0     ... ... ... ... 
20000ad0:	20000ac8 20000ac8 20000ad0 20000ad0     ... ... ... ... 
20000ae0:	20000ad8 20000ad8 20000ae0 20000ae0     ... ... ... ... 
20000af0:	20000ae8 20000ae8 20000af0 20000af0     ... ... ... ... 
20000b00:	20000af8 20000af8 20000b00 20000b00     ... ... ... ... 
20000b10:	20000b08 20000b08 20000b10 20000b10     ... ... ... ... 
20000b20:	20000b18 20000b18 20000b20 20000b20     ... ...  ..  .. 
20000b30:	20000b28 20000b28 20000b30 20000b30     (.. (.. 0.. 0.. 

20000b40 <__malloc_sbrk_base>:
20000b40:	ffffffff                                ....

20000b44 <__malloc_trim_threshold>:
20000b44:	00020000                                ....

20000b48 <__mutex_array_start>:
	...

20000b50 <__mutex_array_end>:
20000b50:	10006a7d 	.word	0x10006a7d
20000b54:	1000589d 	.word	0x1000589d
20000b58:	10006041 	.word	0x10006041
20000b5c:	10006871 	.word	0x10006871

20000b60 <__frame_dummy_init_array_entry>:
20000b60:	1000033d                                =...
